ARM GAS  C:\Users\ADMINI~1\AppData\Local\Temp\ccmsfknf.s 			page 1


   1              		.cpu cortex-m0
   2              		.fpu softvfp
   3              		.eabi_attribute 20, 1
   4              		.eabi_attribute 21, 1
   5              		.eabi_attribute 23, 3
   6              		.eabi_attribute 24, 1
   7              		.eabi_attribute 25, 1
   8              		.eabi_attribute 26, 1
   9              		.eabi_attribute 30, 1
  10              		.eabi_attribute 34, 0
  11              		.eabi_attribute 18, 4
  12              		.code	16
  13              		.file	"main.c"
  14              		.text
  15              	.Ltext0:
  16              		.cfi_sections	.debug_frame
  17              		.section	.text.InitializeComponents,"ax",%progbits
  18              		.align	2
  19              		.global	InitializeComponents
  20              		.code	16
  21              		.thumb_func
  22              		.type	InitializeComponents, %function
  23              	InitializeComponents:
  24              	.LFB34:
  25              		.file 1 ".\\main.c"
   1:.\main.c      **** /* ========================================
   2:.\main.c      ****  *
   3:.\main.c      ****  * Copyright YOUR COMPANY, THE YEAR
   4:.\main.c      ****  * All Rights Reserved
   5:.\main.c      ****  * UNPUBLISHED, LICENSED SOFTWARE.
   6:.\main.c      ****  *
   7:.\main.c      ****  * CONFIDENTIAL AND PROPRIETARY INFORMATION
   8:.\main.c      ****  * WHICH IS THE PROPERTY OF your company.
   9:.\main.c      ****  *
  10:.\main.c      ****  * ========================================
  11:.\main.c      **** */
  12:.\main.c      **** #include <project.h>
  13:.\main.c      **** #include <stdio.h>
  14:.\main.c      **** #include <stdlib.h>
  15:.\main.c      **** 
  16:.\main.c      **** void ServoPWM(int left, int right);
  17:.\main.c      **** void InitializeComponents();
  18:.\main.c      **** 
  19:.\main.c      **** int main()
  20:.\main.c      **** {
  21:.\main.c      ****     /* Place your initialization/startup code here (e.g. MyInst_Start()) */
  22:.\main.c      ****     uint8 ch;
  23:.\main.c      ****     /* Start SCB UART TX+RX operation */    
  24:.\main.c      ****     InitializeComponents();
  25:.\main.c      ****     UART_UartPutString("CY8CKIT-042 USB-UART\r\n");
  26:.\main.c      ****     UART_UartPutString("Now,let's begin the travel of PSoc4\r\n");
  27:.\main.c      ****     ch=0xcc;
  28:.\main.c      ****     ServoPWM(4500, 4800);
  29:.\main.c      ****     for(;;)
  30:.\main.c      ****     {
  31:.\main.c      ****         /* Place your application code here. */
  32:.\main.c      ****         ch = UART_UartGetChar();
ARM GAS  C:\Users\ADMINI~1\AppData\Local\Temp\ccmsfknf.s 			page 2


  33:.\main.c      ****         if(0u != ch)
  34:.\main.c      ****         {
  35:.\main.c      ****             /* Send the data through UART. 
  36:.\main.c      ****             This functions is blocking and waits
  37:.\main.c      ****             until there is an entry into the TX FIFO.*/
  38:.\main.c      ****             UART_UartPutChar(ch);
  39:.\main.c      ****             if (ch == 'Q')
  40:.\main.c      ****             {
  41:.\main.c      ****                 ServoPWM(4000, 5278);
  42:.\main.c      ****             }
  43:.\main.c      ****             if(ch == 'q')
  44:.\main.c      ****             {
  45:.\main.c      ****                 ServoPWM(4500, 4800);
  46:.\main.c      ****             }
  47:.\main.c      ****             if (ch == 'H')
  48:.\main.c      ****             {
  49:.\main.c      ****                 ServoPWM(5150, 4000);
  50:.\main.c      ****             }
  51:.\main.c      ****             if(ch == 'h')
  52:.\main.c      ****             {
  53:.\main.c      ****                 ServoPWM(4500, 4800);
  54:.\main.c      ****             }
  55:.\main.c      ****             if (ch == 'Z')
  56:.\main.c      ****             {
  57:.\main.c      ****                 ServoPWM(4180, 5278);
  58:.\main.c      ****             }
  59:.\main.c      ****             if(ch == 'z')
  60:.\main.c      ****             {
  61:.\main.c      ****                 ServoPWM(4500, 4800);
  62:.\main.c      ****             }
  63:.\main.c      ****             if (ch == 'Y')
  64:.\main.c      ****             {
  65:.\main.c      ****                 ServoPWM(3900, 5100);
  66:.\main.c      ****             }
  67:.\main.c      ****             if(ch == 'y')
  68:.\main.c      ****             {
  69:.\main.c      ****                 ServoPWM(4500, 4800);
  70:.\main.c      ****             }
  71:.\main.c      ****             if (ch == 'J') //forward right
  72:.\main.c      ****             {
  73:.\main.c      ****                 ServoPWM(4000, 5278);
  74:.\main.c      ****                 CyDelay(2000);
  75:.\main.c      ****                 ServoPWM(3500, 5100);
  76:.\main.c      ****                 CyDelay(3000);
  77:.\main.c      ****                 ServoPWM(4500, 4800);
  78:.\main.c      ****             }
  79:.\main.c      ****             if (ch == 'U') //forward right forward
  80:.\main.c      ****             {
  81:.\main.c      ****                 ServoPWM(4000, 5278);
  82:.\main.c      ****                 CyDelay(2000);
  83:.\main.c      ****                 ServoPWM(3500, 5100);
  84:.\main.c      ****                 CyDelay(3500);
  85:.\main.c      ****                 ServoPWM(4000, 5278);
  86:.\main.c      ****                 CyDelay(2000);
  87:.\main.c      ****                 ServoPWM(4500, 4800);
  88:.\main.c      ****             }
  89:.\main.c      ****             if (ch == 'S') //first left then right
ARM GAS  C:\Users\ADMINI~1\AppData\Local\Temp\ccmsfknf.s 			page 3


  90:.\main.c      ****             {
  91:.\main.c      ****                 ServoPWM(4180, 5278);
  92:.\main.c      ****                 CyDelay(5200);
  93:.\main.c      ****                 ServoPWM(3900, 5000);
  94:.\main.c      ****                 CyDelay(4100);
  95:.\main.c      ****                 ServoPWM(4500, 4800);
  96:.\main.c      ****             }
  97:.\main.c      ****             
  98:.\main.c      ****         }
  99:.\main.c      **** 
 100:.\main.c      ****     }
 101:.\main.c      ****     return 0;
 102:.\main.c      **** }
 103:.\main.c      **** 
 104:.\main.c      **** void InitializeComponents()
 105:.\main.c      **** {
  26              		.loc 1 105 0
  27              		.cfi_startproc
  28 0000 08B5     		push	{r3, lr}
  29              		.cfi_def_cfa_offset 8
  30              		.cfi_offset 3, -8
  31              		.cfi_offset 14, -4
 106:.\main.c      ****     CyGlobalIntEnable;
  32              		.loc 1 106 0
  33              	@ 106 ".\main.c" 1
  34 0002 62B6     		CPSIE   i
  35              	@ 0 "" 2
 107:.\main.c      ****     PWM_1_Start();
  36              		.loc 1 107 0
  37              		.code	16
  38 0004 FFF7FEFF 		bl	PWM_1_Start
  39              	.LVL0:
 108:.\main.c      ****     PWM_2_Start();
  40              		.loc 1 108 0
  41 0008 FFF7FEFF 		bl	PWM_2_Start
  42              	.LVL1:
 109:.\main.c      ****     UART_Start();
  43              		.loc 1 109 0
  44 000c FFF7FEFF 		bl	UART_Start
  45              	.LVL2:
 110:.\main.c      **** }
  46              		.loc 1 110 0
  47              		@ sp needed
  48 0010 08BD     		pop	{r3, pc}
  49              		.cfi_endproc
  50              	.LFE34:
  51              		.size	InitializeComponents, .-InitializeComponents
  52 0012 C046     		.section	.text.ServoPWM,"ax",%progbits
  53              		.align	2
  54              		.global	ServoPWM
  55              		.code	16
  56              		.thumb_func
  57              		.type	ServoPWM, %function
  58              	ServoPWM:
  59              	.LFB35:
 111:.\main.c      **** 
 112:.\main.c      **** void ServoPWM(int left, int right)
ARM GAS  C:\Users\ADMINI~1\AppData\Local\Temp\ccmsfknf.s 			page 4


 113:.\main.c      **** {
  60              		.loc 1 113 0
  61              		.cfi_startproc
  62              	.LVL3:
  63 0000 10B5     		push	{r4, lr}
  64              		.cfi_def_cfa_offset 8
  65              		.cfi_offset 4, -8
  66              		.cfi_offset 14, -4
  67 0002 0C1C     		mov	r4, r1
 114:.\main.c      ****     PWM_1_WriteCompare(left);
  68              		.loc 1 114 0
  69 0004 FFF7FEFF 		bl	PWM_1_WriteCompare
  70              	.LVL4:
 115:.\main.c      ****     PWM_2_WriteCompare(right);
  71              		.loc 1 115 0
  72 0008 201C     		mov	r0, r4
  73 000a FFF7FEFF 		bl	PWM_2_WriteCompare
  74              	.LVL5:
 116:.\main.c      **** }
  75              		.loc 1 116 0
  76              		@ sp needed
  77              	.LVL6:
  78 000e 10BD     		pop	{r4, pc}
  79              		.cfi_endproc
  80              	.LFE35:
  81              		.size	ServoPWM, .-ServoPWM
  82              		.section	.text.main,"ax",%progbits
  83              		.align	2
  84              		.global	main
  85              		.code	16
  86              		.thumb_func
  87              		.type	main, %function
  88              	main:
  89              	.LFB33:
  20:.\main.c      ****     /* Place your initialization/startup code here (e.g. MyInst_Start()) */
  90              		.loc 1 20 0
  91              		.cfi_startproc
  92 0000 F8B5     		push	{r3, r4, r5, r6, r7, lr}
  93              		.cfi_def_cfa_offset 24
  94              		.cfi_offset 3, -24
  95              		.cfi_offset 4, -20
  96              		.cfi_offset 5, -16
  97              		.cfi_offset 6, -12
  98              		.cfi_offset 7, -8
  99              		.cfi_offset 14, -4
  24:.\main.c      ****     UART_UartPutString("CY8CKIT-042 USB-UART\r\n");
 100              		.loc 1 24 0
 101 0002 FFF7FEFF 		bl	InitializeComponents
 102              	.LVL7:
  25:.\main.c      ****     UART_UartPutString("Now,let's begin the travel of PSoc4\r\n");
 103              		.loc 1 25 0
 104 0006 4C48     		ldr	r0, .L17
 105 0008 FFF7FEFF 		bl	UART_UartPutString
 106              	.LVL8:
  26:.\main.c      ****     ch=0xcc;
 107              		.loc 1 26 0
 108 000c 4B48     		ldr	r0, .L17+4
ARM GAS  C:\Users\ADMINI~1\AppData\Local\Temp\ccmsfknf.s 			page 5


 109 000e FFF7FEFF 		bl	UART_UartPutString
 110              	.LVL9:
  28:.\main.c      ****     for(;;)
 111              		.loc 1 28 0
 112 0012 4B48     		ldr	r0, .L17+8
 113 0014 9621     		mov	r1, #150
 114 0016 4901     		lsl	r1, r1, #5
 115 0018 FFF7FEFF 		bl	ServoPWM
 116              	.LVL10:
 117              	.L4:
  32:.\main.c      ****         if(0u != ch)
 118              		.loc 1 32 0
 119 001c FFF7FEFF 		bl	UART_UartGetChar
 120              	.LVL11:
 121 0020 C4B2     		uxtb	r4, r0
 122              	.LVL12:
  33:.\main.c      ****         {
 123              		.loc 1 33 0
 124 0022 002C     		cmp	r4, #0
 125 0024 FAD0     		beq	.L4
  38:.\main.c      ****             if (ch == 'Q')
 126              		.loc 1 38 0
 127 0026 FF23     		mov	r3, #255
 128 0028 1840     		and	r0, r3
 129 002a FFF7FEFF 		bl	UART_SpiUartWriteTxData
 130              	.LVL13:
  39:.\main.c      ****             {
 131              		.loc 1 39 0
 132 002e 512C     		cmp	r4, #81
 133 0030 04D1     		bne	.L5
  41:.\main.c      ****             }
 134              		.loc 1 41 0
 135 0032 FA20     		mov	r0, #250
 136 0034 0001     		lsl	r0, r0, #4
 137 0036 4349     		ldr	r1, .L17+12
 138 0038 FFF7FEFF 		bl	ServoPWM
 139              	.LVL14:
 140              	.L5:
  43:.\main.c      ****             {
 141              		.loc 1 43 0
 142 003c 712C     		cmp	r4, #113
 143 003e 04D1     		bne	.L6
  45:.\main.c      ****             }
 144              		.loc 1 45 0
 145 0040 3F48     		ldr	r0, .L17+8
 146 0042 9621     		mov	r1, #150
 147 0044 4901     		lsl	r1, r1, #5
 148 0046 FFF7FEFF 		bl	ServoPWM
 149              	.LVL15:
 150              	.L6:
  47:.\main.c      ****             {
 151              		.loc 1 47 0
 152 004a 482C     		cmp	r4, #72
 153 004c 04D1     		bne	.L7
  49:.\main.c      ****             }
 154              		.loc 1 49 0
 155 004e 3E48     		ldr	r0, .L17+16
ARM GAS  C:\Users\ADMINI~1\AppData\Local\Temp\ccmsfknf.s 			page 6


 156 0050 FA21     		mov	r1, #250
 157 0052 0901     		lsl	r1, r1, #4
 158 0054 FFF7FEFF 		bl	ServoPWM
 159              	.LVL16:
 160              	.L7:
  51:.\main.c      ****             {
 161              		.loc 1 51 0
 162 0058 682C     		cmp	r4, #104
 163 005a 04D1     		bne	.L8
  53:.\main.c      ****             }
 164              		.loc 1 53 0
 165 005c 3848     		ldr	r0, .L17+8
 166 005e 9621     		mov	r1, #150
 167 0060 4901     		lsl	r1, r1, #5
 168 0062 FFF7FEFF 		bl	ServoPWM
 169              	.LVL17:
 170              	.L8:
  55:.\main.c      ****             {
 171              		.loc 1 55 0
 172 0066 5A2C     		cmp	r4, #90
 173 0068 03D1     		bne	.L9
  57:.\main.c      ****             }
 174              		.loc 1 57 0
 175 006a 3848     		ldr	r0, .L17+20
 176 006c 3549     		ldr	r1, .L17+12
 177 006e FFF7FEFF 		bl	ServoPWM
 178              	.LVL18:
 179              	.L9:
  59:.\main.c      ****             {
 180              		.loc 1 59 0
 181 0072 7A2C     		cmp	r4, #122
 182 0074 04D1     		bne	.L10
  61:.\main.c      ****             }
 183              		.loc 1 61 0
 184 0076 3248     		ldr	r0, .L17+8
 185 0078 9621     		mov	r1, #150
 186 007a 4901     		lsl	r1, r1, #5
 187 007c FFF7FEFF 		bl	ServoPWM
 188              	.LVL19:
 189              	.L10:
  63:.\main.c      ****             {
 190              		.loc 1 63 0
 191 0080 592C     		cmp	r4, #89
 192 0082 03D1     		bne	.L11
  65:.\main.c      ****             }
 193              		.loc 1 65 0
 194 0084 3248     		ldr	r0, .L17+24
 195 0086 3349     		ldr	r1, .L17+28
 196 0088 FFF7FEFF 		bl	ServoPWM
 197              	.LVL20:
 198              	.L11:
  67:.\main.c      ****             {
 199              		.loc 1 67 0
 200 008c 792C     		cmp	r4, #121
 201 008e 04D1     		bne	.L12
  69:.\main.c      ****             }
 202              		.loc 1 69 0
ARM GAS  C:\Users\ADMINI~1\AppData\Local\Temp\ccmsfknf.s 			page 7


 203 0090 2B48     		ldr	r0, .L17+8
 204 0092 9621     		mov	r1, #150
 205 0094 4901     		lsl	r1, r1, #5
 206 0096 FFF7FEFF 		bl	ServoPWM
 207              	.LVL21:
 208              	.L12:
  71:.\main.c      ****             {
 209              		.loc 1 71 0
 210 009a 4A2C     		cmp	r4, #74
 211 009c 14D1     		bne	.L13
  73:.\main.c      ****                 CyDelay(2000);
 212              		.loc 1 73 0
 213 009e FA20     		mov	r0, #250
 214 00a0 0001     		lsl	r0, r0, #4
 215 00a2 2849     		ldr	r1, .L17+12
 216 00a4 FFF7FEFF 		bl	ServoPWM
 217              	.LVL22:
  74:.\main.c      ****                 ServoPWM(3500, 5100);
 218              		.loc 1 74 0
 219 00a8 FA20     		mov	r0, #250
 220 00aa C000     		lsl	r0, r0, #3
 221 00ac FFF7FEFF 		bl	CyDelay
 222              	.LVL23:
  75:.\main.c      ****                 CyDelay(3000);
 223              		.loc 1 75 0
 224 00b0 2948     		ldr	r0, .L17+32
 225 00b2 2849     		ldr	r1, .L17+28
 226 00b4 FFF7FEFF 		bl	ServoPWM
 227              	.LVL24:
  76:.\main.c      ****                 ServoPWM(4500, 4800);
 228              		.loc 1 76 0
 229 00b8 2848     		ldr	r0, .L17+36
 230 00ba FFF7FEFF 		bl	CyDelay
 231              	.LVL25:
  77:.\main.c      ****             }
 232              		.loc 1 77 0
 233 00be 2048     		ldr	r0, .L17+8
 234 00c0 9621     		mov	r1, #150
 235 00c2 4901     		lsl	r1, r1, #5
 236 00c4 FFF7FEFF 		bl	ServoPWM
 237              	.LVL26:
 238              	.L13:
  79:.\main.c      ****             {
 239              		.loc 1 79 0
 240 00c8 552C     		cmp	r4, #85
 241 00ca 1FD1     		bne	.L14
  81:.\main.c      ****                 CyDelay(2000);
 242              		.loc 1 81 0
 243 00cc FA26     		mov	r6, #250
 244 00ce 3601     		lsl	r6, r6, #4
 245 00d0 1C4D     		ldr	r5, .L17+12
 246 00d2 301C     		mov	r0, r6
 247 00d4 291C     		mov	r1, r5
 248 00d6 FFF7FEFF 		bl	ServoPWM
 249              	.LVL27:
  82:.\main.c      ****                 ServoPWM(3500, 5100);
 250              		.loc 1 82 0
ARM GAS  C:\Users\ADMINI~1\AppData\Local\Temp\ccmsfknf.s 			page 8


 251 00da FA20     		mov	r0, #250
 252 00dc C000     		lsl	r0, r0, #3
 253 00de FFF7FEFF 		bl	CyDelay
 254              	.LVL28:
  83:.\main.c      ****                 CyDelay(3500);
 255              		.loc 1 83 0
 256 00e2 1D4F     		ldr	r7, .L17+32
 257 00e4 381C     		mov	r0, r7
 258 00e6 1B49     		ldr	r1, .L17+28
 259 00e8 FFF7FEFF 		bl	ServoPWM
 260              	.LVL29:
  84:.\main.c      ****                 ServoPWM(4000, 5278);
 261              		.loc 1 84 0
 262 00ec 381C     		mov	r0, r7
 263 00ee FFF7FEFF 		bl	CyDelay
 264              	.LVL30:
  85:.\main.c      ****                 CyDelay(2000);
 265              		.loc 1 85 0
 266 00f2 301C     		mov	r0, r6
 267 00f4 291C     		mov	r1, r5
 268 00f6 FFF7FEFF 		bl	ServoPWM
 269              	.LVL31:
  86:.\main.c      ****                 ServoPWM(4500, 4800);
 270              		.loc 1 86 0
 271 00fa FA20     		mov	r0, #250
 272 00fc C000     		lsl	r0, r0, #3
 273 00fe FFF7FEFF 		bl	CyDelay
 274              	.LVL32:
  87:.\main.c      ****             }
 275              		.loc 1 87 0
 276 0102 0F48     		ldr	r0, .L17+8
 277 0104 9621     		mov	r1, #150
 278 0106 4901     		lsl	r1, r1, #5
 279 0108 FFF7FEFF 		bl	ServoPWM
 280              	.LVL33:
 281              	.L14:
  89:.\main.c      ****             {
 282              		.loc 1 89 0
 283 010c 532C     		cmp	r4, #83
 284 010e 85D1     		bne	.L4
  91:.\main.c      ****                 CyDelay(5200);
 285              		.loc 1 91 0
 286 0110 0E48     		ldr	r0, .L17+20
 287 0112 0C49     		ldr	r1, .L17+12
 288 0114 FFF7FEFF 		bl	ServoPWM
 289              	.LVL34:
  92:.\main.c      ****                 ServoPWM(3900, 5000);
 290              		.loc 1 92 0
 291 0118 1148     		ldr	r0, .L17+40
 292 011a FFF7FEFF 		bl	CyDelay
 293              	.LVL35:
  93:.\main.c      ****                 CyDelay(4100);
 294              		.loc 1 93 0
 295 011e 0C48     		ldr	r0, .L17+24
 296 0120 1049     		ldr	r1, .L17+44
 297 0122 FFF7FEFF 		bl	ServoPWM
 298              	.LVL36:
ARM GAS  C:\Users\ADMINI~1\AppData\Local\Temp\ccmsfknf.s 			page 9


  94:.\main.c      ****                 ServoPWM(4500, 4800);
 299              		.loc 1 94 0
 300 0126 1048     		ldr	r0, .L17+48
 301 0128 FFF7FEFF 		bl	CyDelay
 302              	.LVL37:
  95:.\main.c      ****             }
 303              		.loc 1 95 0
 304 012c 0448     		ldr	r0, .L17+8
 305 012e 9621     		mov	r1, #150
 306 0130 4901     		lsl	r1, r1, #5
 307 0132 FFF7FEFF 		bl	ServoPWM
 308              	.LVL38:
 309 0136 71E7     		b	.L4
 310              	.L18:
 311              		.align	2
 312              	.L17:
 313 0138 00000000 		.word	.LC0
 314 013c 18000000 		.word	.LC2
 315 0140 94110000 		.word	4500
 316 0144 9E140000 		.word	5278
 317 0148 1E140000 		.word	5150
 318 014c 54100000 		.word	4180
 319 0150 3C0F0000 		.word	3900
 320 0154 EC130000 		.word	5100
 321 0158 AC0D0000 		.word	3500
 322 015c B80B0000 		.word	3000
 323 0160 50140000 		.word	5200
 324 0164 88130000 		.word	5000
 325 0168 04100000 		.word	4100
 326              		.cfi_endproc
 327              	.LFE33:
 328              		.size	main, .-main
 329              		.section	.rodata.str1.4,"aMS",%progbits,1
 330              		.align	2
 331              	.LC0:
 332 0000 43593843 		.ascii	"CY8CKIT-042 USB-UART\015\012\000"
 332      4B49542D 
 332      30343220 
 332      5553422D 
 332      55415254 
 333 0017 00       		.space	1
 334              	.LC2:
 335 0018 4E6F772C 		.ascii	"Now,let's begin the travel of PSoc4\015\012\000"
 335      6C657427 
 335      73206265 
 335      67696E20 
 335      74686520 
 336 003e 0000     		.text
 337              	.Letext0:
 338              		.file 2 "Generated_Source\\PSoC4/cytypes.h"
 339              		.file 3 "Generated_Source\\PSoC4/PWM_1.h"
 340              		.file 4 "Generated_Source\\PSoC4/PWM_2.h"
 341              		.file 5 "Generated_Source\\PSoC4/UART.h"
 342              		.file 6 "Generated_Source\\PSoC4/UART_SPI_UART.h"
 343              		.file 7 "Generated_Source\\PSoC4/CyLib.h"