ARM GAS  C:\Users\Nick\AppData\Local\Temp\ccPDwdCo.s 			page 1


   1              		.cpu cortex-m0
   2              		.fpu softvfp
   3              		.eabi_attribute 20, 1
   4              		.eabi_attribute 21, 1
   5              		.eabi_attribute 23, 3
   6              		.eabi_attribute 24, 1
   7              		.eabi_attribute 25, 1
   8              		.eabi_attribute 26, 1
   9              		.eabi_attribute 30, 1
  10              		.eabi_attribute 34, 0
  11              		.eabi_attribute 18, 4
  12              		.code	16
  13              		.file	"CyLFClk.c"
  14              		.text
  15              	.Ltext0:
  16              		.cfi_sections	.debug_frame
  17              		.section	.text.CySysClkIloEnabled,"ax",%progbits
  18              		.align	2
  19              		.code	16
  20              		.thumb_func
  21              		.type	CySysClkIloEnabled, %function
  22              	CySysClkIloEnabled:
  23              	.LFB2:
  24              		.file 1 ".\\Generated_Source\\PSoC4\\CyLFClk.c"
   1:.\Generated_Source\PSoC4/CyLFClk.c **** /*******************************************************************************
   2:.\Generated_Source\PSoC4/CyLFClk.c **** * File Name: .c
   3:.\Generated_Source\PSoC4/CyLFClk.c **** * Version 1.0
   4:.\Generated_Source\PSoC4/CyLFClk.c **** *
   5:.\Generated_Source\PSoC4/CyLFClk.c **** * Description:
   6:.\Generated_Source\PSoC4/CyLFClk.c **** *  This file provides the source code to API for the cy_lfclk Component.
   7:.\Generated_Source\PSoC4/CyLFClk.c **** *
   8:.\Generated_Source\PSoC4/CyLFClk.c **** ********************************************************************************
   9:.\Generated_Source\PSoC4/CyLFClk.c **** * Copyright 2008-2015, Cypress Semiconductor Corporation.  All rights reserved.
  10:.\Generated_Source\PSoC4/CyLFClk.c **** * You may use this file only in accordance with the license, terms, conditions,
  11:.\Generated_Source\PSoC4/CyLFClk.c **** * disclaimers, and limitations in the end user license agreement accompanying
  12:.\Generated_Source\PSoC4/CyLFClk.c **** * the software package with which this file was provided.
  13:.\Generated_Source\PSoC4/CyLFClk.c **** *******************************************************************************/
  14:.\Generated_Source\PSoC4/CyLFClk.c **** 
  15:.\Generated_Source\PSoC4/CyLFClk.c **** 
  16:.\Generated_Source\PSoC4/CyLFClk.c **** #include "CyLFClk.h"
  17:.\Generated_Source\PSoC4/CyLFClk.c **** #include "CyLib.h"
  18:.\Generated_Source\PSoC4/CyLFClk.c **** 
  19:.\Generated_Source\PSoC4/CyLFClk.c **** 
  20:.\Generated_Source\PSoC4/CyLFClk.c **** #if (CY_IP_WCO)
  21:.\Generated_Source\PSoC4/CyLFClk.c ****     static uint32 CySysClkGetLfclkSource(void);
  22:.\Generated_Source\PSoC4/CyLFClk.c **** #endif /* (CY_IP_WCO) */
  23:.\Generated_Source\PSoC4/CyLFClk.c **** 
  24:.\Generated_Source\PSoC4/CyLFClk.c **** #if(CY_IP_SRSSV2)
  25:.\Generated_Source\PSoC4/CyLFClk.c ****     /* CySysClkLfclkPosedgeCatch() / CySysClkLfclkPosedgeRestore() */
  26:.\Generated_Source\PSoC4/CyLFClk.c ****     static uint32 lfclkPosedgeWdtCounter0Enabled = 0u;
  27:.\Generated_Source\PSoC4/CyLFClk.c ****     static uint32 lfclkPosedgeWdtCounter0Mode    = CY_SYS_WDT_MODE_NONE;
  28:.\Generated_Source\PSoC4/CyLFClk.c **** 
  29:.\Generated_Source\PSoC4/CyLFClk.c ****     static volatile uint32 disableServicedIsr = 0uL;
  30:.\Generated_Source\PSoC4/CyLFClk.c ****     static volatile uint32 wdtIsrMask = CY_SYS_WDT_COUNTER0_INT |\
  31:.\Generated_Source\PSoC4/CyLFClk.c ****                                         CY_SYS_WDT_COUNTER1_INT |\
  32:.\Generated_Source\PSoC4/CyLFClk.c ****                                         CY_SYS_WDT_COUNTER2_INT;
  33:.\Generated_Source\PSoC4/CyLFClk.c **** 
ARM GAS  C:\Users\Nick\AppData\Local\Temp\ccPDwdCo.s 			page 2


  34:.\Generated_Source\PSoC4/CyLFClk.c ****     static const uint32 counterIntMaskTbl[CY_WDT_NUM_OF_WDT] = {CY_SYS_WDT_COUNTER0_INT,
  35:.\Generated_Source\PSoC4/CyLFClk.c ****                                                                 CY_SYS_WDT_COUNTER1_INT,
  36:.\Generated_Source\PSoC4/CyLFClk.c ****                                                                 CY_SYS_WDT_COUNTER2_INT};
  37:.\Generated_Source\PSoC4/CyLFClk.c **** 
  38:.\Generated_Source\PSoC4/CyLFClk.c ****     static void CySysClkLfclkPosedgeCatch(void);
  39:.\Generated_Source\PSoC4/CyLFClk.c ****     static void CySysClkLfclkPosedgeRestore(void);
  40:.\Generated_Source\PSoC4/CyLFClk.c **** 
  41:.\Generated_Source\PSoC4/CyLFClk.c ****     static uint32 CySysWdtLocked(void);
  42:.\Generated_Source\PSoC4/CyLFClk.c ****     static uint32 CySysClkIloEnabled(void);
  43:.\Generated_Source\PSoC4/CyLFClk.c **** #endif /* (CY_IP_SRSSV2) */
  44:.\Generated_Source\PSoC4/CyLFClk.c **** 
  45:.\Generated_Source\PSoC4/CyLFClk.c **** #if(CY_IP_SRSSV2)
  46:.\Generated_Source\PSoC4/CyLFClk.c ****     static cyWdtCallback cySysWdtCallback[CY_WDT_NUM_OF_WDT] = {(void *)0, (void *)0, (void *)0};
  47:.\Generated_Source\PSoC4/CyLFClk.c **** #else
  48:.\Generated_Source\PSoC4/CyLFClk.c ****     static cyWdtCallback cySysWdtCallback = (void *)0;
  49:.\Generated_Source\PSoC4/CyLFClk.c **** #endif /* (CY_IP_SRSSV2) */
  50:.\Generated_Source\PSoC4/CyLFClk.c **** 
  51:.\Generated_Source\PSoC4/CyLFClk.c **** /*******************************************************************************
  52:.\Generated_Source\PSoC4/CyLFClk.c **** * Function Name: CySysClkIloStart
  53:.\Generated_Source\PSoC4/CyLFClk.c **** ********************************************************************************
  54:.\Generated_Source\PSoC4/CyLFClk.c **** *
  55:.\Generated_Source\PSoC4/CyLFClk.c **** * Summary:
  56:.\Generated_Source\PSoC4/CyLFClk.c **** *  Enables ILO. Refer to the device datasheet for the ILO startup time.
  57:.\Generated_Source\PSoC4/CyLFClk.c **** *
  58:.\Generated_Source\PSoC4/CyLFClk.c **** * Parameters:
  59:.\Generated_Source\PSoC4/CyLFClk.c **** *  None
  60:.\Generated_Source\PSoC4/CyLFClk.c **** *
  61:.\Generated_Source\PSoC4/CyLFClk.c **** * Return:
  62:.\Generated_Source\PSoC4/CyLFClk.c **** *  None
  63:.\Generated_Source\PSoC4/CyLFClk.c **** *
  64:.\Generated_Source\PSoC4/CyLFClk.c **** *******************************************************************************/
  65:.\Generated_Source\PSoC4/CyLFClk.c **** void CySysClkIloStart(void)
  66:.\Generated_Source\PSoC4/CyLFClk.c **** {
  67:.\Generated_Source\PSoC4/CyLFClk.c ****     CY_SYS_CLK_ILO_CONFIG_REG |= CY_SYS_CLK_ILO_CONFIG_ENABLE;
  68:.\Generated_Source\PSoC4/CyLFClk.c **** }
  69:.\Generated_Source\PSoC4/CyLFClk.c **** 
  70:.\Generated_Source\PSoC4/CyLFClk.c **** 
  71:.\Generated_Source\PSoC4/CyLFClk.c **** /*******************************************************************************
  72:.\Generated_Source\PSoC4/CyLFClk.c **** * Function Name: CySysClkIloStop
  73:.\Generated_Source\PSoC4/CyLFClk.c **** ********************************************************************************
  74:.\Generated_Source\PSoC4/CyLFClk.c **** *
  75:.\Generated_Source\PSoC4/CyLFClk.c **** * Summary:
  76:.\Generated_Source\PSoC4/CyLFClk.c **** *  Disables ILO.
  77:.\Generated_Source\PSoC4/CyLFClk.c **** *
  78:.\Generated_Source\PSoC4/CyLFClk.c **** * Parameters:
  79:.\Generated_Source\PSoC4/CyLFClk.c **** *  None.
  80:.\Generated_Source\PSoC4/CyLFClk.c **** *
  81:.\Generated_Source\PSoC4/CyLFClk.c **** * Return:
  82:.\Generated_Source\PSoC4/CyLFClk.c **** *  None.
  83:.\Generated_Source\PSoC4/CyLFClk.c **** *
  84:.\Generated_Source\PSoC4/CyLFClk.c **** * Side Effects:
  85:.\Generated_Source\PSoC4/CyLFClk.c **** *  This function has no effect if WDT is locked (CySysWdtLock() is
  86:.\Generated_Source\PSoC4/CyLFClk.c **** *  called). Call CySysWdtUnlock() to unlock WDT and stop ILO.
  87:.\Generated_Source\PSoC4/CyLFClk.c **** *
  88:.\Generated_Source\PSoC4/CyLFClk.c **** *  PSoC 4100 / PSoC 4200: Note that ILO is required for WDT's operation.
  89:.\Generated_Source\PSoC4/CyLFClk.c **** *  ILO is required for WDT operation.
  90:.\Generated_Source\PSoC4/CyLFClk.c **** *
ARM GAS  C:\Users\Nick\AppData\Local\Temp\ccPDwdCo.s 			page 3


  91:.\Generated_Source\PSoC4/CyLFClk.c **** *  PSoC 4100-BL / PSoC 4200-BL and PSoC 4100M / PSoC 4200M:
  92:.\Generated_Source\PSoC4/CyLFClk.c **** *  Stopping ILO affects the peripheral clocked by LFCLK, if
  93:.\Generated_Source\PSoC4/CyLFClk.c **** *  LFCLK is configured to be sourced by ILO.
  94:.\Generated_Source\PSoC4/CyLFClk.c **** *
  95:.\Generated_Source\PSoC4/CyLFClk.c **** *******************************************************************************/
  96:.\Generated_Source\PSoC4/CyLFClk.c **** void CySysClkIloStop(void)
  97:.\Generated_Source\PSoC4/CyLFClk.c **** {
  98:.\Generated_Source\PSoC4/CyLFClk.c ****     #if(CY_IP_SRSSV2)
  99:.\Generated_Source\PSoC4/CyLFClk.c ****         uint8  interruptState;
 100:.\Generated_Source\PSoC4/CyLFClk.c **** 
 101:.\Generated_Source\PSoC4/CyLFClk.c ****         /* Do nothing if WDT is locked or ILO is disabled */
 102:.\Generated_Source\PSoC4/CyLFClk.c ****         if (0u == CySysWdtLocked())
 103:.\Generated_Source\PSoC4/CyLFClk.c ****         {
 104:.\Generated_Source\PSoC4/CyLFClk.c ****             if (0u != CySysClkIloEnabled())
 105:.\Generated_Source\PSoC4/CyLFClk.c ****             {
 106:.\Generated_Source\PSoC4/CyLFClk.c **** 
 107:.\Generated_Source\PSoC4/CyLFClk.c ****             #if (CY_IP_WCO)
 108:.\Generated_Source\PSoC4/CyLFClk.c ****                 if (CY_SYS_CLK_LFCLK_SRC_ILO == CySysClkGetLfclkSource())
 109:.\Generated_Source\PSoC4/CyLFClk.c ****                 {
 110:.\Generated_Source\PSoC4/CyLFClk.c ****             #endif /* (CY_IP_WCO) */
 111:.\Generated_Source\PSoC4/CyLFClk.c **** 
 112:.\Generated_Source\PSoC4/CyLFClk.c ****                 interruptState = CyEnterCriticalSection();
 113:.\Generated_Source\PSoC4/CyLFClk.c ****                 CySysClkLfclkPosedgeCatch();
 114:.\Generated_Source\PSoC4/CyLFClk.c ****                 CY_SYS_CLK_ILO_CONFIG_REG &= ( uint32 ) ( ~( uint32 )CY_SYS_CLK_ILO_CONFIG_ENABLE);
 115:.\Generated_Source\PSoC4/CyLFClk.c ****                 CySysClkLfclkPosedgeRestore();
 116:.\Generated_Source\PSoC4/CyLFClk.c ****                 CyExitCriticalSection(interruptState);
 117:.\Generated_Source\PSoC4/CyLFClk.c **** 
 118:.\Generated_Source\PSoC4/CyLFClk.c ****             #if (CY_IP_WCO)
 119:.\Generated_Source\PSoC4/CyLFClk.c ****                 }
 120:.\Generated_Source\PSoC4/CyLFClk.c ****                 else /* Safe to disable - shortened pulse does not impact peripheral */
 121:.\Generated_Source\PSoC4/CyLFClk.c ****                 {
 122:.\Generated_Source\PSoC4/CyLFClk.c ****                     CY_SYS_CLK_ILO_CONFIG_REG &= ( uint32 ) ( ~( uint32 )CY_SYS_CLK_ILO_CONFIG_ENAB
 123:.\Generated_Source\PSoC4/CyLFClk.c ****                 }
 124:.\Generated_Source\PSoC4/CyLFClk.c ****             #endif /* (CY_IP_WCO) */
 125:.\Generated_Source\PSoC4/CyLFClk.c **** 
 126:.\Generated_Source\PSoC4/CyLFClk.c ****             }
 127:.\Generated_Source\PSoC4/CyLFClk.c ****         }
 128:.\Generated_Source\PSoC4/CyLFClk.c ****     #else
 129:.\Generated_Source\PSoC4/CyLFClk.c ****         CY_SYS_CLK_ILO_CONFIG_REG &= ( uint32 ) ( ~( uint32 )CY_SYS_CLK_ILO_CONFIG_ENABLE);
 130:.\Generated_Source\PSoC4/CyLFClk.c ****     #endif /* (CY_IP_SRSSV2) */
 131:.\Generated_Source\PSoC4/CyLFClk.c **** }
 132:.\Generated_Source\PSoC4/CyLFClk.c **** 
 133:.\Generated_Source\PSoC4/CyLFClk.c **** #if(CY_IP_SRSSV2)
 134:.\Generated_Source\PSoC4/CyLFClk.c ****     /*******************************************************************************
 135:.\Generated_Source\PSoC4/CyLFClk.c ****     * Function Name: CySysClkIloEnabled
 136:.\Generated_Source\PSoC4/CyLFClk.c ****     ********************************************************************************
 137:.\Generated_Source\PSoC4/CyLFClk.c ****     *
 138:.\Generated_Source\PSoC4/CyLFClk.c ****     * Summary:
 139:.\Generated_Source\PSoC4/CyLFClk.c ****     *  Reports the ILO enable state.
 140:.\Generated_Source\PSoC4/CyLFClk.c ****     *
 141:.\Generated_Source\PSoC4/CyLFClk.c ****     * Parameters:
 142:.\Generated_Source\PSoC4/CyLFClk.c ****     *  None.
 143:.\Generated_Source\PSoC4/CyLFClk.c ****     *
 144:.\Generated_Source\PSoC4/CyLFClk.c ****     * Return:
 145:.\Generated_Source\PSoC4/CyLFClk.c ****     *  1 if ILO is enabled, and 0 if ILO is disabled.
 146:.\Generated_Source\PSoC4/CyLFClk.c ****     *
 147:.\Generated_Source\PSoC4/CyLFClk.c ****     *******************************************************************************/
ARM GAS  C:\Users\Nick\AppData\Local\Temp\ccPDwdCo.s 			page 4


 148:.\Generated_Source\PSoC4/CyLFClk.c ****     static uint32 CySysClkIloEnabled(void)
 149:.\Generated_Source\PSoC4/CyLFClk.c ****     {
  25              		.loc 1 149 0
  26              		.cfi_startproc
 150:.\Generated_Source\PSoC4/CyLFClk.c ****         /* Prohibits writing to WDT registers and ILO/WCO registers when not equal to 0 */
 151:.\Generated_Source\PSoC4/CyLFClk.c ****         return ((0u != (CY_SYS_CLK_ILO_CONFIG_REG & (uint32)(CY_SYS_CLK_ILO_CONFIG_ENABLE))) ?
  27              		.loc 1 151 0
  28 0000 034B     		ldr	r3, .L4
  29 0002 1B68     		ldr	r3, [r3]
 152:.\Generated_Source\PSoC4/CyLFClk.c ****             (uint32) 1u :
  30              		.loc 1 152 0
  31 0004 002B     		cmp	r3, #0
  32 0006 01DA     		bge	.L3
  33 0008 0120     		mov	r0, #1
  34 000a 00E0     		b	.L2
  35              	.L3:
  36 000c 0020     		mov	r0, #0
  37              	.L2:
 153:.\Generated_Source\PSoC4/CyLFClk.c ****             (uint32) 0u);
 154:.\Generated_Source\PSoC4/CyLFClk.c ****     }
  38              		.loc 1 154 0
  39              		@ sp needed
  40 000e 7047     		bx	lr
  41              	.L5:
  42              		.align	2
  43              	.L4:
  44 0010 04010B40 		.word	1074462980
  45              		.cfi_endproc
  46              	.LFE2:
  47              		.size	CySysClkIloEnabled, .-CySysClkIloEnabled
  48              		.section	.text.CySysWdtLocked,"ax",%progbits
  49              		.align	2
  50              		.code	16
  51              		.thumb_func
  52              		.type	CySysWdtLocked, %function
  53              	CySysWdtLocked:
  54              	.LFB4:
 155:.\Generated_Source\PSoC4/CyLFClk.c **** #endif /* (CY_IP_SRSSV2) */
 156:.\Generated_Source\PSoC4/CyLFClk.c **** 
 157:.\Generated_Source\PSoC4/CyLFClk.c **** 
 158:.\Generated_Source\PSoC4/CyLFClk.c **** /*******************************************************************************
 159:.\Generated_Source\PSoC4/CyLFClk.c **** * Function Name: CySysClkGetLfclkSource
 160:.\Generated_Source\PSoC4/CyLFClk.c **** ********************************************************************************
 161:.\Generated_Source\PSoC4/CyLFClk.c **** *
 162:.\Generated_Source\PSoC4/CyLFClk.c **** * Summary:
 163:.\Generated_Source\PSoC4/CyLFClk.c **** *  Gets the clock source for the LFCLK clock.
 164:.\Generated_Source\PSoC4/CyLFClk.c **** *  The function is applicable only for PSoC 4100-BL and PSoC 4200-BL.
 165:.\Generated_Source\PSoC4/CyLFClk.c **** *
 166:.\Generated_Source\PSoC4/CyLFClk.c **** * Parameters:
 167:.\Generated_Source\PSoC4/CyLFClk.c **** *  None.
 168:.\Generated_Source\PSoC4/CyLFClk.c **** *
 169:.\Generated_Source\PSoC4/CyLFClk.c **** * Return:
 170:.\Generated_Source\PSoC4/CyLFClk.c **** *  The LFCLK source:
 171:.\Generated_Source\PSoC4/CyLFClk.c **** *   CY_SYS_CLK_LFCLK_SRC_ILO    Internal Low Frequency (32 kHz) Oscillator (ILO)
 172:.\Generated_Source\PSoC4/CyLFClk.c **** *   CY_SYS_CLK_LFCLK_SRC_WCO    Low Frequency Watch Crystal Oscillator (WCO)
 173:.\Generated_Source\PSoC4/CyLFClk.c **** *
 174:.\Generated_Source\PSoC4/CyLFClk.c **** *******************************************************************************/
ARM GAS  C:\Users\Nick\AppData\Local\Temp\ccPDwdCo.s 			page 5


 175:.\Generated_Source\PSoC4/CyLFClk.c **** #if (CY_IP_WCO)
 176:.\Generated_Source\PSoC4/CyLFClk.c ****     static uint32 CySysClkGetLfclkSource(void)
 177:.\Generated_Source\PSoC4/CyLFClk.c ****     {
 178:.\Generated_Source\PSoC4/CyLFClk.c ****         uint32 lfclkSource;
 179:.\Generated_Source\PSoC4/CyLFClk.c ****         lfclkSource = CY_SYS_WDT_CONFIG_REG & CY_SYS_CLK_LFCLK_SEL_MASK;
 180:.\Generated_Source\PSoC4/CyLFClk.c ****         return (lfclkSource);
 181:.\Generated_Source\PSoC4/CyLFClk.c ****     }
 182:.\Generated_Source\PSoC4/CyLFClk.c **** #endif /* (CY_IP_WCO) */
 183:.\Generated_Source\PSoC4/CyLFClk.c **** 
 184:.\Generated_Source\PSoC4/CyLFClk.c **** 
 185:.\Generated_Source\PSoC4/CyLFClk.c **** /*******************************************************************************
 186:.\Generated_Source\PSoC4/CyLFClk.c **** * Function Name: CySysClkSetLfclkSource
 187:.\Generated_Source\PSoC4/CyLFClk.c **** ********************************************************************************
 188:.\Generated_Source\PSoC4/CyLFClk.c **** *
 189:.\Generated_Source\PSoC4/CyLFClk.c **** * Summary:
 190:.\Generated_Source\PSoC4/CyLFClk.c **** *  Sets the clock source for the LFCLK clock.
 191:.\Generated_Source\PSoC4/CyLFClk.c **** *
 192:.\Generated_Source\PSoC4/CyLFClk.c **** *  The switch between LFCLK sources must be done between the positive edges of
 193:.\Generated_Source\PSoC4/CyLFClk.c **** *  LFCLK, because the glitch risk is around the LFCLK positive edge. To ensure
 194:.\Generated_Source\PSoC4/CyLFClk.c **** *  that the switch can be done safely, the WDT counter value is read until it
 195:.\Generated_Source\PSoC4/CyLFClk.c **** *  changes.
 196:.\Generated_Source\PSoC4/CyLFClk.c **** *
 197:.\Generated_Source\PSoC4/CyLFClk.c **** *  That means that the positive edge just finished and the switch is performed.
 198:.\Generated_Source\PSoC4/CyLFClk.c **** *  The enabled WDT counter is used for that purpose. If no counters are enabled,
 199:.\Generated_Source\PSoC4/CyLFClk.c **** *  counter 0 is enabled. And after the LFCLK source is switched, counter 0
 200:.\Generated_Source\PSoC4/CyLFClk.c **** *  configuration is restored.
 201:.\Generated_Source\PSoC4/CyLFClk.c **** *
 202:.\Generated_Source\PSoC4/CyLFClk.c **** *  The function is applicable only for PSoC 4100-BL and PSoC 4200-BL.
 203:.\Generated_Source\PSoC4/CyLFClk.c **** *
 204:.\Generated_Source\PSoC4/CyLFClk.c **** * Parameters:
 205:.\Generated_Source\PSoC4/CyLFClk.c **** *  source: One of the available LFCLK sources.
 206:.\Generated_Source\PSoC4/CyLFClk.c **** *   CY_SYS_CLK_LFCLK_SRC_ILO    Internal Low Frequency (32 kHz) Oscillator (ILO)
 207:.\Generated_Source\PSoC4/CyLFClk.c **** *   CY_SYS_CLK_LFCLK_SRC_WCO    Low Frequency Watch Crystal Oscillator (WCO)
 208:.\Generated_Source\PSoC4/CyLFClk.c **** *
 209:.\Generated_Source\PSoC4/CyLFClk.c **** * Return:
 210:.\Generated_Source\PSoC4/CyLFClk.c **** *  None
 211:.\Generated_Source\PSoC4/CyLFClk.c **** *
 212:.\Generated_Source\PSoC4/CyLFClk.c **** * Side Effects:
 213:.\Generated_Source\PSoC4/CyLFClk.c **** *  This function has no effect if WDT is locked (CySysWdtLock() is
 214:.\Generated_Source\PSoC4/CyLFClk.c **** *  called). Call CySysWdtUnlock() to unlock WDT.
 215:.\Generated_Source\PSoC4/CyLFClk.c **** *
 216:.\Generated_Source\PSoC4/CyLFClk.c **** *  Both the current source and the new source must be running and stable before
 217:.\Generated_Source\PSoC4/CyLFClk.c **** *  calling this function.
 218:.\Generated_Source\PSoC4/CyLFClk.c **** *
 219:.\Generated_Source\PSoC4/CyLFClk.c **** *  Changing the LFCLK clock source may change the LFCLK clock frequency and
 220:.\Generated_Source\PSoC4/CyLFClk.c **** *  affect the functionality that uses this clock. For example, watchdog timer
 221:.\Generated_Source\PSoC4/CyLFClk.c **** *  "uses this clock" or "this clock uses" (WDT) is clocked by LFCLK.
 222:.\Generated_Source\PSoC4/CyLFClk.c **** *
 223:.\Generated_Source\PSoC4/CyLFClk.c **** *******************************************************************************/
 224:.\Generated_Source\PSoC4/CyLFClk.c **** #if (CY_IP_WCO)
 225:.\Generated_Source\PSoC4/CyLFClk.c ****     void CySysClkSetLfclkSource(uint32 source)
 226:.\Generated_Source\PSoC4/CyLFClk.c ****     {
 227:.\Generated_Source\PSoC4/CyLFClk.c ****         uint8  interruptState;
 228:.\Generated_Source\PSoC4/CyLFClk.c **** 
 229:.\Generated_Source\PSoC4/CyLFClk.c ****         if (CySysClkGetLfclkSource() != source)
 230:.\Generated_Source\PSoC4/CyLFClk.c ****         {
 231:.\Generated_Source\PSoC4/CyLFClk.c ****             interruptState = CyEnterCriticalSection();
ARM GAS  C:\Users\Nick\AppData\Local\Temp\ccPDwdCo.s 			page 6


 232:.\Generated_Source\PSoC4/CyLFClk.c **** 
 233:.\Generated_Source\PSoC4/CyLFClk.c ****             CySysClkLfclkPosedgeCatch();
 234:.\Generated_Source\PSoC4/CyLFClk.c **** 
 235:.\Generated_Source\PSoC4/CyLFClk.c ****             CY_SYS_WDT_CONFIG_REG = (CY_SYS_WDT_CONFIG_REG & (uint32)(~CY_SYS_CLK_LFCLK_SEL_MASK)) 
 236:.\Generated_Source\PSoC4/CyLFClk.c ****                                     (source & CY_SYS_CLK_LFCLK_SEL_MASK);
 237:.\Generated_Source\PSoC4/CyLFClk.c **** 
 238:.\Generated_Source\PSoC4/CyLFClk.c ****             CySysClkLfclkPosedgeRestore();
 239:.\Generated_Source\PSoC4/CyLFClk.c **** 
 240:.\Generated_Source\PSoC4/CyLFClk.c ****             CyExitCriticalSection(interruptState);
 241:.\Generated_Source\PSoC4/CyLFClk.c ****         }
 242:.\Generated_Source\PSoC4/CyLFClk.c ****     }
 243:.\Generated_Source\PSoC4/CyLFClk.c **** #endif /* (CY_IP_WCO) */
 244:.\Generated_Source\PSoC4/CyLFClk.c **** 
 245:.\Generated_Source\PSoC4/CyLFClk.c **** 
 246:.\Generated_Source\PSoC4/CyLFClk.c **** #if (CY_IP_WCO)
 247:.\Generated_Source\PSoC4/CyLFClk.c ****     /*******************************************************************************
 248:.\Generated_Source\PSoC4/CyLFClk.c ****     * Function Name: CySysClkWcoStart
 249:.\Generated_Source\PSoC4/CyLFClk.c ****     ********************************************************************************
 250:.\Generated_Source\PSoC4/CyLFClk.c ****     *
 251:.\Generated_Source\PSoC4/CyLFClk.c ****     * Summary:
 252:.\Generated_Source\PSoC4/CyLFClk.c ****     *  Enables Watch Crystal Oscillator (WCO). WCO is used as a source for
 253:.\Generated_Source\PSoC4/CyLFClk.c ****     *  LFCLK.  Similar to ILO, WCO is also available in all modes except Hibernate
 254:.\Generated_Source\PSoC4/CyLFClk.c ****     *  and Stop modes.
 255:.\Generated_Source\PSoC4/CyLFClk.c ****     *
 256:.\Generated_Source\PSoC4/CyLFClk.c ****     *  WCO is always enabled in High Power Mode (HPM). Refer to the device
 257:.\Generated_Source\PSoC4/CyLFClk.c ****     *  datasheet for the  WCO startup time. Once WCO becomes stable it can be
 258:.\Generated_Source\PSoC4/CyLFClk.c ****     *  switched to Low Power Mode (LPM). Note that oscillator can be unstable
 259:.\Generated_Source\PSoC4/CyLFClk.c ****     *  during a switch and hence its output should not be used at that moment.
 260:.\Generated_Source\PSoC4/CyLFClk.c ****     *
 261:.\Generated_Source\PSoC4/CyLFClk.c ****     *  The CySysClkWcoSetPowerMode() function configures the WCO power mode.
 262:.\Generated_Source\PSoC4/CyLFClk.c ****     *
 263:.\Generated_Source\PSoC4/CyLFClk.c ****     * Parameters:
 264:.\Generated_Source\PSoC4/CyLFClk.c ****     *  None.
 265:.\Generated_Source\PSoC4/CyLFClk.c ****     *
 266:.\Generated_Source\PSoC4/CyLFClk.c ****     * Return:
 267:.\Generated_Source\PSoC4/CyLFClk.c ****     *  None.
 268:.\Generated_Source\PSoC4/CyLFClk.c ****     *
 269:.\Generated_Source\PSoC4/CyLFClk.c ****     *******************************************************************************/
 270:.\Generated_Source\PSoC4/CyLFClk.c ****     void CySysClkWcoStart(void)
 271:.\Generated_Source\PSoC4/CyLFClk.c ****     {
 272:.\Generated_Source\PSoC4/CyLFClk.c ****         CySysClkWcoSetHighPowerMode();
 273:.\Generated_Source\PSoC4/CyLFClk.c ****         CY_SYS_CLK_WCO_CONFIG_REG |= CY_SYS_CLK_WCO_CONFIG_LPM_ENABLE;
 274:.\Generated_Source\PSoC4/CyLFClk.c ****     }
 275:.\Generated_Source\PSoC4/CyLFClk.c **** 
 276:.\Generated_Source\PSoC4/CyLFClk.c **** 
 277:.\Generated_Source\PSoC4/CyLFClk.c ****     /*******************************************************************************
 278:.\Generated_Source\PSoC4/CyLFClk.c ****     * Function Name: CySysClkWcoStop
 279:.\Generated_Source\PSoC4/CyLFClk.c ****     ********************************************************************************
 280:.\Generated_Source\PSoC4/CyLFClk.c ****     *
 281:.\Generated_Source\PSoC4/CyLFClk.c ****     * Summary:
 282:.\Generated_Source\PSoC4/CyLFClk.c ****     *  Disables the 32KHz Crystal Oscillator.
 283:.\Generated_Source\PSoC4/CyLFClk.c ****     *
 284:.\Generated_Source\PSoC4/CyLFClk.c ****     * Parameters:
 285:.\Generated_Source\PSoC4/CyLFClk.c ****     *  None.
 286:.\Generated_Source\PSoC4/CyLFClk.c ****     *
 287:.\Generated_Source\PSoC4/CyLFClk.c ****     * Return:
 288:.\Generated_Source\PSoC4/CyLFClk.c ****     *  None.
ARM GAS  C:\Users\Nick\AppData\Local\Temp\ccPDwdCo.s 			page 7


 289:.\Generated_Source\PSoC4/CyLFClk.c ****     *
 290:.\Generated_Source\PSoC4/CyLFClk.c ****     *******************************************************************************/
 291:.\Generated_Source\PSoC4/CyLFClk.c ****     void  CySysClkWcoStop(void)
 292:.\Generated_Source\PSoC4/CyLFClk.c ****     {
 293:.\Generated_Source\PSoC4/CyLFClk.c ****         uint8  interruptState;
 294:.\Generated_Source\PSoC4/CyLFClk.c **** 
 295:.\Generated_Source\PSoC4/CyLFClk.c ****         if (0u != CySysClkWcoEnabled())
 296:.\Generated_Source\PSoC4/CyLFClk.c ****         {
 297:.\Generated_Source\PSoC4/CyLFClk.c **** 
 298:.\Generated_Source\PSoC4/CyLFClk.c ****             if (CY_SYS_CLK_LFCLK_SRC_WCO == CySysClkGetLfclkSource())
 299:.\Generated_Source\PSoC4/CyLFClk.c ****             {
 300:.\Generated_Source\PSoC4/CyLFClk.c ****                 interruptState = CyEnterCriticalSection();
 301:.\Generated_Source\PSoC4/CyLFClk.c ****                 CySysClkLfclkPosedgeCatch();
 302:.\Generated_Source\PSoC4/CyLFClk.c ****                 CY_SYS_CLK_WCO_CONFIG_REG &= (uint32) ~CY_SYS_CLK_WCO_CONFIG_LPM_ENABLE;
 303:.\Generated_Source\PSoC4/CyLFClk.c ****                 CySysClkLfclkPosedgeRestore();
 304:.\Generated_Source\PSoC4/CyLFClk.c ****                 CyExitCriticalSection(interruptState);
 305:.\Generated_Source\PSoC4/CyLFClk.c ****             }
 306:.\Generated_Source\PSoC4/CyLFClk.c ****             else /* Safe to disable - shortened pulse does not impact peripheral */
 307:.\Generated_Source\PSoC4/CyLFClk.c ****             {
 308:.\Generated_Source\PSoC4/CyLFClk.c ****                 CY_SYS_CLK_WCO_CONFIG_REG &= (uint32) ~CY_SYS_CLK_WCO_CONFIG_LPM_ENABLE;
 309:.\Generated_Source\PSoC4/CyLFClk.c ****             }
 310:.\Generated_Source\PSoC4/CyLFClk.c ****         } /* Otherwise do nothing. WCO configuration cannot be changed. */
 311:.\Generated_Source\PSoC4/CyLFClk.c ****     }
 312:.\Generated_Source\PSoC4/CyLFClk.c **** 
 313:.\Generated_Source\PSoC4/CyLFClk.c **** 
 314:.\Generated_Source\PSoC4/CyLFClk.c ****     /*******************************************************************************
 315:.\Generated_Source\PSoC4/CyLFClk.c ****     * Function Name: CySysClkWcoEnabled
 316:.\Generated_Source\PSoC4/CyLFClk.c ****     ********************************************************************************
 317:.\Generated_Source\PSoC4/CyLFClk.c ****     *
 318:.\Generated_Source\PSoC4/CyLFClk.c ****     * Summary:
 319:.\Generated_Source\PSoC4/CyLFClk.c ****     *  Reports the WCO enable state.
 320:.\Generated_Source\PSoC4/CyLFClk.c ****     *
 321:.\Generated_Source\PSoC4/CyLFClk.c ****     * Parameters:
 322:.\Generated_Source\PSoC4/CyLFClk.c ****     *  None.
 323:.\Generated_Source\PSoC4/CyLFClk.c ****     *
 324:.\Generated_Source\PSoC4/CyLFClk.c ****     * Return:
 325:.\Generated_Source\PSoC4/CyLFClk.c ****     *  1 if WCO is enabled, and 0 if WCO is disabled.
 326:.\Generated_Source\PSoC4/CyLFClk.c ****     *
 327:.\Generated_Source\PSoC4/CyLFClk.c ****     *******************************************************************************/
 328:.\Generated_Source\PSoC4/CyLFClk.c ****     uint32 CySysClkWcoEnabled(void)
 329:.\Generated_Source\PSoC4/CyLFClk.c ****     {
 330:.\Generated_Source\PSoC4/CyLFClk.c ****         return ((0u != (CY_SYS_CLK_WCO_CONFIG_REG & (uint32)(CY_SYS_CLK_WCO_CONFIG_LPM_ENABLE))) ?
 331:.\Generated_Source\PSoC4/CyLFClk.c ****                 (uint32) 1u :
 332:.\Generated_Source\PSoC4/CyLFClk.c ****                 (uint32) 0u);
 333:.\Generated_Source\PSoC4/CyLFClk.c ****     }
 334:.\Generated_Source\PSoC4/CyLFClk.c **** 
 335:.\Generated_Source\PSoC4/CyLFClk.c **** 
 336:.\Generated_Source\PSoC4/CyLFClk.c ****     /*******************************************************************************
 337:.\Generated_Source\PSoC4/CyLFClk.c ****     * Function Name: CySysClkWcoSetPowerMode
 338:.\Generated_Source\PSoC4/CyLFClk.c ****     ********************************************************************************
 339:.\Generated_Source\PSoC4/CyLFClk.c ****     *
 340:.\Generated_Source\PSoC4/CyLFClk.c ****     * Summary:
 341:.\Generated_Source\PSoC4/CyLFClk.c ****     *  Sets the power mode for the 32 KHz WCO.
 342:.\Generated_Source\PSoC4/CyLFClk.c ****     *
 343:.\Generated_Source\PSoC4/CyLFClk.c ****     * Parameters:
 344:.\Generated_Source\PSoC4/CyLFClk.c ****     *  uint32 mode:
 345:.\Generated_Source\PSoC4/CyLFClk.c ****     *   CY_SYS_CLK_WCO_HPM  - The High Power mode
ARM GAS  C:\Users\Nick\AppData\Local\Temp\ccPDwdCo.s 			page 8


 346:.\Generated_Source\PSoC4/CyLFClk.c ****     *   CY_SYS_CLK_WCO_LPM  - The Low Power mode(not applicable for
 347:.\Generated_Source\PSoC4/CyLFClk.c ****     *                         PSoC 4100M / PSoC 4200M devices)
 348:.\Generated_Source\PSoC4/CyLFClk.c ****     *
 349:.\Generated_Source\PSoC4/CyLFClk.c ****     * Return:
 350:.\Generated_Source\PSoC4/CyLFClk.c ****     *  A previous power mode. The same as the parameters.
 351:.\Generated_Source\PSoC4/CyLFClk.c ****     *
 352:.\Generated_Source\PSoC4/CyLFClk.c ****     * Note:
 353:.\Generated_Source\PSoC4/CyLFClk.c ****     *  The WCO Low power mode is not applicable for the PSoC 4100M/PSoC 4200M
 354:.\Generated_Source\PSoC4/CyLFClk.c ****     *  devices.
 355:.\Generated_Source\PSoC4/CyLFClk.c ****     *
 356:.\Generated_Source\PSoC4/CyLFClk.c ****     *******************************************************************************/
 357:.\Generated_Source\PSoC4/CyLFClk.c ****     uint32 CySysClkWcoSetPowerMode(uint32 mode)
 358:.\Generated_Source\PSoC4/CyLFClk.c ****     {
 359:.\Generated_Source\PSoC4/CyLFClk.c ****         uint32 status;
 360:.\Generated_Source\PSoC4/CyLFClk.c **** 
 361:.\Generated_Source\PSoC4/CyLFClk.c ****         status = CY_SYS_CLK_WCO_CONFIG_REG & CY_SYS_CLK_WCO_CONFIG_LPM_EN;
 362:.\Generated_Source\PSoC4/CyLFClk.c **** 
 363:.\Generated_Source\PSoC4/CyLFClk.c ****         switch(mode)
 364:.\Generated_Source\PSoC4/CyLFClk.c ****         {
 365:.\Generated_Source\PSoC4/CyLFClk.c ****         case CY_SYS_CLK_WCO_HPM:
 366:.\Generated_Source\PSoC4/CyLFClk.c ****                 CySysClkWcoSetHighPowerMode();
 367:.\Generated_Source\PSoC4/CyLFClk.c ****             break;
 368:.\Generated_Source\PSoC4/CyLFClk.c **** 
 369:.\Generated_Source\PSoC4/CyLFClk.c ****         #if(!CY_PSOC4_4100M && !CY_PSOC4_4200M)
 370:.\Generated_Source\PSoC4/CyLFClk.c ****             case CY_SYS_CLK_WCO_LPM:
 371:.\Generated_Source\PSoC4/CyLFClk.c ****                     CySysClkWcoSetLowPowerMode();
 372:.\Generated_Source\PSoC4/CyLFClk.c ****                 break;
 373:.\Generated_Source\PSoC4/CyLFClk.c ****         #endif /* (!CY_PSOC4_4100M && !CY_PSOC4_4200M) */
 374:.\Generated_Source\PSoC4/CyLFClk.c **** 
 375:.\Generated_Source\PSoC4/CyLFClk.c ****         default:
 376:.\Generated_Source\PSoC4/CyLFClk.c ****             CYASSERT(0u != 0u);
 377:.\Generated_Source\PSoC4/CyLFClk.c ****             break;
 378:.\Generated_Source\PSoC4/CyLFClk.c ****         }
 379:.\Generated_Source\PSoC4/CyLFClk.c **** 
 380:.\Generated_Source\PSoC4/CyLFClk.c ****         return (status);
 381:.\Generated_Source\PSoC4/CyLFClk.c ****     }
 382:.\Generated_Source\PSoC4/CyLFClk.c **** 
 383:.\Generated_Source\PSoC4/CyLFClk.c **** #endif  /* (CY_IP_WCO) */
 384:.\Generated_Source\PSoC4/CyLFClk.c **** 
 385:.\Generated_Source\PSoC4/CyLFClk.c **** 
 386:.\Generated_Source\PSoC4/CyLFClk.c **** #if(CY_IP_SRSSV2)
 387:.\Generated_Source\PSoC4/CyLFClk.c **** 
 388:.\Generated_Source\PSoC4/CyLFClk.c **** 
 389:.\Generated_Source\PSoC4/CyLFClk.c ****     /*******************************************************************************
 390:.\Generated_Source\PSoC4/CyLFClk.c ****     * Function Name: CySysWdtLock
 391:.\Generated_Source\PSoC4/CyLFClk.c ****     ********************************************************************************
 392:.\Generated_Source\PSoC4/CyLFClk.c ****     *
 393:.\Generated_Source\PSoC4/CyLFClk.c ****     * Summary:
 394:.\Generated_Source\PSoC4/CyLFClk.c ****     *  Locks out configuration changes to the Watchdog timer registers and ILO
 395:.\Generated_Source\PSoC4/CyLFClk.c ****     *  configuration register.
 396:.\Generated_Source\PSoC4/CyLFClk.c ****     *
 397:.\Generated_Source\PSoC4/CyLFClk.c ****     * Parameters:
 398:.\Generated_Source\PSoC4/CyLFClk.c ****     *  None.
 399:.\Generated_Source\PSoC4/CyLFClk.c ****     *
 400:.\Generated_Source\PSoC4/CyLFClk.c ****     * Return:
 401:.\Generated_Source\PSoC4/CyLFClk.c ****     *  None.
 402:.\Generated_Source\PSoC4/CyLFClk.c ****     *
ARM GAS  C:\Users\Nick\AppData\Local\Temp\ccPDwdCo.s 			page 9


 403:.\Generated_Source\PSoC4/CyLFClk.c ****     * Side effects:
 404:.\Generated_Source\PSoC4/CyLFClk.c ****     *  After this function is called, ILO clock can't be disabled until
 405:.\Generated_Source\PSoC4/CyLFClk.c ****     *  CySysWdtUnlock() is called.
 406:.\Generated_Source\PSoC4/CyLFClk.c ****     *
 407:.\Generated_Source\PSoC4/CyLFClk.c ****     *******************************************************************************/
 408:.\Generated_Source\PSoC4/CyLFClk.c ****     void CySysWdtLock(void)
 409:.\Generated_Source\PSoC4/CyLFClk.c ****     {
 410:.\Generated_Source\PSoC4/CyLFClk.c ****         uint8 interruptState;
 411:.\Generated_Source\PSoC4/CyLFClk.c ****         interruptState = CyEnterCriticalSection();
 412:.\Generated_Source\PSoC4/CyLFClk.c **** 
 413:.\Generated_Source\PSoC4/CyLFClk.c ****         CY_SYS_CLK_SELECT_REG = (CY_SYS_CLK_SELECT_REG & (uint32)(~CY_SYS_WDT_CLK_LOCK_BITS_MASK)) 
 414:.\Generated_Source\PSoC4/CyLFClk.c ****                  CY_SYS_WDT_CLK_LOCK_BITS_MASK;
 415:.\Generated_Source\PSoC4/CyLFClk.c **** 
 416:.\Generated_Source\PSoC4/CyLFClk.c ****         CyExitCriticalSection(interruptState);
 417:.\Generated_Source\PSoC4/CyLFClk.c ****     }
 418:.\Generated_Source\PSoC4/CyLFClk.c **** 
 419:.\Generated_Source\PSoC4/CyLFClk.c **** 
 420:.\Generated_Source\PSoC4/CyLFClk.c ****     /*******************************************************************************
 421:.\Generated_Source\PSoC4/CyLFClk.c ****     * Function Name: CySysWdtLocked
 422:.\Generated_Source\PSoC4/CyLFClk.c ****     ********************************************************************************
 423:.\Generated_Source\PSoC4/CyLFClk.c ****     *
 424:.\Generated_Source\PSoC4/CyLFClk.c ****     * Summary:
 425:.\Generated_Source\PSoC4/CyLFClk.c ****     *  Reports the WDT lock state.
 426:.\Generated_Source\PSoC4/CyLFClk.c ****     *
 427:.\Generated_Source\PSoC4/CyLFClk.c ****     * Parameters:
 428:.\Generated_Source\PSoC4/CyLFClk.c ****     *  None
 429:.\Generated_Source\PSoC4/CyLFClk.c ****     *
 430:.\Generated_Source\PSoC4/CyLFClk.c ****     * Return:
 431:.\Generated_Source\PSoC4/CyLFClk.c ****     *  1 - WDT is locked, and 0 - WDT is unlocked.
 432:.\Generated_Source\PSoC4/CyLFClk.c ****     *
 433:.\Generated_Source\PSoC4/CyLFClk.c ****     *******************************************************************************/
 434:.\Generated_Source\PSoC4/CyLFClk.c ****     static uint32 CySysWdtLocked(void)
 435:.\Generated_Source\PSoC4/CyLFClk.c ****     {
  55              		.loc 1 435 0
  56              		.cfi_startproc
 436:.\Generated_Source\PSoC4/CyLFClk.c ****         /* Prohibits writing to WDT registers and ILO/WCO registers when not equal 0 */
 437:.\Generated_Source\PSoC4/CyLFClk.c ****         return ((0u != (CY_SYS_CLK_SELECT_REG & (uint32)(CY_SYS_WDT_CLK_LOCK_BITS_MASK))) ? (uint32
  57              		.loc 1 437 0
  58 0000 034B     		ldr	r3, .L8
  59 0002 1868     		ldr	r0, [r3]
  60 0004 C023     		mov	r3, #192
  61 0006 1B02     		lsl	r3, r3, #8
  62 0008 1840     		and	r0, r3
  63 000a 00D0     		beq	.L7
  64 000c 0120     		mov	r0, #1
  65              	.L7:
 438:.\Generated_Source\PSoC4/CyLFClk.c ****     }
  66              		.loc 1 438 0 discriminator 4
  67              		@ sp needed
  68 000e 7047     		bx	lr
  69              	.L9:
  70              		.align	2
  71              	.L8:
  72 0010 00010B40 		.word	1074462976
  73              		.cfi_endproc
  74              	.LFE4:
  75              		.size	CySysWdtLocked, .-CySysWdtLocked
ARM GAS  C:\Users\Nick\AppData\Local\Temp\ccPDwdCo.s 			page 10


  76              		.section	.text.CySysClkIloStart,"ax",%progbits
  77              		.align	2
  78              		.global	CySysClkIloStart
  79              		.code	16
  80              		.thumb_func
  81              		.type	CySysClkIloStart, %function
  82              	CySysClkIloStart:
  83              	.LFB0:
  66:.\Generated_Source\PSoC4/CyLFClk.c ****     CY_SYS_CLK_ILO_CONFIG_REG |= CY_SYS_CLK_ILO_CONFIG_ENABLE;
  84              		.loc 1 66 0
  85              		.cfi_startproc
  67:.\Generated_Source\PSoC4/CyLFClk.c **** }
  86              		.loc 1 67 0
  87 0000 034A     		ldr	r2, .L11
  88 0002 1368     		ldr	r3, [r2]
  89 0004 8021     		mov	r1, #128
  90 0006 0906     		lsl	r1, r1, #24
  91 0008 0B43     		orr	r3, r1
  92 000a 1360     		str	r3, [r2]
  68:.\Generated_Source\PSoC4/CyLFClk.c **** 
  93              		.loc 1 68 0
  94              		@ sp needed
  95 000c 7047     		bx	lr
  96              	.L12:
  97 000e C046     		.align	2
  98              	.L11:
  99 0010 04010B40 		.word	1074462980
 100              		.cfi_endproc
 101              	.LFE0:
 102              		.size	CySysClkIloStart, .-CySysClkIloStart
 103              		.section	.text.CySysWdtLock,"ax",%progbits
 104              		.align	2
 105              		.global	CySysWdtLock
 106              		.code	16
 107              		.thumb_func
 108              		.type	CySysWdtLock, %function
 109              	CySysWdtLock:
 110              	.LFB3:
 409:.\Generated_Source\PSoC4/CyLFClk.c ****         uint8 interruptState;
 111              		.loc 1 409 0
 112              		.cfi_startproc
 113 0000 08B5     		push	{r3, lr}
 114              		.cfi_def_cfa_offset 8
 115              		.cfi_offset 3, -8
 116              		.cfi_offset 14, -4
 411:.\Generated_Source\PSoC4/CyLFClk.c **** 
 117              		.loc 1 411 0
 118 0002 FFF7FEFF 		bl	CyEnterCriticalSection
 119              	.LVL0:
 413:.\Generated_Source\PSoC4/CyLFClk.c ****                  CY_SYS_WDT_CLK_LOCK_BITS_MASK;
 120              		.loc 1 413 0
 121 0006 044A     		ldr	r2, .L14
 122 0008 1368     		ldr	r3, [r2]
 123 000a C021     		mov	r1, #192
 124 000c 0902     		lsl	r1, r1, #8
 125 000e 0B43     		orr	r3, r1
 126 0010 1360     		str	r3, [r2]
ARM GAS  C:\Users\Nick\AppData\Local\Temp\ccPDwdCo.s 			page 11


 416:.\Generated_Source\PSoC4/CyLFClk.c ****     }
 127              		.loc 1 416 0
 128 0012 FFF7FEFF 		bl	CyExitCriticalSection
 129              	.LVL1:
 417:.\Generated_Source\PSoC4/CyLFClk.c **** 
 130              		.loc 1 417 0
 131              		@ sp needed
 132 0016 08BD     		pop	{r3, pc}
 133              	.L15:
 134              		.align	2
 135              	.L14:
 136 0018 00010B40 		.word	1074462976
 137              		.cfi_endproc
 138              	.LFE3:
 139              		.size	CySysWdtLock, .-CySysWdtLock
 140              		.section	.text.CySysWdtUnlock,"ax",%progbits
 141              		.align	2
 142              		.global	CySysWdtUnlock
 143              		.code	16
 144              		.thumb_func
 145              		.type	CySysWdtUnlock, %function
 146              	CySysWdtUnlock:
 147              	.LFB5:
 439:.\Generated_Source\PSoC4/CyLFClk.c **** 
 440:.\Generated_Source\PSoC4/CyLFClk.c **** 
 441:.\Generated_Source\PSoC4/CyLFClk.c ****     /*******************************************************************************
 442:.\Generated_Source\PSoC4/CyLFClk.c ****     * Function Name: CySysWdtUnlock
 443:.\Generated_Source\PSoC4/CyLFClk.c ****     ********************************************************************************
 444:.\Generated_Source\PSoC4/CyLFClk.c ****     *
 445:.\Generated_Source\PSoC4/CyLFClk.c ****     * Summary:
 446:.\Generated_Source\PSoC4/CyLFClk.c ****     *  Unlocks the Watchdog Timer configuration register.
 447:.\Generated_Source\PSoC4/CyLFClk.c ****     *
 448:.\Generated_Source\PSoC4/CyLFClk.c ****     * Parameters:
 449:.\Generated_Source\PSoC4/CyLFClk.c ****     *  None.
 450:.\Generated_Source\PSoC4/CyLFClk.c ****     *
 451:.\Generated_Source\PSoC4/CyLFClk.c ****     * Return:
 452:.\Generated_Source\PSoC4/CyLFClk.c ****     *  None.
 453:.\Generated_Source\PSoC4/CyLFClk.c ****     *
 454:.\Generated_Source\PSoC4/CyLFClk.c ****     *******************************************************************************/
 455:.\Generated_Source\PSoC4/CyLFClk.c ****     void CySysWdtUnlock(void)
 456:.\Generated_Source\PSoC4/CyLFClk.c ****     {
 148              		.loc 1 456 0
 149              		.cfi_startproc
 150 0000 10B5     		push	{r4, lr}
 151              		.cfi_def_cfa_offset 8
 152              		.cfi_offset 4, -8
 153              		.cfi_offset 14, -4
 457:.\Generated_Source\PSoC4/CyLFClk.c ****         uint8 interruptState;
 458:.\Generated_Source\PSoC4/CyLFClk.c ****         interruptState = CyEnterCriticalSection();
 154              		.loc 1 458 0
 155 0002 FFF7FEFF 		bl	CyEnterCriticalSection
 156              	.LVL2:
 459:.\Generated_Source\PSoC4/CyLFClk.c **** 
 460:.\Generated_Source\PSoC4/CyLFClk.c ****         /* Removing WDT lock requires two writes */
 461:.\Generated_Source\PSoC4/CyLFClk.c ****         CY_SYS_CLK_SELECT_REG = ((CY_SYS_CLK_SELECT_REG & (uint32)(~CY_SYS_WDT_CLK_LOCK_BITS_MASK))
 157              		.loc 1 461 0
 158 0006 0849     		ldr	r1, .L17
ARM GAS  C:\Users\Nick\AppData\Local\Temp\ccPDwdCo.s 			page 12


 159 0008 0A68     		ldr	r2, [r1]
 160 000a 084B     		ldr	r3, .L17+4
 161 000c 1A40     		and	r2, r3
 162 000e 8024     		mov	r4, #128
 163 0010 E401     		lsl	r4, r4, #7
 164 0012 2243     		orr	r2, r4
 165 0014 0A60     		str	r2, [r1]
 462:.\Generated_Source\PSoC4/CyLFClk.c ****                 CY_SYS_WDT_CLK_LOCK_BIT0);
 463:.\Generated_Source\PSoC4/CyLFClk.c **** 
 464:.\Generated_Source\PSoC4/CyLFClk.c ****         CY_SYS_CLK_SELECT_REG = ((CY_SYS_CLK_SELECT_REG & (uint32)(~CY_SYS_WDT_CLK_LOCK_BITS_MASK))
 166              		.loc 1 464 0
 167 0016 0A68     		ldr	r2, [r1]
 168 0018 1340     		and	r3, r2
 169 001a 8022     		mov	r2, #128
 170 001c 1202     		lsl	r2, r2, #8
 171 001e 1343     		orr	r3, r2
 172 0020 0B60     		str	r3, [r1]
 465:.\Generated_Source\PSoC4/CyLFClk.c ****                 CY_SYS_WDT_CLK_LOCK_BIT1);
 466:.\Generated_Source\PSoC4/CyLFClk.c **** 
 467:.\Generated_Source\PSoC4/CyLFClk.c ****         CyExitCriticalSection(interruptState);
 173              		.loc 1 467 0
 174 0022 FFF7FEFF 		bl	CyExitCriticalSection
 175              	.LVL3:
 468:.\Generated_Source\PSoC4/CyLFClk.c ****     }
 176              		.loc 1 468 0
 177              		@ sp needed
 178 0026 10BD     		pop	{r4, pc}
 179              	.L18:
 180              		.align	2
 181              	.L17:
 182 0028 00010B40 		.word	1074462976
 183 002c FF3FFFFF 		.word	-49153
 184              		.cfi_endproc
 185              	.LFE5:
 186              		.size	CySysWdtUnlock, .-CySysWdtUnlock
 187              		.section	.text.CySysWdtGetEnabledStatus,"ax",%progbits
 188              		.align	2
 189              		.global	CySysWdtGetEnabledStatus
 190              		.code	16
 191              		.thumb_func
 192              		.type	CySysWdtGetEnabledStatus, %function
 193              	CySysWdtGetEnabledStatus:
 194              	.LFB6:
 469:.\Generated_Source\PSoC4/CyLFClk.c **** 
 470:.\Generated_Source\PSoC4/CyLFClk.c **** 
 471:.\Generated_Source\PSoC4/CyLFClk.c ****     /*******************************************************************************
 472:.\Generated_Source\PSoC4/CyLFClk.c ****     * Function Name: CySysWdtGetEnabledStatus
 473:.\Generated_Source\PSoC4/CyLFClk.c ****     ********************************************************************************
 474:.\Generated_Source\PSoC4/CyLFClk.c ****     *
 475:.\Generated_Source\PSoC4/CyLFClk.c ****     * Summary:
 476:.\Generated_Source\PSoC4/CyLFClk.c ****     *  Reads the enabled status of one of the three WDT counters.
 477:.\Generated_Source\PSoC4/CyLFClk.c ****     *
 478:.\Generated_Source\PSoC4/CyLFClk.c ****     * Parameters:
 479:.\Generated_Source\PSoC4/CyLFClk.c ****     *  counterNum: Valid range [0-2].  the number of the WDT counter.
 480:.\Generated_Source\PSoC4/CyLFClk.c ****     *
 481:.\Generated_Source\PSoC4/CyLFClk.c ****     * Return:
 482:.\Generated_Source\PSoC4/CyLFClk.c ****     *  The status of the WDT counter:
ARM GAS  C:\Users\Nick\AppData\Local\Temp\ccPDwdCo.s 			page 13


 483:.\Generated_Source\PSoC4/CyLFClk.c ****     *   0 - The counter is disabled.
 484:.\Generated_Source\PSoC4/CyLFClk.c ****     *   1 - The counter is enabled.
 485:.\Generated_Source\PSoC4/CyLFClk.c ****     *
 486:.\Generated_Source\PSoC4/CyLFClk.c ****     * Side Effects:
 487:.\Generated_Source\PSoC4/CyLFClk.c ****     *  This function returns an actual WDT counter status from the status register. It may
 488:.\Generated_Source\PSoC4/CyLFClk.c ****     *  take up to 3 LFCLK cycles for the WDT status register to contain actual data
 489:.\Generated_Source\PSoC4/CyLFClk.c ****     *  after the WDT counter is enabled.
 490:.\Generated_Source\PSoC4/CyLFClk.c ****     *
 491:.\Generated_Source\PSoC4/CyLFClk.c ****     *
 492:.\Generated_Source\PSoC4/CyLFClk.c ****     *******************************************************************************/
 493:.\Generated_Source\PSoC4/CyLFClk.c ****     uint32 CySysWdtGetEnabledStatus(uint32 counterNum)
 494:.\Generated_Source\PSoC4/CyLFClk.c ****     {
 195              		.loc 1 494 0
 196              		.cfi_startproc
 197              	.LVL4:
 198 0000 10B5     		push	{r4, lr}
 199              		.cfi_def_cfa_offset 8
 200              		.cfi_offset 4, -8
 201              		.cfi_offset 14, -4
 202 0002 041E     		sub	r4, r0, #0
 495:.\Generated_Source\PSoC4/CyLFClk.c ****         CYASSERT(counterNum < CY_SYS_WDT_COUNTERS_MAX);
 203              		.loc 1 495 0
 204 0004 022C     		cmp	r4, #2
 205 0006 02D9     		bls	.L20
 206              		.loc 1 495 0 is_stmt 0 discriminator 1
 207 0008 0020     		mov	r0, #0
 208              	.LVL5:
 209 000a FFF7FEFF 		bl	CyHalt
 210              	.LVL6:
 211              	.L20:
 496:.\Generated_Source\PSoC4/CyLFClk.c ****         return ((CY_SYS_WDT_CONTROL_REG >> ((CY_SYS_WDT_CNT_SHIFT * counterNum) + CY_SYS_WDT_CNT_ST
 212              		.loc 1 496 0 is_stmt 1
 213 000e 044B     		ldr	r3, .L21
 214 0010 1868     		ldr	r0, [r3]
 215 0012 E400     		lsl	r4, r4, #3
 216              	.LVL7:
 217 0014 0134     		add	r4, r4, #1
 218 0016 E040     		lsr	r0, r0, r4
 219 0018 041C     		mov	r4, r0
 220 001a 0120     		mov	r0, #1
 221 001c 2040     		and	r0, r4
 497:.\Generated_Source\PSoC4/CyLFClk.c ****     }
 222              		.loc 1 497 0
 223              		@ sp needed
 224 001e 10BD     		pop	{r4, pc}
 225              	.L22:
 226              		.align	2
 227              	.L21:
 228 0020 10020B40 		.word	1074463248
 229              		.cfi_endproc
 230              	.LFE6:
 231              		.size	CySysWdtGetEnabledStatus, .-CySysWdtGetEnabledStatus
 232              		.section	.text.CySysWdtSetMode,"ax",%progbits
 233              		.align	2
 234              		.global	CySysWdtSetMode
 235              		.code	16
 236              		.thumb_func
ARM GAS  C:\Users\Nick\AppData\Local\Temp\ccPDwdCo.s 			page 14


 237              		.type	CySysWdtSetMode, %function
 238              	CySysWdtSetMode:
 239              	.LFB7:
 498:.\Generated_Source\PSoC4/CyLFClk.c **** 
 499:.\Generated_Source\PSoC4/CyLFClk.c **** 
 500:.\Generated_Source\PSoC4/CyLFClk.c ****     /*******************************************************************************
 501:.\Generated_Source\PSoC4/CyLFClk.c ****     * Function Name: CySysWdtSetMode
 502:.\Generated_Source\PSoC4/CyLFClk.c ****     ********************************************************************************
 503:.\Generated_Source\PSoC4/CyLFClk.c ****     *
 504:.\Generated_Source\PSoC4/CyLFClk.c ****     * Summary:
 505:.\Generated_Source\PSoC4/CyLFClk.c ****     *   Writes the mode of one of the three WDT counters.
 506:.\Generated_Source\PSoC4/CyLFClk.c ****     *
 507:.\Generated_Source\PSoC4/CyLFClk.c ****     * Parameters:
 508:.\Generated_Source\PSoC4/CyLFClk.c ****     *   counterNum: Valid range [0-2].  The number of the WDT counter.
 509:.\Generated_Source\PSoC4/CyLFClk.c ****     *   mode:       Mode of operation for the counter.
 510:.\Generated_Source\PSoC4/CyLFClk.c ****     *       Define                     Mode
 511:.\Generated_Source\PSoC4/CyLFClk.c ****     *        CY_SYS_WDT_MODE_NONE       Free running
 512:.\Generated_Source\PSoC4/CyLFClk.c ****     *        CY_SYS_WDT_MODE_INT        The interrupt generated on match for counter 0
 513:.\Generated_Source\PSoC4/CyLFClk.c ****     *                                   and 1, and on bit toggle for counter 2.
 514:.\Generated_Source\PSoC4/CyLFClk.c ****     *        CY_SYS_WDT_MODE_RESET      Reset on match (valid for counter 0 and 1
 515:.\Generated_Source\PSoC4/CyLFClk.c ****     *                                   only)
 516:.\Generated_Source\PSoC4/CyLFClk.c ****     *        CY_SYS_WDT_MODE_INT_RESET  Generate an interrupt.  Generate a reset on
 517:.\Generated_Source\PSoC4/CyLFClk.c ****     *                                   the 3rd non-handled interrupt.
 518:.\Generated_Source\PSoC4/CyLFClk.c ****     *                                   (valid for counter 0 and 1 only)
 519:.\Generated_Source\PSoC4/CyLFClk.c ****     * Return:
 520:.\Generated_Source\PSoC4/CyLFClk.c ****     *   None.
 521:.\Generated_Source\PSoC4/CyLFClk.c ****     *
 522:.\Generated_Source\PSoC4/CyLFClk.c ****     * Side Effects:
 523:.\Generated_Source\PSoC4/CyLFClk.c ****     *   WDT counter counterNum should be disabled to set a mode. Otherwise, this
 524:.\Generated_Source\PSoC4/CyLFClk.c ****     *   function call has no effect. If the specified counter is enabled,
 525:.\Generated_Source\PSoC4/CyLFClk.c ****     *   call the CySysWdtDisable() function with the corresponding parameter to
 526:.\Generated_Source\PSoC4/CyLFClk.c ****     *   disable the specified counter and wait for it to stop.
 527:.\Generated_Source\PSoC4/CyLFClk.c ****     *
 528:.\Generated_Source\PSoC4/CyLFClk.c ****     *******************************************************************************/
 529:.\Generated_Source\PSoC4/CyLFClk.c ****     void CySysWdtSetMode(uint32 counterNum, uint32 mode)
 530:.\Generated_Source\PSoC4/CyLFClk.c ****     {
 240              		.loc 1 530 0
 241              		.cfi_startproc
 242              	.LVL8:
 243 0000 38B5     		push	{r3, r4, r5, lr}
 244              		.cfi_def_cfa_offset 16
 245              		.cfi_offset 3, -16
 246              		.cfi_offset 4, -12
 247              		.cfi_offset 5, -8
 248              		.cfi_offset 14, -4
 249 0002 041C     		mov	r4, r0
 250 0004 0D1C     		mov	r5, r1
 531:.\Generated_Source\PSoC4/CyLFClk.c ****         uint32 configRegValue;
 532:.\Generated_Source\PSoC4/CyLFClk.c **** 
 533:.\Generated_Source\PSoC4/CyLFClk.c ****         CYASSERT(counterNum < CY_SYS_WDT_COUNTERS_MAX);
 251              		.loc 1 533 0
 252 0006 0228     		cmp	r0, #2
 253 0008 02D9     		bls	.L24
 254              		.loc 1 533 0 is_stmt 0 discriminator 1
 255 000a 0020     		mov	r0, #0
 256              	.LVL9:
 257 000c FFF7FEFF 		bl	CyHalt
ARM GAS  C:\Users\Nick\AppData\Local\Temp\ccPDwdCo.s 			page 15


 258              	.LVL10:
 259              	.L24:
 534:.\Generated_Source\PSoC4/CyLFClk.c **** 
 535:.\Generated_Source\PSoC4/CyLFClk.c ****         if(0u == CySysWdtGetEnabledStatus(counterNum))
 260              		.loc 1 535 0 is_stmt 1
 261 0010 201C     		mov	r0, r4
 262 0012 FFF7FEFF 		bl	CySysWdtGetEnabledStatus
 263              	.LVL11:
 264 0016 0028     		cmp	r0, #0
 265 0018 0BD1     		bne	.L23
 536:.\Generated_Source\PSoC4/CyLFClk.c ****         {
 537:.\Generated_Source\PSoC4/CyLFClk.c ****             configRegValue = CY_SYS_WDT_CONFIG_REG &
 266              		.loc 1 537 0
 267 001a 064A     		ldr	r2, .L26
 268 001c 1368     		ldr	r3, [r2]
 538:.\Generated_Source\PSoC4/CyLFClk.c ****                                 (uint32)~((uint32)(CY_SYS_WDT_MODE_MASK << (counterNum * CY_SYS_WDT
 269              		.loc 1 538 0
 270 001e E400     		lsl	r4, r4, #3
 271              	.LVL12:
 272 0020 0321     		mov	r1, #3
 273 0022 081C     		mov	r0, r1
 274 0024 A040     		lsl	r0, r0, r4
 537:.\Generated_Source\PSoC4/CyLFClk.c ****                                 (uint32)~((uint32)(CY_SYS_WDT_MODE_MASK << (counterNum * CY_SYS_WDT
 275              		.loc 1 537 0
 276 0026 8343     		bic	r3, r0
 277              	.LVL13:
 539:.\Generated_Source\PSoC4/CyLFClk.c ****             configRegValue |= (uint32)((mode & CY_SYS_WDT_MODE_MASK) << (counterNum * CY_SYS_WDT_CN
 278              		.loc 1 539 0
 279 0028 0D40     		and	r5, r1
 280              	.LVL14:
 281 002a A540     		lsl	r5, r5, r4
 282 002c 2C1C     		mov	r4, r5
 283 002e 1C43     		orr	r4, r3
 284              	.LVL15:
 540:.\Generated_Source\PSoC4/CyLFClk.c ****             CY_SYS_WDT_CONFIG_REG = configRegValue;
 285              		.loc 1 540 0
 286 0030 1460     		str	r4, [r2]
 287              	.LVL16:
 288              	.L23:
 541:.\Generated_Source\PSoC4/CyLFClk.c ****         }
 542:.\Generated_Source\PSoC4/CyLFClk.c ****     }
 289              		.loc 1 542 0
 290              		@ sp needed
 291 0032 38BD     		pop	{r3, r4, r5, pc}
 292              	.L27:
 293              		.align	2
 294              	.L26:
 295 0034 0C020B40 		.word	1074463244
 296              		.cfi_endproc
 297              	.LFE7:
 298              		.size	CySysWdtSetMode, .-CySysWdtSetMode
 299              		.section	.text.CySysClkLfclkPosedgeRestore,"ax",%progbits
 300              		.align	2
 301              		.code	16
 302              		.thumb_func
 303              		.type	CySysClkLfclkPosedgeRestore, %function
 304              	CySysClkLfclkPosedgeRestore:
ARM GAS  C:\Users\Nick\AppData\Local\Temp\ccPDwdCo.s 			page 16


 305              	.LFB32:
 543:.\Generated_Source\PSoC4/CyLFClk.c **** 
 544:.\Generated_Source\PSoC4/CyLFClk.c **** 
 545:.\Generated_Source\PSoC4/CyLFClk.c ****     /*******************************************************************************
 546:.\Generated_Source\PSoC4/CyLFClk.c ****     * Function Name: CySysWdtGetMode
 547:.\Generated_Source\PSoC4/CyLFClk.c ****     ********************************************************************************
 548:.\Generated_Source\PSoC4/CyLFClk.c ****     *
 549:.\Generated_Source\PSoC4/CyLFClk.c ****     * Summary:
 550:.\Generated_Source\PSoC4/CyLFClk.c ****     *  Reads the mode of one of the three WDT counters.
 551:.\Generated_Source\PSoC4/CyLFClk.c ****     *
 552:.\Generated_Source\PSoC4/CyLFClk.c ****     * Parameters:
 553:.\Generated_Source\PSoC4/CyLFClk.c ****     *  counterNum: Valid range [0-2].  The number of the WDT counter.
 554:.\Generated_Source\PSoC4/CyLFClk.c ****     *
 555:.\Generated_Source\PSoC4/CyLFClk.c ****     * Return:
 556:.\Generated_Source\PSoC4/CyLFClk.c ****     *  The mode of the counter.  The same enumerated values as the mode parameter used in
 557:.\Generated_Source\PSoC4/CyLFClk.c ****     *  CySysWdtSetMode().
 558:.\Generated_Source\PSoC4/CyLFClk.c ****     *
 559:.\Generated_Source\PSoC4/CyLFClk.c ****     *******************************************************************************/
 560:.\Generated_Source\PSoC4/CyLFClk.c ****     uint32 CySysWdtGetMode(uint32 counterNum)
 561:.\Generated_Source\PSoC4/CyLFClk.c ****     {
 562:.\Generated_Source\PSoC4/CyLFClk.c ****         return ((CY_SYS_WDT_CONFIG_REG >> (counterNum * CY_SYS_WDT_CNT_SHIFT)) & CY_SYS_WDT_MODE_MA
 563:.\Generated_Source\PSoC4/CyLFClk.c ****     }
 564:.\Generated_Source\PSoC4/CyLFClk.c **** 
 565:.\Generated_Source\PSoC4/CyLFClk.c **** 
 566:.\Generated_Source\PSoC4/CyLFClk.c ****     /*******************************************************************************
 567:.\Generated_Source\PSoC4/CyLFClk.c ****     * Function Name: CySysWdtSetClearOnMatch
 568:.\Generated_Source\PSoC4/CyLFClk.c ****     ********************************************************************************
 569:.\Generated_Source\PSoC4/CyLFClk.c ****     *
 570:.\Generated_Source\PSoC4/CyLFClk.c ****     * Summary:
 571:.\Generated_Source\PSoC4/CyLFClk.c ****     *  Configures the WDT counter "clear on match" setting.  If configured to "clear
 572:.\Generated_Source\PSoC4/CyLFClk.c ****     *  on match", the counter counts from 0 to MatchValue giving it a
 573:.\Generated_Source\PSoC4/CyLFClk.c ****     *  period of (MatchValue + 1).
 574:.\Generated_Source\PSoC4/CyLFClk.c ****     *
 575:.\Generated_Source\PSoC4/CyLFClk.c ****     * Parameters:
 576:.\Generated_Source\PSoC4/CyLFClk.c ****     *  counterNum:
 577:.\Generated_Source\PSoC4/CyLFClk.c ****     *   Valid range [0-1].  The number of the WDT counter.  The match values are not
 578:.\Generated_Source\PSoC4/CyLFClk.c ****     *   supported by counter 2.
 579:.\Generated_Source\PSoC4/CyLFClk.c ****     *
 580:.\Generated_Source\PSoC4/CyLFClk.c ****     * enable:
 581:.\Generated_Source\PSoC4/CyLFClk.c ****     *   0 to disable, 1 to enable
 582:.\Generated_Source\PSoC4/CyLFClk.c ****     *
 583:.\Generated_Source\PSoC4/CyLFClk.c ****     * Return:
 584:.\Generated_Source\PSoC4/CyLFClk.c ****     *   None.
 585:.\Generated_Source\PSoC4/CyLFClk.c ****     *
 586:.\Generated_Source\PSoC4/CyLFClk.c ****     * Side Effects:
 587:.\Generated_Source\PSoC4/CyLFClk.c ****     *   WDT counter counterNum should be disabled. Otherwise this function call
 588:.\Generated_Source\PSoC4/CyLFClk.c ****     *   has no effect. If the specified counter is enabled, call the CySysWdtDisable()
 589:.\Generated_Source\PSoC4/CyLFClk.c ****     *   function with the corresponding parameter to disable the specified counter and
 590:.\Generated_Source\PSoC4/CyLFClk.c ****     *   wait for it to stop. This may take up to three LFCLK cycles.
 591:.\Generated_Source\PSoC4/CyLFClk.c ****     *
 592:.\Generated_Source\PSoC4/CyLFClk.c ****     *******************************************************************************/
 593:.\Generated_Source\PSoC4/CyLFClk.c ****     void CySysWdtSetClearOnMatch(uint32 counterNum, uint32 enable)
 594:.\Generated_Source\PSoC4/CyLFClk.c ****     {
 595:.\Generated_Source\PSoC4/CyLFClk.c ****         uint32 configRegValue;
 596:.\Generated_Source\PSoC4/CyLFClk.c **** 
 597:.\Generated_Source\PSoC4/CyLFClk.c ****         CYASSERT((counterNum == CY_SYS_WDT_COUNTER0) ||
 598:.\Generated_Source\PSoC4/CyLFClk.c ****                  (counterNum == CY_SYS_WDT_COUNTER1));
ARM GAS  C:\Users\Nick\AppData\Local\Temp\ccPDwdCo.s 			page 17


 599:.\Generated_Source\PSoC4/CyLFClk.c **** 
 600:.\Generated_Source\PSoC4/CyLFClk.c ****         if(0u == CySysWdtGetEnabledStatus(counterNum))
 601:.\Generated_Source\PSoC4/CyLFClk.c ****         {
 602:.\Generated_Source\PSoC4/CyLFClk.c ****             configRegValue = CY_SYS_WDT_CONFIG_REG &
 603:.\Generated_Source\PSoC4/CyLFClk.c ****                 (uint32)~((uint32)((uint32)1u << ((counterNum * CY_SYS_WDT_CNT_SHIFT) + CY_SYS_WDT_
 604:.\Generated_Source\PSoC4/CyLFClk.c **** 
 605:.\Generated_Source\PSoC4/CyLFClk.c ****             configRegValue
 606:.\Generated_Source\PSoC4/CyLFClk.c ****                 |= (uint32)(enable << ((counterNum * CY_SYS_WDT_CNT_SHIFT) + CY_SYS_WDT_CNT_MATCH_C
 607:.\Generated_Source\PSoC4/CyLFClk.c **** 
 608:.\Generated_Source\PSoC4/CyLFClk.c ****             CY_SYS_WDT_CONFIG_REG = configRegValue;
 609:.\Generated_Source\PSoC4/CyLFClk.c ****         }
 610:.\Generated_Source\PSoC4/CyLFClk.c ****     }
 611:.\Generated_Source\PSoC4/CyLFClk.c **** 
 612:.\Generated_Source\PSoC4/CyLFClk.c **** 
 613:.\Generated_Source\PSoC4/CyLFClk.c ****     /*******************************************************************************
 614:.\Generated_Source\PSoC4/CyLFClk.c ****     * Function Name: CySysWdtGetClearOnMatch
 615:.\Generated_Source\PSoC4/CyLFClk.c ****     ********************************************************************************
 616:.\Generated_Source\PSoC4/CyLFClk.c ****     *
 617:.\Generated_Source\PSoC4/CyLFClk.c ****     * Summary:
 618:.\Generated_Source\PSoC4/CyLFClk.c ****     *  Reads the "clear on match" setting for the specified counter.
 619:.\Generated_Source\PSoC4/CyLFClk.c ****     *
 620:.\Generated_Source\PSoC4/CyLFClk.c ****     * Parameters:
 621:.\Generated_Source\PSoC4/CyLFClk.c ****     *   counterNum: Valid range [0-1].  The number of the WDT counter.  The match values are
 622:.\Generated_Source\PSoC4/CyLFClk.c ****     *               not supported by counter 2.
 623:.\Generated_Source\PSoC4/CyLFClk.c ****     *
 624:.\Generated_Source\PSoC4/CyLFClk.c ****     * Return:
 625:.\Generated_Source\PSoC4/CyLFClk.c ****     *   The "clear on match" status: 1 if enabled, 0 if disabled
 626:.\Generated_Source\PSoC4/CyLFClk.c ****     *
 627:.\Generated_Source\PSoC4/CyLFClk.c ****     *******************************************************************************/
 628:.\Generated_Source\PSoC4/CyLFClk.c ****     uint32 CySysWdtGetClearOnMatch(uint32 counterNum)
 629:.\Generated_Source\PSoC4/CyLFClk.c ****     {
 630:.\Generated_Source\PSoC4/CyLFClk.c ****         CYASSERT((counterNum == CY_SYS_WDT_COUNTER0) ||
 631:.\Generated_Source\PSoC4/CyLFClk.c ****                  (counterNum == CY_SYS_WDT_COUNTER1));
 632:.\Generated_Source\PSoC4/CyLFClk.c **** 
 633:.\Generated_Source\PSoC4/CyLFClk.c ****         return (uint32)((CY_SYS_WDT_CONFIG_REG >>
 634:.\Generated_Source\PSoC4/CyLFClk.c ****                         ((counterNum * CY_SYS_WDT_CNT_SHIFT) + CY_SYS_WDT_CNT_MATCH_CLR_SHIFT)) & 0
 635:.\Generated_Source\PSoC4/CyLFClk.c ****     }
 636:.\Generated_Source\PSoC4/CyLFClk.c **** 
 637:.\Generated_Source\PSoC4/CyLFClk.c **** 
 638:.\Generated_Source\PSoC4/CyLFClk.c ****     /*******************************************************************************
 639:.\Generated_Source\PSoC4/CyLFClk.c ****     * Function Name: CySysWdtEnable
 640:.\Generated_Source\PSoC4/CyLFClk.c ****     ********************************************************************************
 641:.\Generated_Source\PSoC4/CyLFClk.c ****     *
 642:.\Generated_Source\PSoC4/CyLFClk.c ****     * Summary:
 643:.\Generated_Source\PSoC4/CyLFClk.c ****     *  Enables the specified WDT counters.  All the counters specified in the mask
 644:.\Generated_Source\PSoC4/CyLFClk.c ****     *  are enabled.
 645:.\Generated_Source\PSoC4/CyLFClk.c ****     *
 646:.\Generated_Source\PSoC4/CyLFClk.c ****     * Parameters:
 647:.\Generated_Source\PSoC4/CyLFClk.c ****     *  counterMask: The mask of all counters to enable.
 648:.\Generated_Source\PSoC4/CyLFClk.c ****     *       Define                       Counter
 649:.\Generated_Source\PSoC4/CyLFClk.c ****     *      CY_SYS_WDT_COUNTER0_MASK      0
 650:.\Generated_Source\PSoC4/CyLFClk.c ****     *      CY_SYS_WDT_COUNTER1_MASK      1
 651:.\Generated_Source\PSoC4/CyLFClk.c ****     *      CY_SYS_WDT_COUNTER2_MASK      2
 652:.\Generated_Source\PSoC4/CyLFClk.c ****     *
 653:.\Generated_Source\PSoC4/CyLFClk.c ****     * Return:
 654:.\Generated_Source\PSoC4/CyLFClk.c ****     *  None
 655:.\Generated_Source\PSoC4/CyLFClk.c ****     *
ARM GAS  C:\Users\Nick\AppData\Local\Temp\ccPDwdCo.s 			page 18


 656:.\Generated_Source\PSoC4/CyLFClk.c ****     * Side Effects:
 657:.\Generated_Source\PSoC4/CyLFClk.c ****     *  Enabling or disabling WDT requires 3 LFCLK cycles to come into effect.
 658:.\Generated_Source\PSoC4/CyLFClk.c ****     *  Therefore, the WDT enable state must not be changed more than once in
 659:.\Generated_Source\PSoC4/CyLFClk.c ****     *  that period.
 660:.\Generated_Source\PSoC4/CyLFClk.c ****     *
 661:.\Generated_Source\PSoC4/CyLFClk.c ****     *  After WDT is enabled, it is illegal to write WDT configuration (WDT_CONFIG)
 662:.\Generated_Source\PSoC4/CyLFClk.c ****     *  and control (WDT_CONTROL) registers. This means that all WDT functions that
 663:.\Generated_Source\PSoC4/CyLFClk.c ****     *  contain 'write' in the name (with the exception of CySysWdtSetMatch()
 664:.\Generated_Source\PSoC4/CyLFClk.c ****     *  function) are illegal to call once WDT enabled.
 665:.\Generated_Source\PSoC4/CyLFClk.c ****     *
 666:.\Generated_Source\PSoC4/CyLFClk.c ****     *  PSoC 4100 / PSoC 4200:
 667:.\Generated_Source\PSoC4/CyLFClk.c ****     *  This function enables ILO.
 668:.\Generated_Source\PSoC4/CyLFClk.c ****     *
 669:.\Generated_Source\PSoC4/CyLFClk.c ****     *  PSoC 4100-BL / PSoC 4200-BL and PSoC 4100M / PSoC 4200M:
 670:.\Generated_Source\PSoC4/CyLFClk.c ****     *  LFLCK should be configured before calling this function. The desired
 671:.\Generated_Source\PSoC4/CyLFClk.c ****     *  source should be enabled and configured to be the source for LFCLK.
 672:.\Generated_Source\PSoC4/CyLFClk.c ****     *
 673:.\Generated_Source\PSoC4/CyLFClk.c ****     *******************************************************************************/
 674:.\Generated_Source\PSoC4/CyLFClk.c ****     void CySysWdtEnable(uint32 counterMask)
 675:.\Generated_Source\PSoC4/CyLFClk.c ****     {
 676:.\Generated_Source\PSoC4/CyLFClk.c ****         #if (!CY_IP_WCO)
 677:.\Generated_Source\PSoC4/CyLFClk.c ****             CySysClkIloStart();
 678:.\Generated_Source\PSoC4/CyLFClk.c ****         #endif /* (!CY_IP_WCO) */
 679:.\Generated_Source\PSoC4/CyLFClk.c **** 
 680:.\Generated_Source\PSoC4/CyLFClk.c ****         CY_SYS_WDT_CONTROL_REG |= counterMask;
 681:.\Generated_Source\PSoC4/CyLFClk.c **** 
 682:.\Generated_Source\PSoC4/CyLFClk.c ****         if(0u != (counterMask & CY_SYS_WDT_COUNTER0_MASK))
 683:.\Generated_Source\PSoC4/CyLFClk.c ****         {
 684:.\Generated_Source\PSoC4/CyLFClk.c ****             while (0u == CySysWdtGetEnabledStatus(CY_SYS_WDT_COUNTER0))
 685:.\Generated_Source\PSoC4/CyLFClk.c ****             {
 686:.\Generated_Source\PSoC4/CyLFClk.c ****                 /* Wait for changes to come into effect */
 687:.\Generated_Source\PSoC4/CyLFClk.c ****             }
 688:.\Generated_Source\PSoC4/CyLFClk.c ****         }
 689:.\Generated_Source\PSoC4/CyLFClk.c **** 
 690:.\Generated_Source\PSoC4/CyLFClk.c ****         if(0u != (counterMask & CY_SYS_WDT_COUNTER1_MASK))
 691:.\Generated_Source\PSoC4/CyLFClk.c ****         {
 692:.\Generated_Source\PSoC4/CyLFClk.c ****             while (0u == CySysWdtGetEnabledStatus(CY_SYS_WDT_COUNTER1))
 693:.\Generated_Source\PSoC4/CyLFClk.c ****             {
 694:.\Generated_Source\PSoC4/CyLFClk.c ****                 /* Wait for changes to come into effect */
 695:.\Generated_Source\PSoC4/CyLFClk.c ****             }
 696:.\Generated_Source\PSoC4/CyLFClk.c ****         }
 697:.\Generated_Source\PSoC4/CyLFClk.c **** 
 698:.\Generated_Source\PSoC4/CyLFClk.c ****         if(0u != (counterMask & CY_SYS_WDT_COUNTER2_MASK))
 699:.\Generated_Source\PSoC4/CyLFClk.c ****         {
 700:.\Generated_Source\PSoC4/CyLFClk.c ****             while (0u == CySysWdtGetEnabledStatus(CY_SYS_WDT_COUNTER2))
 701:.\Generated_Source\PSoC4/CyLFClk.c ****             {
 702:.\Generated_Source\PSoC4/CyLFClk.c ****                 /* Wait for changes to come into effect */
 703:.\Generated_Source\PSoC4/CyLFClk.c ****             }
 704:.\Generated_Source\PSoC4/CyLFClk.c ****         }
 705:.\Generated_Source\PSoC4/CyLFClk.c ****     }
 706:.\Generated_Source\PSoC4/CyLFClk.c **** 
 707:.\Generated_Source\PSoC4/CyLFClk.c **** 
 708:.\Generated_Source\PSoC4/CyLFClk.c ****     /*******************************************************************************
 709:.\Generated_Source\PSoC4/CyLFClk.c ****     * Function Name: CySysWdtDisable
 710:.\Generated_Source\PSoC4/CyLFClk.c ****     ********************************************************************************
 711:.\Generated_Source\PSoC4/CyLFClk.c ****     *
 712:.\Generated_Source\PSoC4/CyLFClk.c ****     * Summary:
ARM GAS  C:\Users\Nick\AppData\Local\Temp\ccPDwdCo.s 			page 19


 713:.\Generated_Source\PSoC4/CyLFClk.c ****     *  Disables the specified WDT counters. All the counters specified in the mask
 714:.\Generated_Source\PSoC4/CyLFClk.c ****     *  are disabled. The function waits for the changes to come into effect.
 715:.\Generated_Source\PSoC4/CyLFClk.c ****     *
 716:.\Generated_Source\PSoC4/CyLFClk.c ****     * Parameters:
 717:.\Generated_Source\PSoC4/CyLFClk.c ****     *  uint32 counterMask: The mask of all counters to disable
 718:.\Generated_Source\PSoC4/CyLFClk.c ****     *    Define                       Counter
 719:.\Generated_Source\PSoC4/CyLFClk.c ****     *   CY_SYS_WDT_COUNTER0_MASK      0
 720:.\Generated_Source\PSoC4/CyLFClk.c ****     *   CY_SYS_WDT_COUNTER1_MASK      1
 721:.\Generated_Source\PSoC4/CyLFClk.c ****     *   CY_SYS_WDT_COUNTER2_MASK      2
 722:.\Generated_Source\PSoC4/CyLFClk.c ****     *
 723:.\Generated_Source\PSoC4/CyLFClk.c ****     * Return:
 724:.\Generated_Source\PSoC4/CyLFClk.c ****     *   None.
 725:.\Generated_Source\PSoC4/CyLFClk.c ****     *
 726:.\Generated_Source\PSoC4/CyLFClk.c ****     *******************************************************************************/
 727:.\Generated_Source\PSoC4/CyLFClk.c ****     void CySysWdtDisable(uint32 counterMask)
 728:.\Generated_Source\PSoC4/CyLFClk.c ****     {
 729:.\Generated_Source\PSoC4/CyLFClk.c ****         if (0uL == CySysWdtLocked())
 730:.\Generated_Source\PSoC4/CyLFClk.c ****         {
 731:.\Generated_Source\PSoC4/CyLFClk.c ****             CY_SYS_WDT_CONTROL_REG &= ~counterMask;
 732:.\Generated_Source\PSoC4/CyLFClk.c **** 
 733:.\Generated_Source\PSoC4/CyLFClk.c ****             if(0u != (counterMask & CY_SYS_WDT_COUNTER0_MASK))
 734:.\Generated_Source\PSoC4/CyLFClk.c ****             {
 735:.\Generated_Source\PSoC4/CyLFClk.c ****                 while (0u != CySysWdtGetEnabledStatus(CY_SYS_WDT_COUNTER0))
 736:.\Generated_Source\PSoC4/CyLFClk.c ****                 {
 737:.\Generated_Source\PSoC4/CyLFClk.c ****                     /* Wait for changes to come into effect */
 738:.\Generated_Source\PSoC4/CyLFClk.c ****                 }
 739:.\Generated_Source\PSoC4/CyLFClk.c ****             }
 740:.\Generated_Source\PSoC4/CyLFClk.c **** 
 741:.\Generated_Source\PSoC4/CyLFClk.c ****             if(0u != (counterMask & CY_SYS_WDT_COUNTER1_MASK))
 742:.\Generated_Source\PSoC4/CyLFClk.c ****             {
 743:.\Generated_Source\PSoC4/CyLFClk.c ****                 while (0u != CySysWdtGetEnabledStatus(CY_SYS_WDT_COUNTER1))
 744:.\Generated_Source\PSoC4/CyLFClk.c ****                 {
 745:.\Generated_Source\PSoC4/CyLFClk.c ****                     /* Wait for changes to come into effect */
 746:.\Generated_Source\PSoC4/CyLFClk.c ****                 }
 747:.\Generated_Source\PSoC4/CyLFClk.c ****             }
 748:.\Generated_Source\PSoC4/CyLFClk.c **** 
 749:.\Generated_Source\PSoC4/CyLFClk.c ****             if(0u != (counterMask & CY_SYS_WDT_COUNTER2_MASK))
 750:.\Generated_Source\PSoC4/CyLFClk.c ****             {
 751:.\Generated_Source\PSoC4/CyLFClk.c ****                 while (0u != CySysWdtGetEnabledStatus(CY_SYS_WDT_COUNTER2))
 752:.\Generated_Source\PSoC4/CyLFClk.c ****                 {
 753:.\Generated_Source\PSoC4/CyLFClk.c ****                     /* Wait for changes to come into effect */
 754:.\Generated_Source\PSoC4/CyLFClk.c ****                 }
 755:.\Generated_Source\PSoC4/CyLFClk.c ****             }
 756:.\Generated_Source\PSoC4/CyLFClk.c ****         }
 757:.\Generated_Source\PSoC4/CyLFClk.c ****     }
 758:.\Generated_Source\PSoC4/CyLFClk.c **** 
 759:.\Generated_Source\PSoC4/CyLFClk.c **** 
 760:.\Generated_Source\PSoC4/CyLFClk.c ****     /*******************************************************************************
 761:.\Generated_Source\PSoC4/CyLFClk.c ****     * Function Name: CySysWdtSetCascade
 762:.\Generated_Source\PSoC4/CyLFClk.c ****     ********************************************************************************
 763:.\Generated_Source\PSoC4/CyLFClk.c ****     *
 764:.\Generated_Source\PSoC4/CyLFClk.c ****     * Summary:
 765:.\Generated_Source\PSoC4/CyLFClk.c ****     *   Writes the two WDT cascade values based on the combination of mask values
 766:.\Generated_Source\PSoC4/CyLFClk.c ****     *   specified.
 767:.\Generated_Source\PSoC4/CyLFClk.c ****     *
 768:.\Generated_Source\PSoC4/CyLFClk.c ****     * Parameters:
 769:.\Generated_Source\PSoC4/CyLFClk.c ****     *   cascadeMask: The mask value used to set or clear the cascade values.
ARM GAS  C:\Users\Nick\AppData\Local\Temp\ccPDwdCo.s 			page 20


 770:.\Generated_Source\PSoC4/CyLFClk.c ****     *   Define                     Cascade
 771:.\Generated_Source\PSoC4/CyLFClk.c ****     *   CY_SYS_WDT_CASCADE_NONE    Neither
 772:.\Generated_Source\PSoC4/CyLFClk.c ****     *   CY_SYS_WDT_CASCADE_01      Cascade 01
 773:.\Generated_Source\PSoC4/CyLFClk.c ****     *   CY_SYS_WDT_CASCADE_12      Cascade 12
 774:.\Generated_Source\PSoC4/CyLFClk.c ****     *
 775:.\Generated_Source\PSoC4/CyLFClk.c ****     *   To set both cascade modes, two defines should be ORed:
 776:.\Generated_Source\PSoC4/CyLFClk.c ****     *   (CY_SYS_WDT_CASCADE_01 | CY_SYS_WDT_CASCADE_12)
 777:.\Generated_Source\PSoC4/CyLFClk.c ****     *
 778:.\Generated_Source\PSoC4/CyLFClk.c ****     * Return:
 779:.\Generated_Source\PSoC4/CyLFClk.c ****     *   None.
 780:.\Generated_Source\PSoC4/CyLFClk.c ****     *
 781:.\Generated_Source\PSoC4/CyLFClk.c ****     * Side effects:
 782:.\Generated_Source\PSoC4/CyLFClk.c ****     *   If only one cascade mask is specified, the second cascade is disabled.
 783:.\Generated_Source\PSoC4/CyLFClk.c ****     *   To set both cascade modes, two defines should be ORed:
 784:.\Generated_Source\PSoC4/CyLFClk.c ****     *    (CY_SYS_WDT_CASCADE_01 | CY_SYS_WDT_CASCADE_12).
 785:.\Generated_Source\PSoC4/CyLFClk.c ****     *
 786:.\Generated_Source\PSoC4/CyLFClk.c ****     *   WDT counters that are part of the specified cascade should be disabled.
 787:.\Generated_Source\PSoC4/CyLFClk.c ****     *   Otherwise this function call has no effect. If the specified
 788:.\Generated_Source\PSoC4/CyLFClk.c ****     *   counter is enabled, call CySysWdtDisable() function with the corresponding
 789:.\Generated_Source\PSoC4/CyLFClk.c ****     *   parameter to disable the specified counter and wait for it to stop. This may
 790:.\Generated_Source\PSoC4/CyLFClk.c ****     *   take up to 3 LFCLK cycles.
 791:.\Generated_Source\PSoC4/CyLFClk.c ****     *
 792:.\Generated_Source\PSoC4/CyLFClk.c ****     *******************************************************************************/
 793:.\Generated_Source\PSoC4/CyLFClk.c ****     void CySysWdtSetCascade(uint32 cascadeMask)
 794:.\Generated_Source\PSoC4/CyLFClk.c ****     {
 795:.\Generated_Source\PSoC4/CyLFClk.c ****         uint32 configRegValue;
 796:.\Generated_Source\PSoC4/CyLFClk.c ****         uint32 countersEnableStatus;
 797:.\Generated_Source\PSoC4/CyLFClk.c **** 
 798:.\Generated_Source\PSoC4/CyLFClk.c ****         countersEnableStatus = CySysWdtGetEnabledStatus(CY_SYS_WDT_COUNTER0) |
 799:.\Generated_Source\PSoC4/CyLFClk.c ****                             CySysWdtGetEnabledStatus(CY_SYS_WDT_COUNTER1) |
 800:.\Generated_Source\PSoC4/CyLFClk.c ****                             CySysWdtGetEnabledStatus(CY_SYS_WDT_COUNTER2);
 801:.\Generated_Source\PSoC4/CyLFClk.c **** 
 802:.\Generated_Source\PSoC4/CyLFClk.c ****         if (0u == countersEnableStatus)
 803:.\Generated_Source\PSoC4/CyLFClk.c ****         {
 804:.\Generated_Source\PSoC4/CyLFClk.c ****             configRegValue = CY_SYS_WDT_CONFIG_REG;
 805:.\Generated_Source\PSoC4/CyLFClk.c ****             configRegValue &= ((uint32)(~(CY_SYS_WDT_CASCADE_01|CY_SYS_WDT_CASCADE_12)));
 806:.\Generated_Source\PSoC4/CyLFClk.c ****             configRegValue |= cascadeMask;
 807:.\Generated_Source\PSoC4/CyLFClk.c ****             CY_SYS_WDT_CONFIG_REG = configRegValue;
 808:.\Generated_Source\PSoC4/CyLFClk.c ****         }
 809:.\Generated_Source\PSoC4/CyLFClk.c ****     }
 810:.\Generated_Source\PSoC4/CyLFClk.c **** 
 811:.\Generated_Source\PSoC4/CyLFClk.c **** 
 812:.\Generated_Source\PSoC4/CyLFClk.c ****     /*******************************************************************************
 813:.\Generated_Source\PSoC4/CyLFClk.c ****     * Function Name: CySysWdtGetCascade
 814:.\Generated_Source\PSoC4/CyLFClk.c ****     ********************************************************************************
 815:.\Generated_Source\PSoC4/CyLFClk.c ****     *
 816:.\Generated_Source\PSoC4/CyLFClk.c ****     * Summary:
 817:.\Generated_Source\PSoC4/CyLFClk.c ****     *   Reads the two WDT cascade values returning a mask of the bits set.
 818:.\Generated_Source\PSoC4/CyLFClk.c ****     *
 819:.\Generated_Source\PSoC4/CyLFClk.c ****     * Parameters:
 820:.\Generated_Source\PSoC4/CyLFClk.c ****     *   None.
 821:.\Generated_Source\PSoC4/CyLFClk.c ****     *
 822:.\Generated_Source\PSoC4/CyLFClk.c ****     * Return:
 823:.\Generated_Source\PSoC4/CyLFClk.c ****     *   The mask of the cascade values set.
 824:.\Generated_Source\PSoC4/CyLFClk.c ****     *   Define                     Cascade
 825:.\Generated_Source\PSoC4/CyLFClk.c ****     *   CY_SYS_WDT_CASCADE_NONE    Neither
 826:.\Generated_Source\PSoC4/CyLFClk.c ****     *   CY_SYS_WDT_CASCADE_01      Cascade 01
ARM GAS  C:\Users\Nick\AppData\Local\Temp\ccPDwdCo.s 			page 21


 827:.\Generated_Source\PSoC4/CyLFClk.c ****     *   CY_SYS_WDT_CASCADE_12      Cascade 12
 828:.\Generated_Source\PSoC4/CyLFClk.c ****     *
 829:.\Generated_Source\PSoC4/CyLFClk.c ****     *******************************************************************************/
 830:.\Generated_Source\PSoC4/CyLFClk.c ****     uint32 CySysWdtGetCascade(void)
 831:.\Generated_Source\PSoC4/CyLFClk.c ****     {
 832:.\Generated_Source\PSoC4/CyLFClk.c ****         return (CY_SYS_WDT_CONFIG_REG & (CY_SYS_WDT_CASCADE_01 | CY_SYS_WDT_CASCADE_12));
 833:.\Generated_Source\PSoC4/CyLFClk.c ****     }
 834:.\Generated_Source\PSoC4/CyLFClk.c **** 
 835:.\Generated_Source\PSoC4/CyLFClk.c **** 
 836:.\Generated_Source\PSoC4/CyLFClk.c ****     /*******************************************************************************
 837:.\Generated_Source\PSoC4/CyLFClk.c ****     * Function Name: CySysWdtSetMatch
 838:.\Generated_Source\PSoC4/CyLFClk.c ****     ********************************************************************************
 839:.\Generated_Source\PSoC4/CyLFClk.c ****     *
 840:.\Generated_Source\PSoC4/CyLFClk.c ****     * Summary:
 841:.\Generated_Source\PSoC4/CyLFClk.c ****     *  Configures the WDT counter match comparison value.
 842:.\Generated_Source\PSoC4/CyLFClk.c ****     *
 843:.\Generated_Source\PSoC4/CyLFClk.c ****     * Parameters:
 844:.\Generated_Source\PSoC4/CyLFClk.c ****     *  counterNum:
 845:.\Generated_Source\PSoC4/CyLFClk.c ****     *   Valid range [0-1]. The number of the WDT counter. The match values are not
 846:.\Generated_Source\PSoC4/CyLFClk.c ****     *   supported by counter 2.
 847:.\Generated_Source\PSoC4/CyLFClk.c ****     *
 848:.\Generated_Source\PSoC4/CyLFClk.c ****     *  match:
 849:.\Generated_Source\PSoC4/CyLFClk.c ****     *   Valid range [0-65535]. The value to be used to match against the counter.
 850:.\Generated_Source\PSoC4/CyLFClk.c ****     *
 851:.\Generated_Source\PSoC4/CyLFClk.c ****     * Return:
 852:.\Generated_Source\PSoC4/CyLFClk.c ****     *   None.
 853:.\Generated_Source\PSoC4/CyLFClk.c ****     *
 854:.\Generated_Source\PSoC4/CyLFClk.c ****     *******************************************************************************/
 855:.\Generated_Source\PSoC4/CyLFClk.c ****     void CySysWdtSetMatch(uint32 counterNum, uint32 match)
 856:.\Generated_Source\PSoC4/CyLFClk.c ****     {
 857:.\Generated_Source\PSoC4/CyLFClk.c ****         uint32 regValue;
 858:.\Generated_Source\PSoC4/CyLFClk.c **** 
 859:.\Generated_Source\PSoC4/CyLFClk.c ****         CYASSERT((counterNum == CY_SYS_WDT_COUNTER0) ||
 860:.\Generated_Source\PSoC4/CyLFClk.c ****                  (counterNum == CY_SYS_WDT_COUNTER1));
 861:.\Generated_Source\PSoC4/CyLFClk.c **** 
 862:.\Generated_Source\PSoC4/CyLFClk.c ****         /* Wait for previous changes to come into effect */
 863:.\Generated_Source\PSoC4/CyLFClk.c ****         CyDelayUs(CY_SYS_WDT_3LFCLK_DELAY_US);
 864:.\Generated_Source\PSoC4/CyLFClk.c **** 
 865:.\Generated_Source\PSoC4/CyLFClk.c ****         regValue = CY_SYS_WDT_MATCH_REG;
 866:.\Generated_Source\PSoC4/CyLFClk.c ****         regValue &= (uint32)~((uint32)(CY_SYS_WDT_LOWER_16BITS_MASK << (counterNum * CY_SYS_WDT_CNT
 867:.\Generated_Source\PSoC4/CyLFClk.c ****         CY_SYS_WDT_MATCH_REG = (regValue | (match << (counterNum * CY_SYS_WDT_CNT_MATCH_SHIFT)));
 868:.\Generated_Source\PSoC4/CyLFClk.c **** 
 869:.\Generated_Source\PSoC4/CyLFClk.c ****         /* Make sure match synchronization has started */
 870:.\Generated_Source\PSoC4/CyLFClk.c ****         CyDelayUs(CY_SYS_WDT_1LFCLK_DELAY_US);
 871:.\Generated_Source\PSoC4/CyLFClk.c ****     }
 872:.\Generated_Source\PSoC4/CyLFClk.c **** 
 873:.\Generated_Source\PSoC4/CyLFClk.c **** 
 874:.\Generated_Source\PSoC4/CyLFClk.c ****     /*******************************************************************************
 875:.\Generated_Source\PSoC4/CyLFClk.c ****     * Function Name: CySysWdtSetToggleBit
 876:.\Generated_Source\PSoC4/CyLFClk.c ****     ********************************************************************************
 877:.\Generated_Source\PSoC4/CyLFClk.c ****     *
 878:.\Generated_Source\PSoC4/CyLFClk.c ****     * Summary:
 879:.\Generated_Source\PSoC4/CyLFClk.c ****     *  Configures which bit in WDT counter 2 to monitor for a toggle. When that
 880:.\Generated_Source\PSoC4/CyLFClk.c ****     *  bit toggles, an interrupt is generated if the mode for counter 2 has
 881:.\Generated_Source\PSoC4/CyLFClk.c ****     *  enabled interrupts.
 882:.\Generated_Source\PSoC4/CyLFClk.c ****     *
 883:.\Generated_Source\PSoC4/CyLFClk.c ****     * Parameters:
ARM GAS  C:\Users\Nick\AppData\Local\Temp\ccPDwdCo.s 			page 22


 884:.\Generated_Source\PSoC4/CyLFClk.c ****     *  bit:
 885:.\Generated_Source\PSoC4/CyLFClk.c ****     *   Valid range [0-31].  Counter 2 bit to monitor for a toggle.
 886:.\Generated_Source\PSoC4/CyLFClk.c ****     *
 887:.\Generated_Source\PSoC4/CyLFClk.c ****     * Return:
 888:.\Generated_Source\PSoC4/CyLFClk.c ****     *   None.
 889:.\Generated_Source\PSoC4/CyLFClk.c ****     *
 890:.\Generated_Source\PSoC4/CyLFClk.c ****     * Side effects:
 891:.\Generated_Source\PSoC4/CyLFClk.c ****     *   WDT Counter 2 should be disabled. Otherwise this function call has no
 892:.\Generated_Source\PSoC4/CyLFClk.c ****     *   effect.
 893:.\Generated_Source\PSoC4/CyLFClk.c ****     *
 894:.\Generated_Source\PSoC4/CyLFClk.c ****     *   If the specified counter is enabled, call the CySysWdtDisable() function with
 895:.\Generated_Source\PSoC4/CyLFClk.c ****     *   the corresponding parameter to disable the specified counter and wait for it to
 896:.\Generated_Source\PSoC4/CyLFClk.c ****     *   stop. This may take up to 3 LFCLK cycles.
 897:.\Generated_Source\PSoC4/CyLFClk.c ****     *
 898:.\Generated_Source\PSoC4/CyLFClk.c ****     *******************************************************************************/
 899:.\Generated_Source\PSoC4/CyLFClk.c ****     void CySysWdtSetToggleBit(uint32 bits)
 900:.\Generated_Source\PSoC4/CyLFClk.c ****     {
 901:.\Generated_Source\PSoC4/CyLFClk.c ****         uint32 configRegValue;
 902:.\Generated_Source\PSoC4/CyLFClk.c **** 
 903:.\Generated_Source\PSoC4/CyLFClk.c ****         if (0u == CySysWdtGetEnabledStatus(CY_SYS_WDT_COUNTER2))
 904:.\Generated_Source\PSoC4/CyLFClk.c ****         {
 905:.\Generated_Source\PSoC4/CyLFClk.c ****             configRegValue = CY_SYS_WDT_CONFIG_REG;
 906:.\Generated_Source\PSoC4/CyLFClk.c ****             configRegValue &= (uint32)(~((uint32)(CY_SYS_WDT_CONFIG_BITS2_MASK << CY_SYS_WDT_CONFIG
 907:.\Generated_Source\PSoC4/CyLFClk.c ****             configRegValue |= ((bits & CY_SYS_WDT_CONFIG_BITS2_MASK) << CY_SYS_WDT_CONFIG_BITS2_POS
 908:.\Generated_Source\PSoC4/CyLFClk.c ****             CY_SYS_WDT_CONFIG_REG = configRegValue;
 909:.\Generated_Source\PSoC4/CyLFClk.c ****         }
 910:.\Generated_Source\PSoC4/CyLFClk.c ****     }
 911:.\Generated_Source\PSoC4/CyLFClk.c **** 
 912:.\Generated_Source\PSoC4/CyLFClk.c **** 
 913:.\Generated_Source\PSoC4/CyLFClk.c ****     /*******************************************************************************
 914:.\Generated_Source\PSoC4/CyLFClk.c ****     * Function Name: CySysWdtGetToggleBit
 915:.\Generated_Source\PSoC4/CyLFClk.c ****     ********************************************************************************
 916:.\Generated_Source\PSoC4/CyLFClk.c ****     *
 917:.\Generated_Source\PSoC4/CyLFClk.c ****     * Summary:
 918:.\Generated_Source\PSoC4/CyLFClk.c ****     *  Reads which bit in WDT counter 2 is monitored for a toggle.
 919:.\Generated_Source\PSoC4/CyLFClk.c ****     *
 920:.\Generated_Source\PSoC4/CyLFClk.c ****     * Parameters:
 921:.\Generated_Source\PSoC4/CyLFClk.c ****     *  None.
 922:.\Generated_Source\PSoC4/CyLFClk.c ****     *
 923:.\Generated_Source\PSoC4/CyLFClk.c ****     * Return:
 924:.\Generated_Source\PSoC4/CyLFClk.c ****     *  The bit that is monitored (range of 0 to 31)
 925:.\Generated_Source\PSoC4/CyLFClk.c ****     *
 926:.\Generated_Source\PSoC4/CyLFClk.c ****     *******************************************************************************/
 927:.\Generated_Source\PSoC4/CyLFClk.c ****     uint32 CySysWdtGetToggleBit(void)
 928:.\Generated_Source\PSoC4/CyLFClk.c ****     {
 929:.\Generated_Source\PSoC4/CyLFClk.c ****         return ((CY_SYS_WDT_CONFIG_REG >> CY_SYS_WDT_CONFIG_BITS2_POS) & CY_SYS_WDT_CONFIG_BITS2_MA
 930:.\Generated_Source\PSoC4/CyLFClk.c ****     }
 931:.\Generated_Source\PSoC4/CyLFClk.c **** 
 932:.\Generated_Source\PSoC4/CyLFClk.c **** 
 933:.\Generated_Source\PSoC4/CyLFClk.c ****     /*******************************************************************************
 934:.\Generated_Source\PSoC4/CyLFClk.c ****     * Function Name: CySysWdtGetMatch
 935:.\Generated_Source\PSoC4/CyLFClk.c ****     ********************************************************************************
 936:.\Generated_Source\PSoC4/CyLFClk.c ****     *
 937:.\Generated_Source\PSoC4/CyLFClk.c ****     * Summary:
 938:.\Generated_Source\PSoC4/CyLFClk.c ****     *  Reads the WDT counter match comparison value.
 939:.\Generated_Source\PSoC4/CyLFClk.c ****     *
 940:.\Generated_Source\PSoC4/CyLFClk.c ****     * Parameters:
ARM GAS  C:\Users\Nick\AppData\Local\Temp\ccPDwdCo.s 			page 23


 941:.\Generated_Source\PSoC4/CyLFClk.c ****     *  counterNum: Valid range [0-1].  The number of the WDT counter.  The match values
 942:.\Generated_Source\PSoC4/CyLFClk.c ****     *               are not supported by counter 2.
 943:.\Generated_Source\PSoC4/CyLFClk.c ****     *
 944:.\Generated_Source\PSoC4/CyLFClk.c ****     * Return:
 945:.\Generated_Source\PSoC4/CyLFClk.c ****     *  A 16-bit match value.
 946:.\Generated_Source\PSoC4/CyLFClk.c ****     *
 947:.\Generated_Source\PSoC4/CyLFClk.c ****     *******************************************************************************/
 948:.\Generated_Source\PSoC4/CyLFClk.c ****     uint32 CySysWdtGetMatch(uint32 counterNum)
 949:.\Generated_Source\PSoC4/CyLFClk.c ****     {
 950:.\Generated_Source\PSoC4/CyLFClk.c ****         CYASSERT((counterNum == CY_SYS_WDT_COUNTER0) ||
 951:.\Generated_Source\PSoC4/CyLFClk.c ****                  (counterNum == CY_SYS_WDT_COUNTER1));
 952:.\Generated_Source\PSoC4/CyLFClk.c **** 
 953:.\Generated_Source\PSoC4/CyLFClk.c ****         return ((uint32)(CY_SYS_WDT_MATCH_REG >> (counterNum * CY_SYS_WDT_CNT_MATCH_SHIFT)) & CY_SY
 954:.\Generated_Source\PSoC4/CyLFClk.c ****     }
 955:.\Generated_Source\PSoC4/CyLFClk.c **** 
 956:.\Generated_Source\PSoC4/CyLFClk.c **** 
 957:.\Generated_Source\PSoC4/CyLFClk.c ****     /*******************************************************************************
 958:.\Generated_Source\PSoC4/CyLFClk.c ****     * Function Name: CySysWdtGetCount
 959:.\Generated_Source\PSoC4/CyLFClk.c ****     ********************************************************************************
 960:.\Generated_Source\PSoC4/CyLFClk.c ****     *
 961:.\Generated_Source\PSoC4/CyLFClk.c ****     * Summary:
 962:.\Generated_Source\PSoC4/CyLFClk.c ****     *  Reads the current WDT counter value.
 963:.\Generated_Source\PSoC4/CyLFClk.c ****     *
 964:.\Generated_Source\PSoC4/CyLFClk.c ****     * Parameters:
 965:.\Generated_Source\PSoC4/CyLFClk.c ****     *  counterNum: Valid range [0-2].  The number of the WDT counter.
 966:.\Generated_Source\PSoC4/CyLFClk.c ****     *
 967:.\Generated_Source\PSoC4/CyLFClk.c ****     * Return:
 968:.\Generated_Source\PSoC4/CyLFClk.c ****     *  A live counter value.  Counter 0 and 1 are 16 bit counters and counter
 969:.\Generated_Source\PSoC4/CyLFClk.c ****     *  2 is a 32 bit counter.
 970:.\Generated_Source\PSoC4/CyLFClk.c ****     *
 971:.\Generated_Source\PSoC4/CyLFClk.c ****     *******************************************************************************/
 972:.\Generated_Source\PSoC4/CyLFClk.c ****     uint32 CySysWdtGetCount(uint32 counterNum)
 973:.\Generated_Source\PSoC4/CyLFClk.c ****     {
 974:.\Generated_Source\PSoC4/CyLFClk.c ****         uint32 regValue = 0u;
 975:.\Generated_Source\PSoC4/CyLFClk.c **** 
 976:.\Generated_Source\PSoC4/CyLFClk.c ****         switch(counterNum)
 977:.\Generated_Source\PSoC4/CyLFClk.c ****         {
 978:.\Generated_Source\PSoC4/CyLFClk.c ****             /* WDT Counter 0 */
 979:.\Generated_Source\PSoC4/CyLFClk.c ****             case 0u:
 980:.\Generated_Source\PSoC4/CyLFClk.c ****                 regValue = CY_SYS_WDT_CTRLOW_REG & CY_SYS_WDT_LOWER_16BITS_MASK;
 981:.\Generated_Source\PSoC4/CyLFClk.c ****             break;
 982:.\Generated_Source\PSoC4/CyLFClk.c **** 
 983:.\Generated_Source\PSoC4/CyLFClk.c ****             /* WDT Counter 1 */
 984:.\Generated_Source\PSoC4/CyLFClk.c ****             case 1u:
 985:.\Generated_Source\PSoC4/CyLFClk.c ****                 regValue = (CY_SYS_WDT_CTRLOW_REG >> CY_SYS_WDT_CNT_MATCH_SHIFT) & CY_SYS_WDT_LOWER
 986:.\Generated_Source\PSoC4/CyLFClk.c ****             break;
 987:.\Generated_Source\PSoC4/CyLFClk.c **** 
 988:.\Generated_Source\PSoC4/CyLFClk.c ****             /* WDT Counter 2 */
 989:.\Generated_Source\PSoC4/CyLFClk.c ****             case 2u:
 990:.\Generated_Source\PSoC4/CyLFClk.c ****                 regValue = CY_SYS_WDT_CTRHIGH_REG;
 991:.\Generated_Source\PSoC4/CyLFClk.c ****             break;
 992:.\Generated_Source\PSoC4/CyLFClk.c **** 
 993:.\Generated_Source\PSoC4/CyLFClk.c ****             default:
 994:.\Generated_Source\PSoC4/CyLFClk.c ****                 CYASSERT(0u != 0u);
 995:.\Generated_Source\PSoC4/CyLFClk.c ****             break;
 996:.\Generated_Source\PSoC4/CyLFClk.c ****         }
 997:.\Generated_Source\PSoC4/CyLFClk.c **** 
ARM GAS  C:\Users\Nick\AppData\Local\Temp\ccPDwdCo.s 			page 24


 998:.\Generated_Source\PSoC4/CyLFClk.c ****         return (regValue);
 999:.\Generated_Source\PSoC4/CyLFClk.c ****     }
1000:.\Generated_Source\PSoC4/CyLFClk.c **** 
1001:.\Generated_Source\PSoC4/CyLFClk.c **** 
1002:.\Generated_Source\PSoC4/CyLFClk.c ****     /*******************************************************************************
1003:.\Generated_Source\PSoC4/CyLFClk.c ****     * Function Name: CySysWdtGetInterruptSource
1004:.\Generated_Source\PSoC4/CyLFClk.c ****     ********************************************************************************
1005:.\Generated_Source\PSoC4/CyLFClk.c ****     *
1006:.\Generated_Source\PSoC4/CyLFClk.c ****     * Summary:
1007:.\Generated_Source\PSoC4/CyLFClk.c ****     *   Reads a mask containing all the WDT counters interrupts that are currently
1008:.\Generated_Source\PSoC4/CyLFClk.c ****     *   set by the hardware, if a corresponding mode is selected.
1009:.\Generated_Source\PSoC4/CyLFClk.c ****     *
1010:.\Generated_Source\PSoC4/CyLFClk.c ****     * Parameters:
1011:.\Generated_Source\PSoC4/CyLFClk.c ****     *   None.
1012:.\Generated_Source\PSoC4/CyLFClk.c ****     *
1013:.\Generated_Source\PSoC4/CyLFClk.c ****     * Return:
1014:.\Generated_Source\PSoC4/CyLFClk.c ****     *   The mask of interrupts set.
1015:.\Generated_Source\PSoC4/CyLFClk.c ****     *   Define                    Counter
1016:.\Generated_Source\PSoC4/CyLFClk.c ****     *   CY_SYS_WDT_COUNTER0_INT    0
1017:.\Generated_Source\PSoC4/CyLFClk.c ****     *   CY_SYS_WDT_COUNTER1_INT    1
1018:.\Generated_Source\PSoC4/CyLFClk.c ****     *   CY_SYS_WDT_COUNTER2_INT    2
1019:.\Generated_Source\PSoC4/CyLFClk.c ****     *
1020:.\Generated_Source\PSoC4/CyLFClk.c ****     *******************************************************************************/
1021:.\Generated_Source\PSoC4/CyLFClk.c ****     uint32 CySysWdtGetInterruptSource(void)
1022:.\Generated_Source\PSoC4/CyLFClk.c ****     {
1023:.\Generated_Source\PSoC4/CyLFClk.c ****         return (CY_SYS_WDT_CONTROL_REG & (CY_SYS_WDT_COUNTER0_INT | CY_SYS_WDT_COUNTER1_INT | CY_SY
1024:.\Generated_Source\PSoC4/CyLFClk.c ****     }
1025:.\Generated_Source\PSoC4/CyLFClk.c **** 
1026:.\Generated_Source\PSoC4/CyLFClk.c **** 
1027:.\Generated_Source\PSoC4/CyLFClk.c ****     /*******************************************************************************
1028:.\Generated_Source\PSoC4/CyLFClk.c ****     * Function Name: CySysWdtClearInterrupt
1029:.\Generated_Source\PSoC4/CyLFClk.c ****     ********************************************************************************
1030:.\Generated_Source\PSoC4/CyLFClk.c ****     *
1031:.\Generated_Source\PSoC4/CyLFClk.c ****     * Summary:
1032:.\Generated_Source\PSoC4/CyLFClk.c ****     *   Clears all the WDT counter interrupts set in the mask. Calling this function
1033:.\Generated_Source\PSoC4/CyLFClk.c ****     *   also prevents from Reset when the counter mode is set to generate
1034:.\Generated_Source\PSoC4/CyLFClk.c ****     *   3 interrupts and then the device resets.
1035:.\Generated_Source\PSoC4/CyLFClk.c ****     *
1036:.\Generated_Source\PSoC4/CyLFClk.c ****     *   All the WDT interrupts are to be cleared by the firmware, otherwise
1037:.\Generated_Source\PSoC4/CyLFClk.c ****     *   interrupts are generated continuously.
1038:.\Generated_Source\PSoC4/CyLFClk.c ****     *
1039:.\Generated_Source\PSoC4/CyLFClk.c ****     * Parameters:
1040:.\Generated_Source\PSoC4/CyLFClk.c ****     *   counterMask: The mask of all the counters to enable.
1041:.\Generated_Source\PSoC4/CyLFClk.c ****     *   Define                    Counter
1042:.\Generated_Source\PSoC4/CyLFClk.c ****     *   CY_SYS_WDT_COUNTER0_INT    0
1043:.\Generated_Source\PSoC4/CyLFClk.c ****     *   CY_SYS_WDT_COUNTER1_INT    1
1044:.\Generated_Source\PSoC4/CyLFClk.c ****     *   CY_SYS_WDT_COUNTER2_INT    2
1045:.\Generated_Source\PSoC4/CyLFClk.c ****     *
1046:.\Generated_Source\PSoC4/CyLFClk.c ****     * Return:
1047:.\Generated_Source\PSoC4/CyLFClk.c ****     *   None
1048:.\Generated_Source\PSoC4/CyLFClk.c ****     *
1049:.\Generated_Source\PSoC4/CyLFClk.c ****     * Side effects:
1050:.\Generated_Source\PSoC4/CyLFClk.c ****     *   This function temporary removes the watchdog lock, if it was set, and
1051:.\Generated_Source\PSoC4/CyLFClk.c ****     *   restores the lock state after cleaning the WDT interrupts that are set in
1052:.\Generated_Source\PSoC4/CyLFClk.c ****     *   a mask.
1053:.\Generated_Source\PSoC4/CyLFClk.c ****     *
1054:.\Generated_Source\PSoC4/CyLFClk.c ****     *******************************************************************************/
ARM GAS  C:\Users\Nick\AppData\Local\Temp\ccPDwdCo.s 			page 25


1055:.\Generated_Source\PSoC4/CyLFClk.c ****     void CySysWdtClearInterrupt(uint32 counterMask)
1056:.\Generated_Source\PSoC4/CyLFClk.c ****     {
1057:.\Generated_Source\PSoC4/CyLFClk.c ****         uint8 interruptState;
1058:.\Generated_Source\PSoC4/CyLFClk.c ****         uint32 wdtLockState;
1059:.\Generated_Source\PSoC4/CyLFClk.c **** 
1060:.\Generated_Source\PSoC4/CyLFClk.c ****         interruptState = CyEnterCriticalSection();
1061:.\Generated_Source\PSoC4/CyLFClk.c **** 
1062:.\Generated_Source\PSoC4/CyLFClk.c ****         if (0u != CySysWdtLocked())
1063:.\Generated_Source\PSoC4/CyLFClk.c ****         {
1064:.\Generated_Source\PSoC4/CyLFClk.c ****             wdtLockState = 1u;
1065:.\Generated_Source\PSoC4/CyLFClk.c ****             CySysWdtUnlock();
1066:.\Generated_Source\PSoC4/CyLFClk.c ****         }
1067:.\Generated_Source\PSoC4/CyLFClk.c ****         else
1068:.\Generated_Source\PSoC4/CyLFClk.c ****         {
1069:.\Generated_Source\PSoC4/CyLFClk.c ****             wdtLockState = 0u;
1070:.\Generated_Source\PSoC4/CyLFClk.c ****         }
1071:.\Generated_Source\PSoC4/CyLFClk.c **** 
1072:.\Generated_Source\PSoC4/CyLFClk.c ****         /* Set new WDT control register value */
1073:.\Generated_Source\PSoC4/CyLFClk.c ****         counterMask &= (CY_SYS_WDT_COUNTER0_INT |
1074:.\Generated_Source\PSoC4/CyLFClk.c ****                         CY_SYS_WDT_COUNTER1_INT |
1075:.\Generated_Source\PSoC4/CyLFClk.c ****                         CY_SYS_WDT_COUNTER2_INT);
1076:.\Generated_Source\PSoC4/CyLFClk.c **** 
1077:.\Generated_Source\PSoC4/CyLFClk.c ****         CY_SYS_WDT_CONTROL_REG = counterMask | (CY_SYS_WDT_CONTROL_REG & ~(CY_SYS_WDT_COUNTER0_INT 
1078:.\Generated_Source\PSoC4/CyLFClk.c ****                                                                            CY_SYS_WDT_COUNTER1_INT 
1079:.\Generated_Source\PSoC4/CyLFClk.c ****                                                                            CY_SYS_WDT_COUNTER2_INT)
1080:.\Generated_Source\PSoC4/CyLFClk.c **** 
1081:.\Generated_Source\PSoC4/CyLFClk.c ****         /* Read the CY_SYS_WDT_CONTROL_REG to clear the interrupt request.
1082:.\Generated_Source\PSoC4/CyLFClk.c ****          * Cypress ID #207093, #206231
1083:.\Generated_Source\PSoC4/CyLFClk.c ****         */
1084:.\Generated_Source\PSoC4/CyLFClk.c ****         (void)CY_SYS_WDT_CONTROL_REG;
1085:.\Generated_Source\PSoC4/CyLFClk.c **** 
1086:.\Generated_Source\PSoC4/CyLFClk.c ****         if (1u == wdtLockState)
1087:.\Generated_Source\PSoC4/CyLFClk.c ****         {
1088:.\Generated_Source\PSoC4/CyLFClk.c ****             CySysWdtLock();
1089:.\Generated_Source\PSoC4/CyLFClk.c ****         }
1090:.\Generated_Source\PSoC4/CyLFClk.c **** 
1091:.\Generated_Source\PSoC4/CyLFClk.c ****         CyExitCriticalSection(interruptState);
1092:.\Generated_Source\PSoC4/CyLFClk.c ****     }
1093:.\Generated_Source\PSoC4/CyLFClk.c **** 
1094:.\Generated_Source\PSoC4/CyLFClk.c **** 
1095:.\Generated_Source\PSoC4/CyLFClk.c ****     /*******************************************************************************
1096:.\Generated_Source\PSoC4/CyLFClk.c ****     * Function Name: CySysWdtResetCounters
1097:.\Generated_Source\PSoC4/CyLFClk.c ****     ********************************************************************************
1098:.\Generated_Source\PSoC4/CyLFClk.c ****     *
1099:.\Generated_Source\PSoC4/CyLFClk.c ****     * Summary:
1100:.\Generated_Source\PSoC4/CyLFClk.c ****     *  Resets all the WDT counters set in the mask.
1101:.\Generated_Source\PSoC4/CyLFClk.c ****     *
1102:.\Generated_Source\PSoC4/CyLFClk.c ****     * Parameters:
1103:.\Generated_Source\PSoC4/CyLFClk.c ****     *  counterMask: The mask of all the counters to reset.
1104:.\Generated_Source\PSoC4/CyLFClk.c ****     *   Define                       Counter
1105:.\Generated_Source\PSoC4/CyLFClk.c ****     *   CY_SYS_WDT_COUNTER0_RESET    0
1106:.\Generated_Source\PSoC4/CyLFClk.c ****     *   CY_SYS_WDT_COUNTER1_RESET    1
1107:.\Generated_Source\PSoC4/CyLFClk.c ****     *   CY_SYS_WDT_COUNTER2_RESET    2
1108:.\Generated_Source\PSoC4/CyLFClk.c ****     *
1109:.\Generated_Source\PSoC4/CyLFClk.c ****     * Return:
1110:.\Generated_Source\PSoC4/CyLFClk.c ****     *   None
1111:.\Generated_Source\PSoC4/CyLFClk.c ****     *
ARM GAS  C:\Users\Nick\AppData\Local\Temp\ccPDwdCo.s 			page 26


1112:.\Generated_Source\PSoC4/CyLFClk.c ****     * Side effects:
1113:.\Generated_Source\PSoC4/CyLFClk.c ****     *   This function does not reset counter values if the Watchdog is locked.
1114:.\Generated_Source\PSoC4/CyLFClk.c ****     *   This function waits while corresponding counters will be reset. This may
1115:.\Generated_Source\PSoC4/CyLFClk.c ****     *   take up to 3 LFCLK cycles.
1116:.\Generated_Source\PSoC4/CyLFClk.c ****     *   The LFCLK source must be enabled. Otherwise, the function will never exit.
1117:.\Generated_Source\PSoC4/CyLFClk.c ****     *
1118:.\Generated_Source\PSoC4/CyLFClk.c ****     *******************************************************************************/
1119:.\Generated_Source\PSoC4/CyLFClk.c ****     void CySysWdtResetCounters(uint32 countersMask)
1120:.\Generated_Source\PSoC4/CyLFClk.c ****     {
1121:.\Generated_Source\PSoC4/CyLFClk.c ****         /* Set new WDT reset value */
1122:.\Generated_Source\PSoC4/CyLFClk.c ****         CY_SYS_WDT_CONTROL_REG |= (countersMask & CY_SYS_WDT_COUNTERS_RESET);
1123:.\Generated_Source\PSoC4/CyLFClk.c **** 
1124:.\Generated_Source\PSoC4/CyLFClk.c ****         while (0uL != (CY_SYS_WDT_CONTROL_REG & CY_SYS_WDT_COUNTERS_RESET))
1125:.\Generated_Source\PSoC4/CyLFClk.c ****         {
1126:.\Generated_Source\PSoC4/CyLFClk.c ****             /* Wait for reset to come into effect */
1127:.\Generated_Source\PSoC4/CyLFClk.c ****         }
1128:.\Generated_Source\PSoC4/CyLFClk.c ****     }
1129:.\Generated_Source\PSoC4/CyLFClk.c **** 
1130:.\Generated_Source\PSoC4/CyLFClk.c **** 
1131:.\Generated_Source\PSoC4/CyLFClk.c ****     /*******************************************************************************
1132:.\Generated_Source\PSoC4/CyLFClk.c ****     * Function Name: CySysWdtSetInterruptCallback
1133:.\Generated_Source\PSoC4/CyLFClk.c ****     ********************************************************************************
1134:.\Generated_Source\PSoC4/CyLFClk.c ****     *
1135:.\Generated_Source\PSoC4/CyLFClk.c ****     * Summary:
1136:.\Generated_Source\PSoC4/CyLFClk.c ****     *  Sets the ISR callback function for the particular WDT counter.
1137:.\Generated_Source\PSoC4/CyLFClk.c ****     *  These functions are called on the WDT interrupt.
1138:.\Generated_Source\PSoC4/CyLFClk.c ****     *
1139:.\Generated_Source\PSoC4/CyLFClk.c ****     * Parameters:
1140:.\Generated_Source\PSoC4/CyLFClk.c ****     *  counterNum : The number of the WDT counter.
1141:.\Generated_Source\PSoC4/CyLFClk.c ****     *  function   : The pointer to the callback function.
1142:.\Generated_Source\PSoC4/CyLFClk.c ****     *
1143:.\Generated_Source\PSoC4/CyLFClk.c ****     * Return:
1144:.\Generated_Source\PSoC4/CyLFClk.c ****     *  The pointer to the previous callback function.
1145:.\Generated_Source\PSoC4/CyLFClk.c ****     *  NULL is returned if the specified address is not set.
1146:.\Generated_Source\PSoC4/CyLFClk.c ****     *
1147:.\Generated_Source\PSoC4/CyLFClk.c ****     *******************************************************************************/
1148:.\Generated_Source\PSoC4/CyLFClk.c ****     cyWdtCallback CySysWdtSetInterruptCallback(uint32 counterNum, cyWdtCallback function)
1149:.\Generated_Source\PSoC4/CyLFClk.c ****     {
1150:.\Generated_Source\PSoC4/CyLFClk.c ****         cyWdtCallback prevCallback = (void *)0;
1151:.\Generated_Source\PSoC4/CyLFClk.c **** 
1152:.\Generated_Source\PSoC4/CyLFClk.c ****         if(counterNum < CY_WDT_NUM_OF_WDT)
1153:.\Generated_Source\PSoC4/CyLFClk.c ****         {
1154:.\Generated_Source\PSoC4/CyLFClk.c ****             prevCallback = cySysWdtCallback[counterNum];
1155:.\Generated_Source\PSoC4/CyLFClk.c ****             cySysWdtCallback[counterNum] = function;
1156:.\Generated_Source\PSoC4/CyLFClk.c ****         }
1157:.\Generated_Source\PSoC4/CyLFClk.c ****         else
1158:.\Generated_Source\PSoC4/CyLFClk.c ****         {
1159:.\Generated_Source\PSoC4/CyLFClk.c ****             CYASSERT(0u != 0u);
1160:.\Generated_Source\PSoC4/CyLFClk.c ****         }
1161:.\Generated_Source\PSoC4/CyLFClk.c **** 
1162:.\Generated_Source\PSoC4/CyLFClk.c ****         return((cyWdtCallback)prevCallback);
1163:.\Generated_Source\PSoC4/CyLFClk.c ****     }
1164:.\Generated_Source\PSoC4/CyLFClk.c **** 
1165:.\Generated_Source\PSoC4/CyLFClk.c **** 
1166:.\Generated_Source\PSoC4/CyLFClk.c ****     /*******************************************************************************
1167:.\Generated_Source\PSoC4/CyLFClk.c ****     * Function Name: CySysWdtGetInterruptCallback
1168:.\Generated_Source\PSoC4/CyLFClk.c ****     ********************************************************************************
ARM GAS  C:\Users\Nick\AppData\Local\Temp\ccPDwdCo.s 			page 27


1169:.\Generated_Source\PSoC4/CyLFClk.c ****     *
1170:.\Generated_Source\PSoC4/CyLFClk.c ****     * Summary:
1171:.\Generated_Source\PSoC4/CyLFClk.c ****     *  Gets the ISR callback function for the particular WDT counter.
1172:.\Generated_Source\PSoC4/CyLFClk.c ****     *
1173:.\Generated_Source\PSoC4/CyLFClk.c ****     * Parameters:
1174:.\Generated_Source\PSoC4/CyLFClk.c ****     *  counterNum : The number of the WDT counter.
1175:.\Generated_Source\PSoC4/CyLFClk.c ****     *
1176:.\Generated_Source\PSoC4/CyLFClk.c ****     * Return:
1177:.\Generated_Source\PSoC4/CyLFClk.c ****     *  The pointer to the callback function registered for a particular WDT by
1178:.\Generated_Source\PSoC4/CyLFClk.c ****     *  a particular address that are passed through arguments.
1179:.\Generated_Source\PSoC4/CyLFClk.c ****     *
1180:.\Generated_Source\PSoC4/CyLFClk.c ****     *******************************************************************************/
1181:.\Generated_Source\PSoC4/CyLFClk.c ****     cyWdtCallback CySysWdtGetInterruptCallback(uint32 counterNum)
1182:.\Generated_Source\PSoC4/CyLFClk.c ****     {
1183:.\Generated_Source\PSoC4/CyLFClk.c ****         cyWdtCallback retCallback = (void *)0;
1184:.\Generated_Source\PSoC4/CyLFClk.c **** 
1185:.\Generated_Source\PSoC4/CyLFClk.c ****         if(counterNum < CY_WDT_NUM_OF_WDT)
1186:.\Generated_Source\PSoC4/CyLFClk.c ****         {
1187:.\Generated_Source\PSoC4/CyLFClk.c ****             retCallback = (cyWdtCallback)cySysWdtCallback[counterNum];
1188:.\Generated_Source\PSoC4/CyLFClk.c ****         }
1189:.\Generated_Source\PSoC4/CyLFClk.c ****         else
1190:.\Generated_Source\PSoC4/CyLFClk.c ****         {
1191:.\Generated_Source\PSoC4/CyLFClk.c ****             CYASSERT(0u != 0u);
1192:.\Generated_Source\PSoC4/CyLFClk.c ****         }
1193:.\Generated_Source\PSoC4/CyLFClk.c **** 
1194:.\Generated_Source\PSoC4/CyLFClk.c ****         return(retCallback);
1195:.\Generated_Source\PSoC4/CyLFClk.c ****     }
1196:.\Generated_Source\PSoC4/CyLFClk.c **** 
1197:.\Generated_Source\PSoC4/CyLFClk.c **** 
1198:.\Generated_Source\PSoC4/CyLFClk.c ****     /*******************************************************************************
1199:.\Generated_Source\PSoC4/CyLFClk.c ****     * Function Name: CySysWdtEnableCounterIsr
1200:.\Generated_Source\PSoC4/CyLFClk.c ****     ********************************************************************************
1201:.\Generated_Source\PSoC4/CyLFClk.c ****     *
1202:.\Generated_Source\PSoC4/CyLFClk.c ****     * Summary:
1203:.\Generated_Source\PSoC4/CyLFClk.c ****     *  Enables the ISR callback servicing for the particular WDT counter
1204:.\Generated_Source\PSoC4/CyLFClk.c ****     *
1205:.\Generated_Source\PSoC4/CyLFClk.c ****     * Parameters:
1206:.\Generated_Source\PSoC4/CyLFClk.c ****     *  counterNum: Valid range [0-2].  The number of the WDT counter.
1207:.\Generated_Source\PSoC4/CyLFClk.c ****     *
1208:.\Generated_Source\PSoC4/CyLFClk.c ****     *******************************************************************************/
1209:.\Generated_Source\PSoC4/CyLFClk.c ****     void CySysWdtEnableCounterIsr(uint32 counterNum)
1210:.\Generated_Source\PSoC4/CyLFClk.c ****     {
1211:.\Generated_Source\PSoC4/CyLFClk.c ****         if(counterNum <= CY_SYS_WDT_COUNTER2)
1212:.\Generated_Source\PSoC4/CyLFClk.c ****         {
1213:.\Generated_Source\PSoC4/CyLFClk.c ****             disableServicedIsr &= ~counterIntMaskTbl[counterNum];
1214:.\Generated_Source\PSoC4/CyLFClk.c ****             wdtIsrMask |= counterIntMaskTbl[counterNum];
1215:.\Generated_Source\PSoC4/CyLFClk.c ****         }
1216:.\Generated_Source\PSoC4/CyLFClk.c ****         else
1217:.\Generated_Source\PSoC4/CyLFClk.c ****         {
1218:.\Generated_Source\PSoC4/CyLFClk.c ****             CYASSERT(0u != 0u);
1219:.\Generated_Source\PSoC4/CyLFClk.c ****         }
1220:.\Generated_Source\PSoC4/CyLFClk.c ****     }
1221:.\Generated_Source\PSoC4/CyLFClk.c **** 
1222:.\Generated_Source\PSoC4/CyLFClk.c **** 
1223:.\Generated_Source\PSoC4/CyLFClk.c ****     /*******************************************************************************
1224:.\Generated_Source\PSoC4/CyLFClk.c ****     * Function Name: CySysWdtDisableCounterIsr
1225:.\Generated_Source\PSoC4/CyLFClk.c ****     ********************************************************************************
ARM GAS  C:\Users\Nick\AppData\Local\Temp\ccPDwdCo.s 			page 28


1226:.\Generated_Source\PSoC4/CyLFClk.c ****     *
1227:.\Generated_Source\PSoC4/CyLFClk.c ****     * Summary:
1228:.\Generated_Source\PSoC4/CyLFClk.c ****     *  Disables the ISR callback servicing for the particular WDT counter
1229:.\Generated_Source\PSoC4/CyLFClk.c ****     *
1230:.\Generated_Source\PSoC4/CyLFClk.c ****     * Parameters:
1231:.\Generated_Source\PSoC4/CyLFClk.c ****     *  counterNum: Valid range [0-2].  The number of the WDT counter.
1232:.\Generated_Source\PSoC4/CyLFClk.c ****     *
1233:.\Generated_Source\PSoC4/CyLFClk.c ****     *******************************************************************************/
1234:.\Generated_Source\PSoC4/CyLFClk.c ****     void CySysWdtDisableCounterIsr(uint32 counterNum)
1235:.\Generated_Source\PSoC4/CyLFClk.c ****     {
1236:.\Generated_Source\PSoC4/CyLFClk.c ****         if(counterNum <= CY_SYS_WDT_COUNTER2)
1237:.\Generated_Source\PSoC4/CyLFClk.c ****         {
1238:.\Generated_Source\PSoC4/CyLFClk.c ****             wdtIsrMask &= ~counterIntMaskTbl[counterNum];
1239:.\Generated_Source\PSoC4/CyLFClk.c ****         }
1240:.\Generated_Source\PSoC4/CyLFClk.c ****         else
1241:.\Generated_Source\PSoC4/CyLFClk.c ****         {
1242:.\Generated_Source\PSoC4/CyLFClk.c ****             CYASSERT(0u != 0u);
1243:.\Generated_Source\PSoC4/CyLFClk.c ****         }
1244:.\Generated_Source\PSoC4/CyLFClk.c ****     }
1245:.\Generated_Source\PSoC4/CyLFClk.c **** 
1246:.\Generated_Source\PSoC4/CyLFClk.c **** 
1247:.\Generated_Source\PSoC4/CyLFClk.c ****     /*******************************************************************************
1248:.\Generated_Source\PSoC4/CyLFClk.c ****     * Function Name: CySysWdtIsr
1249:.\Generated_Source\PSoC4/CyLFClk.c ****     ********************************************************************************
1250:.\Generated_Source\PSoC4/CyLFClk.c ****     *
1251:.\Generated_Source\PSoC4/CyLFClk.c ****     * Summary:
1252:.\Generated_Source\PSoC4/CyLFClk.c ****     *  This is the handler of the WDT interrupt in CPU NVIC. The handler checks
1253:.\Generated_Source\PSoC4/CyLFClk.c ****     *  which WDT triggered in the interrupt and calls the respective callback
1254:.\Generated_Source\PSoC4/CyLFClk.c ****     *  functions configured by the user by using CySysWdtSetIsrCallback() API.
1255:.\Generated_Source\PSoC4/CyLFClk.c ****     *
1256:.\Generated_Source\PSoC4/CyLFClk.c ****     *  The order of the callback execution is incremental. Callback-0 is
1257:.\Generated_Source\PSoC4/CyLFClk.c ****     *  run as the first one and callback-2 is called as the last one.
1258:.\Generated_Source\PSoC4/CyLFClk.c ****     *
1259:.\Generated_Source\PSoC4/CyLFClk.c ****     * Parameters:
1260:.\Generated_Source\PSoC4/CyLFClk.c ****     *  None.
1261:.\Generated_Source\PSoC4/CyLFClk.c ****     *
1262:.\Generated_Source\PSoC4/CyLFClk.c ****     * Return:
1263:.\Generated_Source\PSoC4/CyLFClk.c ****     *  None.
1264:.\Generated_Source\PSoC4/CyLFClk.c ****     *
1265:.\Generated_Source\PSoC4/CyLFClk.c ****     * Side Effects:
1266:.\Generated_Source\PSoC4/CyLFClk.c ****     *  This function clears the WDT interrupt every time when it is called.
1267:.\Generated_Source\PSoC4/CyLFClk.c ****     *  Reset after the 3rd interrupt does not happen if this function is registered
1268:.\Generated_Source\PSoC4/CyLFClk.c ****     *  as the interrupt handler even if the "Watchdog with Interrupt" mode is
1269:.\Generated_Source\PSoC4/CyLFClk.c ****     *  selected on the "Low Frequency Clocks" tab.
1270:.\Generated_Source\PSoC4/CyLFClk.c ****     *
1271:.\Generated_Source\PSoC4/CyLFClk.c ****     *******************************************************************************/
1272:.\Generated_Source\PSoC4/CyLFClk.c ****     void CySysWdtIsr(void)
1273:.\Generated_Source\PSoC4/CyLFClk.c ****     {
1274:.\Generated_Source\PSoC4/CyLFClk.c ****         if(0u != (CY_SYS_WDT_COUNTER0_INT & CY_SYS_WDT_CONTROL_REG))
1275:.\Generated_Source\PSoC4/CyLFClk.c ****         {
1276:.\Generated_Source\PSoC4/CyLFClk.c ****             if(0u != (CY_SYS_WDT_COUNTER0_INT & wdtIsrMask))
1277:.\Generated_Source\PSoC4/CyLFClk.c ****             {
1278:.\Generated_Source\PSoC4/CyLFClk.c ****                 wdtIsrMask &= ~(disableServicedIsr & CY_SYS_WDT_COUNTER0_INT);
1279:.\Generated_Source\PSoC4/CyLFClk.c ****                 disableServicedIsr  &= ~CY_SYS_WDT_COUNTER0_INT;
1280:.\Generated_Source\PSoC4/CyLFClk.c ****                 if(cySysWdtCallback[CY_SYS_WDT_COUNTER0] != (void *) 0)
1281:.\Generated_Source\PSoC4/CyLFClk.c ****                 {
1282:.\Generated_Source\PSoC4/CyLFClk.c ****                     (void)(cySysWdtCallback[CY_SYS_WDT_COUNTER0])();
ARM GAS  C:\Users\Nick\AppData\Local\Temp\ccPDwdCo.s 			page 29


1283:.\Generated_Source\PSoC4/CyLFClk.c ****                 }
1284:.\Generated_Source\PSoC4/CyLFClk.c ****             }
1285:.\Generated_Source\PSoC4/CyLFClk.c ****             CySysWdtClearInterrupt(CY_SYS_WDT_COUNTER0_INT);
1286:.\Generated_Source\PSoC4/CyLFClk.c ****         }
1287:.\Generated_Source\PSoC4/CyLFClk.c **** 
1288:.\Generated_Source\PSoC4/CyLFClk.c ****         if(0u != (CY_SYS_WDT_COUNTER1_INT & CY_SYS_WDT_CONTROL_REG))
1289:.\Generated_Source\PSoC4/CyLFClk.c ****         {
1290:.\Generated_Source\PSoC4/CyLFClk.c ****             if(0u != (CY_SYS_WDT_COUNTER1_INT & wdtIsrMask))
1291:.\Generated_Source\PSoC4/CyLFClk.c ****             {
1292:.\Generated_Source\PSoC4/CyLFClk.c ****                 wdtIsrMask &= ~(disableServicedIsr & CY_SYS_WDT_COUNTER1_INT);
1293:.\Generated_Source\PSoC4/CyLFClk.c ****                 disableServicedIsr  &= ~CY_SYS_WDT_COUNTER1_INT;
1294:.\Generated_Source\PSoC4/CyLFClk.c ****                 if(cySysWdtCallback[CY_SYS_WDT_COUNTER1] != (void *) 0)
1295:.\Generated_Source\PSoC4/CyLFClk.c ****                 {
1296:.\Generated_Source\PSoC4/CyLFClk.c ****                     (void)(cySysWdtCallback[CY_SYS_WDT_COUNTER1])();
1297:.\Generated_Source\PSoC4/CyLFClk.c ****                 }
1298:.\Generated_Source\PSoC4/CyLFClk.c ****             }
1299:.\Generated_Source\PSoC4/CyLFClk.c ****             CySysWdtClearInterrupt(CY_SYS_WDT_COUNTER1_INT);
1300:.\Generated_Source\PSoC4/CyLFClk.c ****         }
1301:.\Generated_Source\PSoC4/CyLFClk.c **** 
1302:.\Generated_Source\PSoC4/CyLFClk.c ****         if(0u != (CY_SYS_WDT_COUNTER2_INT & CY_SYS_WDT_CONTROL_REG))
1303:.\Generated_Source\PSoC4/CyLFClk.c ****         {
1304:.\Generated_Source\PSoC4/CyLFClk.c ****             if(0u != (CY_SYS_WDT_COUNTER2_INT & wdtIsrMask))
1305:.\Generated_Source\PSoC4/CyLFClk.c ****             {
1306:.\Generated_Source\PSoC4/CyLFClk.c ****                 if(cySysWdtCallback[CY_SYS_WDT_COUNTER2] != (void *) 0)
1307:.\Generated_Source\PSoC4/CyLFClk.c ****                 {
1308:.\Generated_Source\PSoC4/CyLFClk.c ****                     (void)(cySysWdtCallback[CY_SYS_WDT_COUNTER2])();
1309:.\Generated_Source\PSoC4/CyLFClk.c ****                 }
1310:.\Generated_Source\PSoC4/CyLFClk.c ****             }
1311:.\Generated_Source\PSoC4/CyLFClk.c ****             CySysWdtClearInterrupt(CY_SYS_WDT_COUNTER2_INT);
1312:.\Generated_Source\PSoC4/CyLFClk.c ****         }
1313:.\Generated_Source\PSoC4/CyLFClk.c ****     }
1314:.\Generated_Source\PSoC4/CyLFClk.c **** 
1315:.\Generated_Source\PSoC4/CyLFClk.c **** 
1316:.\Generated_Source\PSoC4/CyLFClk.c ****     /*******************************************************************************
1317:.\Generated_Source\PSoC4/CyLFClk.c ****     * Function Name: CySysTimerDelay
1318:.\Generated_Source\PSoC4/CyLFClk.c ****     ********************************************************************************
1319:.\Generated_Source\PSoC4/CyLFClk.c ****     *
1320:.\Generated_Source\PSoC4/CyLFClk.c ****     * Summary:
1321:.\Generated_Source\PSoC4/CyLFClk.c ****     *  The function implements the delay specified in the LFCLK clock ticks. The
1322:.\Generated_Source\PSoC4/CyLFClk.c ****     *  specified WDT counter should be configured as described below and started.
1323:.\Generated_Source\PSoC4/CyLFClk.c ****     *
1324:.\Generated_Source\PSoC4/CyLFClk.c ****     *  This function can operate in two modes: the "WAIT" and "INTERRUPT" modes. In
1325:.\Generated_Source\PSoC4/CyLFClk.c ****     *  the "WAIT" mode, the function waits for the specified number of ticks. In the
1326:.\Generated_Source\PSoC4/CyLFClk.c ****     *  "INTERRUPT" mode, the interrupt is generated after the specified number of
1327:.\Generated_Source\PSoC4/CyLFClk.c ****     *  ticks.
1328:.\Generated_Source\PSoC4/CyLFClk.c ****     *
1329:.\Generated_Source\PSoC4/CyLFClk.c ****     *  For the correct function operation, the "Clear On Match" option should be
1330:.\Generated_Source\PSoC4/CyLFClk.c ****     *  disabled for the specified WDT counter. Use CySysWdtSetClearOnMatch()
1331:.\Generated_Source\PSoC4/CyLFClk.c ****     *  function with the "enable" parameter equal to zero for the used WDT counter.
1332:.\Generated_Source\PSoC4/CyLFClk.c ****     *
1333:.\Generated_Source\PSoC4/CyLFClk.c ****     *  The corresponding WDT counter should be configured to match the selected
1334:.\Generated_Source\PSoC4/CyLFClk.c ****     *  mode: "Free running Timer" for the "WAIT" mode, and
1335:.\Generated_Source\PSoC4/CyLFClk.c ****     *  "Periodic Timer" / "Watchdog (w/Interrupt)" for the "INTERRUPT" mode.
1336:.\Generated_Source\PSoC4/CyLFClk.c ****     *
1337:.\Generated_Source\PSoC4/CyLFClk.c ****     *  This can be configured in two ways:
1338:.\Generated_Source\PSoC4/CyLFClk.c ****     *  - Through the DWR page. Open the "Clocks" tab, click the "Edit Clocks..."
1339:.\Generated_Source\PSoC4/CyLFClk.c ****     *    button, in the "Configure System Clocks" window click on the
ARM GAS  C:\Users\Nick\AppData\Local\Temp\ccPDwdCo.s 			page 30


1340:.\Generated_Source\PSoC4/CyLFClk.c ****     *    "Low Frequency Clocks" tab and choose the appropriate option for the used
1341:.\Generated_Source\PSoC4/CyLFClk.c ****     *    WDT counter.
1342:.\Generated_Source\PSoC4/CyLFClk.c ****     *
1343:.\Generated_Source\PSoC4/CyLFClk.c ****     *  - Through the CySysWdtSetMode() function. Call it with the appropriate mode
1344:.\Generated_Source\PSoC4/CyLFClk.c ****     *    parameter for the used WDT counter.
1345:.\Generated_Source\PSoC4/CyLFClk.c ****     *
1346:.\Generated_Source\PSoC4/CyLFClk.c ****     *  For the "INTERRUPT" mode, the recommended sequence is the following:
1347:.\Generated_Source\PSoC4/CyLFClk.c ****     *  - Call the CySysWdtDisableCounterIsr() function to disable servicing
1348:.\Generated_Source\PSoC4/CyLFClk.c ****     *    interrupts of the specified WDT counter.
1349:.\Generated_Source\PSoC4/CyLFClk.c ****     *
1350:.\Generated_Source\PSoC4/CyLFClk.c ****     *  - Call the CySysWdtSetInterruptCallback() function to register the callback
1351:.\Generated_Source\PSoC4/CyLFClk.c ****     *    function for the corresponding WDT counter.
1352:.\Generated_Source\PSoC4/CyLFClk.c ****     *
1353:.\Generated_Source\PSoC4/CyLFClk.c ****     *  - Call the CySysTimerDelay() function.
1354:.\Generated_Source\PSoC4/CyLFClk.c ****     *
1355:.\Generated_Source\PSoC4/CyLFClk.c ****     * Parameters:
1356:.\Generated_Source\PSoC4/CyLFClk.c ****     *  counterNum: Valid range [0-1]. The number of the WDT counter (WDT0 or WDT1).
1357:.\Generated_Source\PSoC4/CyLFClk.c ****     *  delayType : Defines the operation mode.
1358:.\Generated_Source\PSoC4/CyLFClk.c ****     *               CY_SYS_TIMER_WAIT       "WAIT" mode.
1359:.\Generated_Source\PSoC4/CyLFClk.c ****     *               CY_SYS_TIMER_INTERRUPT  "INTERRUPT" mode.
1360:.\Generated_Source\PSoC4/CyLFClk.c ****     *  delay:  The delay value in the LFCLK ticks (allowable range - 16-bit value).
1361:.\Generated_Source\PSoC4/CyLFClk.c ****     *
1362:.\Generated_Source\PSoC4/CyLFClk.c ****     * Return:
1363:.\Generated_Source\PSoC4/CyLFClk.c ****     *  None
1364:.\Generated_Source\PSoC4/CyLFClk.c ****     *
1365:.\Generated_Source\PSoC4/CyLFClk.c ****     * Side effects:
1366:.\Generated_Source\PSoC4/CyLFClk.c ****     *  In the "INTERRUPT" mode, this function enables ISR callback servicing
1367:.\Generated_Source\PSoC4/CyLFClk.c ****     *  from the corresponding WDT counter. Servicing of this ISR callback will be
1368:.\Generated_Source\PSoC4/CyLFClk.c ****     *  disabled after the expiration of the delay time.
1369:.\Generated_Source\PSoC4/CyLFClk.c ****     *
1370:.\Generated_Source\PSoC4/CyLFClk.c ****     *******************************************************************************/
1371:.\Generated_Source\PSoC4/CyLFClk.c ****     void CySysTimerDelay(uint32 counterNum, cy_sys_timer_delaytype_enum delayType, uint32 delay)
1372:.\Generated_Source\PSoC4/CyLFClk.c ****     {
1373:.\Generated_Source\PSoC4/CyLFClk.c ****         uint32 regValue;
1374:.\Generated_Source\PSoC4/CyLFClk.c ****         uint32 matchValue;
1375:.\Generated_Source\PSoC4/CyLFClk.c **** 
1376:.\Generated_Source\PSoC4/CyLFClk.c ****         if((counterNum < CY_SYS_WDT_COUNTER2) && (0uL == CySysWdtGetClearOnMatch(counterNum)) && (d
1377:.\Generated_Source\PSoC4/CyLFClk.c ****         {
1378:.\Generated_Source\PSoC4/CyLFClk.c ****             regValue   = CySysWdtGetCount(counterNum);
1379:.\Generated_Source\PSoC4/CyLFClk.c ****             matchValue = (regValue + delay) & (uint32)UINT16_MAX_VAL;
1380:.\Generated_Source\PSoC4/CyLFClk.c **** 
1381:.\Generated_Source\PSoC4/CyLFClk.c ****             CySysTimerDelayUntilMatch(counterNum, delayType, matchValue);
1382:.\Generated_Source\PSoC4/CyLFClk.c ****         }
1383:.\Generated_Source\PSoC4/CyLFClk.c ****         else
1384:.\Generated_Source\PSoC4/CyLFClk.c ****         {
1385:.\Generated_Source\PSoC4/CyLFClk.c ****             CYASSERT(0u != 0u);
1386:.\Generated_Source\PSoC4/CyLFClk.c ****         }
1387:.\Generated_Source\PSoC4/CyLFClk.c ****     }
1388:.\Generated_Source\PSoC4/CyLFClk.c **** 
1389:.\Generated_Source\PSoC4/CyLFClk.c **** 
1390:.\Generated_Source\PSoC4/CyLFClk.c ****     /*******************************************************************************
1391:.\Generated_Source\PSoC4/CyLFClk.c ****     * Function Name: CySysTimerDelayUntilMatch
1392:.\Generated_Source\PSoC4/CyLFClk.c ****     ********************************************************************************
1393:.\Generated_Source\PSoC4/CyLFClk.c ****     *
1394:.\Generated_Source\PSoC4/CyLFClk.c ****     * Summary:
1395:.\Generated_Source\PSoC4/CyLFClk.c ****     *  The function implements the delay specified as the number of LFCLK ticks
1396:.\Generated_Source\PSoC4/CyLFClk.c ****     *  between the specified WDT counter's current value and the "match" passed as
ARM GAS  C:\Users\Nick\AppData\Local\Temp\ccPDwdCo.s 			page 31


1397:.\Generated_Source\PSoC4/CyLFClk.c ****     *  the parameter to this function. The current WDT counter value can be obtained
1398:.\Generated_Source\PSoC4/CyLFClk.c ****     *  using the CySysWdtGetCount() function.
1399:.\Generated_Source\PSoC4/CyLFClk.c ****     *
1400:.\Generated_Source\PSoC4/CyLFClk.c ****     *  This function can operate in two modes: the "WAIT" and "INTERRUPT" mode. In
1401:.\Generated_Source\PSoC4/CyLFClk.c ****     *  the "WAIT" mode, the function waits while the used WDT counter value becomes
1402:.\Generated_Source\PSoC4/CyLFClk.c ****     *  equal to the match value. In the "INTERRUPT" mode, the interrupt is generated
1403:.\Generated_Source\PSoC4/CyLFClk.c ****     *  when the used WDT counter became equal to the "match" value.
1404:.\Generated_Source\PSoC4/CyLFClk.c ****     *
1405:.\Generated_Source\PSoC4/CyLFClk.c ****     *  For the correct function operation, the "Clear On Match" option should be
1406:.\Generated_Source\PSoC4/CyLFClk.c ****     *  disabled for the specified WDT counter. Use CySysWdtSetClearOnMatch()
1407:.\Generated_Source\PSoC4/CyLFClk.c ****     *  function with the "enable" parameter equal to zero for the used WDT counter.
1408:.\Generated_Source\PSoC4/CyLFClk.c ****     *
1409:.\Generated_Source\PSoC4/CyLFClk.c ****     *  The corresponding WDT counter should be configured to match the selected mode:
1410:.\Generated_Source\PSoC4/CyLFClk.c ****     *  "Free running Timer" for the "WAIT" mode, and "Periodic Timer" / "Watchdog
1411:.\Generated_Source\PSoC4/CyLFClk.c ****     *  (w/Interrupt)" for the "INTERRUPT" mode.
1412:.\Generated_Source\PSoC4/CyLFClk.c ****     *
1413:.\Generated_Source\PSoC4/CyLFClk.c ****     *  This can be configured in two ways:
1414:.\Generated_Source\PSoC4/CyLFClk.c ****     *  - Through the DWR page. Open the "Clocks" tab, click the "Edit Clocks..."
1415:.\Generated_Source\PSoC4/CyLFClk.c ****     *    button, in the "Configure System Clocks" window click on the
1416:.\Generated_Source\PSoC4/CyLFClk.c ****     *    "Low Frequency Clocks" tab and choose the appropriate option for the used
1417:.\Generated_Source\PSoC4/CyLFClk.c ****     *    WDT counter.
1418:.\Generated_Source\PSoC4/CyLFClk.c ****     *
1419:.\Generated_Source\PSoC4/CyLFClk.c ****     *  - Through the CySysWdtSetMode() function. Call it with the appropriate "mode"
1420:.\Generated_Source\PSoC4/CyLFClk.c ****     *    parameter for the used WDT counter.
1421:.\Generated_Source\PSoC4/CyLFClk.c ****     *
1422:.\Generated_Source\PSoC4/CyLFClk.c ****     *  For the "INTERRUPT" mode, the recommended sequence is the following:
1423:.\Generated_Source\PSoC4/CyLFClk.c ****     *  - Call the CySysWdtDisableCounterIsr() function to disable servicing
1424:.\Generated_Source\PSoC4/CyLFClk.c ****     *    interrupts of the specified WDT counter.
1425:.\Generated_Source\PSoC4/CyLFClk.c ****     *
1426:.\Generated_Source\PSoC4/CyLFClk.c ****     *  - Call the CySysWdtSetInterruptCallback() function to register the callback
1427:.\Generated_Source\PSoC4/CyLFClk.c ****     *    function for the corresponding WDT counter.
1428:.\Generated_Source\PSoC4/CyLFClk.c ****     *
1429:.\Generated_Source\PSoC4/CyLFClk.c ****     *  - Call the CySysTimerDelay() function.
1430:.\Generated_Source\PSoC4/CyLFClk.c ****     *
1431:.\Generated_Source\PSoC4/CyLFClk.c ****     * Parameters:
1432:.\Generated_Source\PSoC4/CyLFClk.c ****     *  counterNum: Valid range [0-1]. The number of the WDT counter (WDT0 or WDT1).
1433:.\Generated_Source\PSoC4/CyLFClk.c ****     *  delayType : Defines the operation mode.
1434:.\Generated_Source\PSoC4/CyLFClk.c ****     *               CY_SYS_TIMER_WAIT       "WAIT" mode.
1435:.\Generated_Source\PSoC4/CyLFClk.c ****     *               CY_SYS_TIMER_INTERRUPT  "INTERRUPT" mode.
1436:.\Generated_Source\PSoC4/CyLFClk.c ****     *  delay:  The delay value in the LFCLK ticks (allowable range - 16-bit value).
1437:.\Generated_Source\PSoC4/CyLFClk.c ****     *
1438:.\Generated_Source\PSoC4/CyLFClk.c ****     * Return:
1439:.\Generated_Source\PSoC4/CyLFClk.c ****     *  None
1440:.\Generated_Source\PSoC4/CyLFClk.c ****     *
1441:.\Generated_Source\PSoC4/CyLFClk.c ****     * Side effects:
1442:.\Generated_Source\PSoC4/CyLFClk.c ****     *  In the "INTERRUPT" mode, this function enables ISR callback servicing
1443:.\Generated_Source\PSoC4/CyLFClk.c ****     *  from the corresponding WDT counter. Servicing of this ISR callback will be
1444:.\Generated_Source\PSoC4/CyLFClk.c ****     *  disabled after the expiration of the delay time.
1445:.\Generated_Source\PSoC4/CyLFClk.c ****     *
1446:.\Generated_Source\PSoC4/CyLFClk.c ****     *******************************************************************************/
1447:.\Generated_Source\PSoC4/CyLFClk.c ****     void CySysTimerDelayUntilMatch(uint32 counterNum, cy_sys_timer_delaytype_enum delayType, uint32
1448:.\Generated_Source\PSoC4/CyLFClk.c ****     {
1449:.\Generated_Source\PSoC4/CyLFClk.c ****         uint32 tmpValue;
1450:.\Generated_Source\PSoC4/CyLFClk.c **** 
1451:.\Generated_Source\PSoC4/CyLFClk.c ****         if((counterNum < CY_SYS_WDT_COUNTER2) && (0uL == CySysWdtGetClearOnMatch(counterNum)) && (m
1452:.\Generated_Source\PSoC4/CyLFClk.c ****         {
1453:.\Generated_Source\PSoC4/CyLFClk.c ****             if(delayType == CY_SYS_TIMER_WAIT)
ARM GAS  C:\Users\Nick\AppData\Local\Temp\ccPDwdCo.s 			page 32


1454:.\Generated_Source\PSoC4/CyLFClk.c ****             {
1455:.\Generated_Source\PSoC4/CyLFClk.c ****                 do
1456:.\Generated_Source\PSoC4/CyLFClk.c ****                 {
1457:.\Generated_Source\PSoC4/CyLFClk.c ****                     tmpValue = CySysWdtGetCount(counterNum);
1458:.\Generated_Source\PSoC4/CyLFClk.c ****                 }while(tmpValue > match);
1459:.\Generated_Source\PSoC4/CyLFClk.c **** 
1460:.\Generated_Source\PSoC4/CyLFClk.c ****                 do
1461:.\Generated_Source\PSoC4/CyLFClk.c ****                 {
1462:.\Generated_Source\PSoC4/CyLFClk.c ****                     tmpValue = CySysWdtGetCount(counterNum);
1463:.\Generated_Source\PSoC4/CyLFClk.c ****                 }while(tmpValue < match);
1464:.\Generated_Source\PSoC4/CyLFClk.c ****             }
1465:.\Generated_Source\PSoC4/CyLFClk.c ****             else
1466:.\Generated_Source\PSoC4/CyLFClk.c ****             {
1467:.\Generated_Source\PSoC4/CyLFClk.c ****                 tmpValue = counterIntMaskTbl[counterNum];
1468:.\Generated_Source\PSoC4/CyLFClk.c ****                 CySysWdtSetMatch(counterNum, match);
1469:.\Generated_Source\PSoC4/CyLFClk.c **** 
1470:.\Generated_Source\PSoC4/CyLFClk.c ****                 disableServicedIsr  |= tmpValue;
1471:.\Generated_Source\PSoC4/CyLFClk.c ****                 wdtIsrMask |= tmpValue;
1472:.\Generated_Source\PSoC4/CyLFClk.c ****             }
1473:.\Generated_Source\PSoC4/CyLFClk.c ****         }
1474:.\Generated_Source\PSoC4/CyLFClk.c ****         else
1475:.\Generated_Source\PSoC4/CyLFClk.c ****         {
1476:.\Generated_Source\PSoC4/CyLFClk.c ****             CYASSERT(0u != 0u);
1477:.\Generated_Source\PSoC4/CyLFClk.c ****         }
1478:.\Generated_Source\PSoC4/CyLFClk.c ****     }
1479:.\Generated_Source\PSoC4/CyLFClk.c **** 
1480:.\Generated_Source\PSoC4/CyLFClk.c **** 
1481:.\Generated_Source\PSoC4/CyLFClk.c ****     /*******************************************************************************
1482:.\Generated_Source\PSoC4/CyLFClk.c ****     * Function Name: CySysWatchdogFeed
1483:.\Generated_Source\PSoC4/CyLFClk.c ****     ********************************************************************************
1484:.\Generated_Source\PSoC4/CyLFClk.c ****     *
1485:.\Generated_Source\PSoC4/CyLFClk.c ****     * Summary:
1486:.\Generated_Source\PSoC4/CyLFClk.c ****     *  Feeds the watchdog counter before it causes the device reset. Supported only
1487:.\Generated_Source\PSoC4/CyLFClk.c ****     *  for WDT0 and WDT1 in the "Watchdog" or "Watchdog w/ Interrupts" modes.
1488:.\Generated_Source\PSoC4/CyLFClk.c ****     *
1489:.\Generated_Source\PSoC4/CyLFClk.c ****     * Parameters:
1490:.\Generated_Source\PSoC4/CyLFClk.c ****     *  counterNum:    The number of the WDT counter.
1491:.\Generated_Source\PSoC4/CyLFClk.c ****     *
1492:.\Generated_Source\PSoC4/CyLFClk.c ****     * Return:
1493:.\Generated_Source\PSoC4/CyLFClk.c ****     *  None.
1494:.\Generated_Source\PSoC4/CyLFClk.c ****     *
1495:.\Generated_Source\PSoC4/CyLFClk.c ****     * Side effects:
1496:.\Generated_Source\PSoC4/CyLFClk.c ****     *  Clears the WDT counter in the "Watchdog" mode or clears the WDT interrupt in
1497:.\Generated_Source\PSoC4/CyLFClk.c ****     *  "Watchdog w/ Interrupts" mode. Does nothing in other modes.
1498:.\Generated_Source\PSoC4/CyLFClk.c ****     *
1499:.\Generated_Source\PSoC4/CyLFClk.c ****     *******************************************************************************/
1500:.\Generated_Source\PSoC4/CyLFClk.c ****     void CySysWatchdogFeed(uint32 counterNum)
1501:.\Generated_Source\PSoC4/CyLFClk.c ****     {
1502:.\Generated_Source\PSoC4/CyLFClk.c ****         if(counterNum == CY_SYS_WDT_COUNTER0)
1503:.\Generated_Source\PSoC4/CyLFClk.c ****         {
1504:.\Generated_Source\PSoC4/CyLFClk.c ****             if(CY_SYS_WDT_MODE_INT_RESET == CySysWdtGetMode(counterNum))
1505:.\Generated_Source\PSoC4/CyLFClk.c ****             {
1506:.\Generated_Source\PSoC4/CyLFClk.c ****                 CySysWdtClearInterrupt(CY_SYS_WDT_COUNTER0_MASK);
1507:.\Generated_Source\PSoC4/CyLFClk.c ****             }
1508:.\Generated_Source\PSoC4/CyLFClk.c ****             else if(CY_SYS_WDT_MODE_RESET == CySysWdtGetMode(counterNum))
1509:.\Generated_Source\PSoC4/CyLFClk.c ****             {
1510:.\Generated_Source\PSoC4/CyLFClk.c ****                 CySysWdtResetCounters(CY_SYS_WDT_COUNTER0_RESET);
ARM GAS  C:\Users\Nick\AppData\Local\Temp\ccPDwdCo.s 			page 33


1511:.\Generated_Source\PSoC4/CyLFClk.c ****                 CySysWdtClearInterrupt(CY_SYS_WDT_COUNTER0_MASK);
1512:.\Generated_Source\PSoC4/CyLFClk.c ****             }
1513:.\Generated_Source\PSoC4/CyLFClk.c ****             else
1514:.\Generated_Source\PSoC4/CyLFClk.c ****             {
1515:.\Generated_Source\PSoC4/CyLFClk.c ****                 /* Do nothing. */
1516:.\Generated_Source\PSoC4/CyLFClk.c ****             }
1517:.\Generated_Source\PSoC4/CyLFClk.c ****         }
1518:.\Generated_Source\PSoC4/CyLFClk.c ****         else if(counterNum == CY_SYS_WDT_COUNTER1)
1519:.\Generated_Source\PSoC4/CyLFClk.c ****         {
1520:.\Generated_Source\PSoC4/CyLFClk.c ****             if(CY_SYS_WDT_MODE_INT_RESET == CySysWdtGetMode(counterNum))
1521:.\Generated_Source\PSoC4/CyLFClk.c ****             {
1522:.\Generated_Source\PSoC4/CyLFClk.c ****                 CySysWdtClearInterrupt(CY_SYS_WDT_COUNTER1_MASK);
1523:.\Generated_Source\PSoC4/CyLFClk.c ****             }
1524:.\Generated_Source\PSoC4/CyLFClk.c ****             else if(CY_SYS_WDT_MODE_RESET == CySysWdtGetMode(counterNum))
1525:.\Generated_Source\PSoC4/CyLFClk.c ****             {
1526:.\Generated_Source\PSoC4/CyLFClk.c ****                 CySysWdtResetCounters(CY_SYS_WDT_COUNTER1_RESET);
1527:.\Generated_Source\PSoC4/CyLFClk.c ****                 CySysWdtClearInterrupt(CY_SYS_WDT_COUNTER1_MASK);
1528:.\Generated_Source\PSoC4/CyLFClk.c ****             }
1529:.\Generated_Source\PSoC4/CyLFClk.c ****             else
1530:.\Generated_Source\PSoC4/CyLFClk.c ****             {
1531:.\Generated_Source\PSoC4/CyLFClk.c ****                 /* Do nothing. */
1532:.\Generated_Source\PSoC4/CyLFClk.c ****             }
1533:.\Generated_Source\PSoC4/CyLFClk.c ****         }
1534:.\Generated_Source\PSoC4/CyLFClk.c ****         else
1535:.\Generated_Source\PSoC4/CyLFClk.c ****         {
1536:.\Generated_Source\PSoC4/CyLFClk.c ****             /* Do nothing. */
1537:.\Generated_Source\PSoC4/CyLFClk.c ****         }
1538:.\Generated_Source\PSoC4/CyLFClk.c ****     }
1539:.\Generated_Source\PSoC4/CyLFClk.c **** 
1540:.\Generated_Source\PSoC4/CyLFClk.c **** 
1541:.\Generated_Source\PSoC4/CyLFClk.c ****     /*******************************************************************************
1542:.\Generated_Source\PSoC4/CyLFClk.c ****     * Function Name: CySysClkLfclkPosedgeCatch
1543:.\Generated_Source\PSoC4/CyLFClk.c ****     ********************************************************************************
1544:.\Generated_Source\PSoC4/CyLFClk.c ****     *
1545:.\Generated_Source\PSoC4/CyLFClk.c ****     * Summary:
1546:.\Generated_Source\PSoC4/CyLFClk.c ****     *  Returns once the LFCLK positive edge occurred.
1547:.\Generated_Source\PSoC4/CyLFClk.c ****     *
1548:.\Generated_Source\PSoC4/CyLFClk.c ****     *  CySysClkLfclkPosedgeRestore() should be called after this function
1549:.\Generated_Source\PSoC4/CyLFClk.c ****     *  to restore the WDT configuration.
1550:.\Generated_Source\PSoC4/CyLFClk.c ****     *
1551:.\Generated_Source\PSoC4/CyLFClk.c ****     *  A pair of the CySysClkLfclkPosedgeCatch() and CySysClkLfclkPosedgeRestore()
1552:.\Generated_Source\PSoC4/CyLFClk.c ****     *  functions is expected to be called inside a critical section.
1553:.\Generated_Source\PSoC4/CyLFClk.c ****     *
1554:.\Generated_Source\PSoC4/CyLFClk.c ****     *  To ensure that the WDT counter value is read until it changes, the enabled
1555:.\Generated_Source\PSoC4/CyLFClk.c ****     *  WDT counter is used. If no counter is enabled, counter 0 is enabled.
1556:.\Generated_Source\PSoC4/CyLFClk.c ****     *  And after the LFCLK source is switched, the counter 0 configuration
1557:.\Generated_Source\PSoC4/CyLFClk.c ****     *  is restored.
1558:.\Generated_Source\PSoC4/CyLFClk.c ****     *
1559:.\Generated_Source\PSoC4/CyLFClk.c ****     *  Not applicable for the PSoC 4000 devices.
1560:.\Generated_Source\PSoC4/CyLFClk.c ****     *
1561:.\Generated_Source\PSoC4/CyLFClk.c ****     * Parameters:
1562:.\Generated_Source\PSoC4/CyLFClk.c ****     *  None.
1563:.\Generated_Source\PSoC4/CyLFClk.c ****     *
1564:.\Generated_Source\PSoC4/CyLFClk.c ****     * Return:
1565:.\Generated_Source\PSoC4/CyLFClk.c ****     *  None.
1566:.\Generated_Source\PSoC4/CyLFClk.c ****     *
1567:.\Generated_Source\PSoC4/CyLFClk.c ****     * Side Effects:
ARM GAS  C:\Users\Nick\AppData\Local\Temp\ccPDwdCo.s 			page 34


1568:.\Generated_Source\PSoC4/CyLFClk.c ****     *  This function has no effect if WDT is locked (CySysWdtLock() is
1569:.\Generated_Source\PSoC4/CyLFClk.c ****     *  called). Call CySysWdtUnlock() to unlock WDT.
1570:.\Generated_Source\PSoC4/CyLFClk.c ****     *
1571:.\Generated_Source\PSoC4/CyLFClk.c ****     *******************************************************************************/
1572:.\Generated_Source\PSoC4/CyLFClk.c ****     static void CySysClkLfclkPosedgeCatch(void)
1573:.\Generated_Source\PSoC4/CyLFClk.c ****     {
1574:.\Generated_Source\PSoC4/CyLFClk.c ****         uint32 firstCount;
1575:.\Generated_Source\PSoC4/CyLFClk.c ****         static uint32 lfclkPosedgeEnabledWdtCounter = 0u;
1576:.\Generated_Source\PSoC4/CyLFClk.c **** 
1577:.\Generated_Source\PSoC4/CyLFClk.c ****         if (0u != CySysWdtGetEnabledStatus(CY_SYS_WDT_COUNTER0))
1578:.\Generated_Source\PSoC4/CyLFClk.c ****         {
1579:.\Generated_Source\PSoC4/CyLFClk.c ****             lfclkPosedgeEnabledWdtCounter = CY_SYS_WDT_COUNTER0;
1580:.\Generated_Source\PSoC4/CyLFClk.c ****         }
1581:.\Generated_Source\PSoC4/CyLFClk.c ****         else if (0u != CySysWdtGetEnabledStatus(CY_SYS_WDT_COUNTER1))
1582:.\Generated_Source\PSoC4/CyLFClk.c ****         {
1583:.\Generated_Source\PSoC4/CyLFClk.c ****             lfclkPosedgeEnabledWdtCounter = CY_SYS_WDT_COUNTER1;
1584:.\Generated_Source\PSoC4/CyLFClk.c ****         }
1585:.\Generated_Source\PSoC4/CyLFClk.c ****         else if (0u != CySysWdtGetEnabledStatus(CY_SYS_WDT_COUNTER2))
1586:.\Generated_Source\PSoC4/CyLFClk.c ****         {
1587:.\Generated_Source\PSoC4/CyLFClk.c ****             lfclkPosedgeEnabledWdtCounter = CY_SYS_WDT_COUNTER2;
1588:.\Generated_Source\PSoC4/CyLFClk.c ****         }
1589:.\Generated_Source\PSoC4/CyLFClk.c ****         else /* All WDT counters are disabled */
1590:.\Generated_Source\PSoC4/CyLFClk.c ****         {
1591:.\Generated_Source\PSoC4/CyLFClk.c ****             /* Configure WDT counter # 0 */
1592:.\Generated_Source\PSoC4/CyLFClk.c ****             lfclkPosedgeWdtCounter0Enabled = 1u;
1593:.\Generated_Source\PSoC4/CyLFClk.c ****             lfclkPosedgeEnabledWdtCounter = CY_SYS_WDT_COUNTER0;
1594:.\Generated_Source\PSoC4/CyLFClk.c **** 
1595:.\Generated_Source\PSoC4/CyLFClk.c ****             lfclkPosedgeWdtCounter0Mode = CySysWdtGetMode(CY_SYS_WDT_COUNTER0);
1596:.\Generated_Source\PSoC4/CyLFClk.c ****             CySysWdtSetMode(CY_SYS_WDT_COUNTER0, CY_SYS_WDT_MODE_NONE);
1597:.\Generated_Source\PSoC4/CyLFClk.c ****             CySysWdtEnable(CY_SYS_WDT_COUNTER0_MASK);
1598:.\Generated_Source\PSoC4/CyLFClk.c ****         }
1599:.\Generated_Source\PSoC4/CyLFClk.c **** 
1600:.\Generated_Source\PSoC4/CyLFClk.c ****         firstCount = CySysWdtGetCount(lfclkPosedgeEnabledWdtCounter);
1601:.\Generated_Source\PSoC4/CyLFClk.c ****         while (CySysWdtGetCount(lfclkPosedgeEnabledWdtCounter) == firstCount)
1602:.\Generated_Source\PSoC4/CyLFClk.c ****         {
1603:.\Generated_Source\PSoC4/CyLFClk.c ****             /* Wait for counter to increment */
1604:.\Generated_Source\PSoC4/CyLFClk.c ****         }
1605:.\Generated_Source\PSoC4/CyLFClk.c ****     }
1606:.\Generated_Source\PSoC4/CyLFClk.c **** 
1607:.\Generated_Source\PSoC4/CyLFClk.c **** 
1608:.\Generated_Source\PSoC4/CyLFClk.c ****     /*******************************************************************************
1609:.\Generated_Source\PSoC4/CyLFClk.c ****     * Function Name: CySysClkLfclkPosedgeRestore
1610:.\Generated_Source\PSoC4/CyLFClk.c ****     ********************************************************************************
1611:.\Generated_Source\PSoC4/CyLFClk.c ****     *
1612:.\Generated_Source\PSoC4/CyLFClk.c ****     * Summary:
1613:.\Generated_Source\PSoC4/CyLFClk.c ****     *  Restores the WDT configuration after a CySysClkLfclkPosedgeCatch() call.
1614:.\Generated_Source\PSoC4/CyLFClk.c ****     *
1615:.\Generated_Source\PSoC4/CyLFClk.c ****     *  A pair of the CySysClkLfclkPosedgeCatch() and CySysClkLfclkPosedgeRestore()
1616:.\Generated_Source\PSoC4/CyLFClk.c ****     *  functions is expected to be called inside a critical section.
1617:.\Generated_Source\PSoC4/CyLFClk.c ****     *
1618:.\Generated_Source\PSoC4/CyLFClk.c ****     *  Not applicable for the PSoC 4000 devices.
1619:.\Generated_Source\PSoC4/CyLFClk.c ****     *
1620:.\Generated_Source\PSoC4/CyLFClk.c ****     * Parameters:
1621:.\Generated_Source\PSoC4/CyLFClk.c ****     *  None.
1622:.\Generated_Source\PSoC4/CyLFClk.c ****     *
1623:.\Generated_Source\PSoC4/CyLFClk.c ****     * Return:
1624:.\Generated_Source\PSoC4/CyLFClk.c ****     *  None.
ARM GAS  C:\Users\Nick\AppData\Local\Temp\ccPDwdCo.s 			page 35


1625:.\Generated_Source\PSoC4/CyLFClk.c ****     *
1626:.\Generated_Source\PSoC4/CyLFClk.c ****     * Side Effects:
1627:.\Generated_Source\PSoC4/CyLFClk.c ****     *  This function has no effect if WDT is locked (CySysWdtLock() is
1628:.\Generated_Source\PSoC4/CyLFClk.c ****     *  called). Call CySysWdtUnlock() to unlock WDT.
1629:.\Generated_Source\PSoC4/CyLFClk.c ****     *
1630:.\Generated_Source\PSoC4/CyLFClk.c ****     *******************************************************************************/
1631:.\Generated_Source\PSoC4/CyLFClk.c ****     static void CySysClkLfclkPosedgeRestore(void)
1632:.\Generated_Source\PSoC4/CyLFClk.c ****     {
 306              		.loc 1 1632 0
 307              		.cfi_startproc
 308 0000 10B5     		push	{r4, lr}
 309              		.cfi_def_cfa_offset 8
 310              		.cfi_offset 4, -8
 311              		.cfi_offset 14, -4
1633:.\Generated_Source\PSoC4/CyLFClk.c ****         if (lfclkPosedgeWdtCounter0Enabled != 0u)
 312              		.loc 1 1633 0
 313 0002 084B     		ldr	r3, .L30
 314 0004 1B68     		ldr	r3, [r3]
 315 0006 002B     		cmp	r3, #0
 316 0008 0BD0     		beq	.L28
1634:.\Generated_Source\PSoC4/CyLFClk.c ****         {
1635:.\Generated_Source\PSoC4/CyLFClk.c ****             /* Restore counter # 0 configuration and force its shutdown */
1636:.\Generated_Source\PSoC4/CyLFClk.c ****             CY_SYS_WDT_CONTROL_REG &= (uint32)(~CY_SYS_WDT_COUNTER0_MASK);
 317              		.loc 1 1636 0
 318 000a 074A     		ldr	r2, .L30+4
 319 000c 1368     		ldr	r3, [r2]
 320 000e 0121     		mov	r1, #1
 321 0010 8B43     		bic	r3, r1
 322 0012 1360     		str	r3, [r2]
1637:.\Generated_Source\PSoC4/CyLFClk.c ****             CySysWdtSetMode(CY_SYS_WDT_COUNTER0, lfclkPosedgeWdtCounter0Mode);
 323              		.loc 1 1637 0
 324 0014 034C     		ldr	r4, .L30
 325 0016 0020     		mov	r0, #0
 326 0018 6168     		ldr	r1, [r4, #4]
 327 001a FFF7FEFF 		bl	CySysWdtSetMode
 328              	.LVL17:
1638:.\Generated_Source\PSoC4/CyLFClk.c ****             lfclkPosedgeWdtCounter0Enabled = 0u;
 329              		.loc 1 1638 0
 330 001e 0023     		mov	r3, #0
 331 0020 2360     		str	r3, [r4]
 332              	.L28:
1639:.\Generated_Source\PSoC4/CyLFClk.c ****         }
1640:.\Generated_Source\PSoC4/CyLFClk.c ****     }
 333              		.loc 1 1640 0
 334              		@ sp needed
 335 0022 10BD     		pop	{r4, pc}
 336              	.L31:
 337              		.align	2
 338              	.L30:
 339 0024 00000000 		.word	.LANCHOR0
 340 0028 10020B40 		.word	1074463248
 341              		.cfi_endproc
 342              	.LFE32:
 343              		.size	CySysClkLfclkPosedgeRestore, .-CySysClkLfclkPosedgeRestore
 344              		.section	.text.CySysWdtGetMode,"ax",%progbits
 345              		.align	2
 346              		.global	CySysWdtGetMode
ARM GAS  C:\Users\Nick\AppData\Local\Temp\ccPDwdCo.s 			page 36


 347              		.code	16
 348              		.thumb_func
 349              		.type	CySysWdtGetMode, %function
 350              	CySysWdtGetMode:
 351              	.LFB8:
 561:.\Generated_Source\PSoC4/CyLFClk.c ****         return ((CY_SYS_WDT_CONFIG_REG >> (counterNum * CY_SYS_WDT_CNT_SHIFT)) & CY_SYS_WDT_MODE_MA
 352              		.loc 1 561 0
 353              		.cfi_startproc
 354              	.LVL18:
 562:.\Generated_Source\PSoC4/CyLFClk.c ****     }
 355              		.loc 1 562 0
 356 0000 034B     		ldr	r3, .L33
 357 0002 1B68     		ldr	r3, [r3]
 358 0004 C000     		lsl	r0, r0, #3
 359              	.LVL19:
 360 0006 C340     		lsr	r3, r3, r0
 361 0008 181C     		mov	r0, r3
 362 000a 0323     		mov	r3, #3
 363 000c 1840     		and	r0, r3
 563:.\Generated_Source\PSoC4/CyLFClk.c **** 
 364              		.loc 1 563 0
 365              		@ sp needed
 366 000e 7047     		bx	lr
 367              	.L34:
 368              		.align	2
 369              	.L33:
 370 0010 0C020B40 		.word	1074463244
 371              		.cfi_endproc
 372              	.LFE8:
 373              		.size	CySysWdtGetMode, .-CySysWdtGetMode
 374              		.section	.text.CySysWdtSetClearOnMatch,"ax",%progbits
 375              		.align	2
 376              		.global	CySysWdtSetClearOnMatch
 377              		.code	16
 378              		.thumb_func
 379              		.type	CySysWdtSetClearOnMatch, %function
 380              	CySysWdtSetClearOnMatch:
 381              	.LFB9:
 594:.\Generated_Source\PSoC4/CyLFClk.c ****         uint32 configRegValue;
 382              		.loc 1 594 0
 383              		.cfi_startproc
 384              	.LVL20:
 385 0000 38B5     		push	{r3, r4, r5, lr}
 386              		.cfi_def_cfa_offset 16
 387              		.cfi_offset 3, -16
 388              		.cfi_offset 4, -12
 389              		.cfi_offset 5, -8
 390              		.cfi_offset 14, -4
 391 0002 041C     		mov	r4, r0
 392 0004 0D1C     		mov	r5, r1
 597:.\Generated_Source\PSoC4/CyLFClk.c ****                  (counterNum == CY_SYS_WDT_COUNTER1));
 393              		.loc 1 597 0
 394 0006 0128     		cmp	r0, #1
 395 0008 02D9     		bls	.L36
 597:.\Generated_Source\PSoC4/CyLFClk.c ****                  (counterNum == CY_SYS_WDT_COUNTER1));
 396              		.loc 1 597 0 is_stmt 0 discriminator 1
 397 000a 0020     		mov	r0, #0
ARM GAS  C:\Users\Nick\AppData\Local\Temp\ccPDwdCo.s 			page 37


 398              	.LVL21:
 399 000c FFF7FEFF 		bl	CyHalt
 400              	.LVL22:
 401              	.L36:
 600:.\Generated_Source\PSoC4/CyLFClk.c ****         {
 402              		.loc 1 600 0 is_stmt 1
 403 0010 201C     		mov	r0, r4
 404 0012 FFF7FEFF 		bl	CySysWdtGetEnabledStatus
 405              	.LVL23:
 406 0016 0028     		cmp	r0, #0
 407 0018 0AD1     		bne	.L35
 602:.\Generated_Source\PSoC4/CyLFClk.c ****                 (uint32)~((uint32)((uint32)1u << ((counterNum * CY_SYS_WDT_CNT_SHIFT) + CY_SYS_WDT_
 408              		.loc 1 602 0
 409 001a 0649     		ldr	r1, .L38
 410 001c 0B68     		ldr	r3, [r1]
 603:.\Generated_Source\PSoC4/CyLFClk.c **** 
 411              		.loc 1 603 0
 412 001e E400     		lsl	r4, r4, #3
 413              	.LVL24:
 414 0020 0234     		add	r4, r4, #2
 415 0022 0122     		mov	r2, #1
 416 0024 A240     		lsl	r2, r2, r4
 602:.\Generated_Source\PSoC4/CyLFClk.c ****                 (uint32)~((uint32)((uint32)1u << ((counterNum * CY_SYS_WDT_CNT_SHIFT) + CY_SYS_WDT_
 417              		.loc 1 602 0
 418 0026 9343     		bic	r3, r2
 419              	.LVL25:
 606:.\Generated_Source\PSoC4/CyLFClk.c **** 
 420              		.loc 1 606 0
 421 0028 A540     		lsl	r5, r5, r4
 422              	.LVL26:
 423 002a 2C1C     		mov	r4, r5
 424 002c 1C43     		orr	r4, r3
 425              	.LVL27:
 608:.\Generated_Source\PSoC4/CyLFClk.c ****         }
 426              		.loc 1 608 0
 427 002e 0C60     		str	r4, [r1]
 428              	.LVL28:
 429              	.L35:
 610:.\Generated_Source\PSoC4/CyLFClk.c **** 
 430              		.loc 1 610 0
 431              		@ sp needed
 432 0030 38BD     		pop	{r3, r4, r5, pc}
 433              	.L39:
 434 0032 C046     		.align	2
 435              	.L38:
 436 0034 0C020B40 		.word	1074463244
 437              		.cfi_endproc
 438              	.LFE9:
 439              		.size	CySysWdtSetClearOnMatch, .-CySysWdtSetClearOnMatch
 440              		.section	.text.CySysWdtGetClearOnMatch,"ax",%progbits
 441              		.align	2
 442              		.global	CySysWdtGetClearOnMatch
 443              		.code	16
 444              		.thumb_func
 445              		.type	CySysWdtGetClearOnMatch, %function
 446              	CySysWdtGetClearOnMatch:
 447              	.LFB10:
ARM GAS  C:\Users\Nick\AppData\Local\Temp\ccPDwdCo.s 			page 38


 629:.\Generated_Source\PSoC4/CyLFClk.c ****         CYASSERT((counterNum == CY_SYS_WDT_COUNTER0) ||
 448              		.loc 1 629 0
 449              		.cfi_startproc
 450              	.LVL29:
 451 0000 10B5     		push	{r4, lr}
 452              		.cfi_def_cfa_offset 8
 453              		.cfi_offset 4, -8
 454              		.cfi_offset 14, -4
 455 0002 041E     		sub	r4, r0, #0
 630:.\Generated_Source\PSoC4/CyLFClk.c ****                  (counterNum == CY_SYS_WDT_COUNTER1));
 456              		.loc 1 630 0
 457 0004 012C     		cmp	r4, #1
 458 0006 02D9     		bls	.L41
 630:.\Generated_Source\PSoC4/CyLFClk.c ****                  (counterNum == CY_SYS_WDT_COUNTER1));
 459              		.loc 1 630 0 is_stmt 0 discriminator 1
 460 0008 0020     		mov	r0, #0
 461              	.LVL30:
 462 000a FFF7FEFF 		bl	CyHalt
 463              	.LVL31:
 464              	.L41:
 633:.\Generated_Source\PSoC4/CyLFClk.c ****                         ((counterNum * CY_SYS_WDT_CNT_SHIFT) + CY_SYS_WDT_CNT_MATCH_CLR_SHIFT)) & 0
 465              		.loc 1 633 0 is_stmt 1
 466 000e 044B     		ldr	r3, .L42
 467 0010 1868     		ldr	r0, [r3]
 634:.\Generated_Source\PSoC4/CyLFClk.c ****     }
 468              		.loc 1 634 0
 469 0012 E400     		lsl	r4, r4, #3
 470              	.LVL32:
 471 0014 0234     		add	r4, r4, #2
 633:.\Generated_Source\PSoC4/CyLFClk.c ****                         ((counterNum * CY_SYS_WDT_CNT_SHIFT) + CY_SYS_WDT_CNT_MATCH_CLR_SHIFT)) & 0
 472              		.loc 1 633 0
 473 0016 E040     		lsr	r0, r0, r4
 474 0018 041C     		mov	r4, r0
 475 001a 0120     		mov	r0, #1
 476 001c 2040     		and	r0, r4
 635:.\Generated_Source\PSoC4/CyLFClk.c **** 
 477              		.loc 1 635 0
 478              		@ sp needed
 479 001e 10BD     		pop	{r4, pc}
 480              	.L43:
 481              		.align	2
 482              	.L42:
 483 0020 0C020B40 		.word	1074463244
 484              		.cfi_endproc
 485              	.LFE10:
 486              		.size	CySysWdtGetClearOnMatch, .-CySysWdtGetClearOnMatch
 487              		.section	.text.CySysWdtEnable,"ax",%progbits
 488              		.align	2
 489              		.global	CySysWdtEnable
 490              		.code	16
 491              		.thumb_func
 492              		.type	CySysWdtEnable, %function
 493              	CySysWdtEnable:
 494              	.LFB11:
 675:.\Generated_Source\PSoC4/CyLFClk.c ****         #if (!CY_IP_WCO)
 495              		.loc 1 675 0
 496              		.cfi_startproc
ARM GAS  C:\Users\Nick\AppData\Local\Temp\ccPDwdCo.s 			page 39


 497              	.LVL33:
 498 0000 10B5     		push	{r4, lr}
 499              		.cfi_def_cfa_offset 8
 500              		.cfi_offset 4, -8
 501              		.cfi_offset 14, -4
 502 0002 041C     		mov	r4, r0
 677:.\Generated_Source\PSoC4/CyLFClk.c ****         #endif /* (!CY_IP_WCO) */
 503              		.loc 1 677 0
 504 0004 FFF7FEFF 		bl	CySysClkIloStart
 505              	.LVL34:
 680:.\Generated_Source\PSoC4/CyLFClk.c **** 
 506              		.loc 1 680 0
 507 0008 0C4A     		ldr	r2, .L51
 508 000a 1368     		ldr	r3, [r2]
 509 000c 2343     		orr	r3, r4
 510 000e 1360     		str	r3, [r2]
 682:.\Generated_Source\PSoC4/CyLFClk.c ****         {
 511              		.loc 1 682 0
 512 0010 E307     		lsl	r3, r4, #31
 513 0012 04D5     		bpl	.L45
 514              	.L46:
 684:.\Generated_Source\PSoC4/CyLFClk.c ****             {
 515              		.loc 1 684 0 discriminator 1
 516 0014 0020     		mov	r0, #0
 517 0016 FFF7FEFF 		bl	CySysWdtGetEnabledStatus
 518              	.LVL35:
 519 001a 0028     		cmp	r0, #0
 520 001c FAD0     		beq	.L46
 521              	.L45:
 690:.\Generated_Source\PSoC4/CyLFClk.c ****         {
 522              		.loc 1 690 0
 523 001e E305     		lsl	r3, r4, #23
 524 0020 04D5     		bpl	.L47
 525              	.L48:
 692:.\Generated_Source\PSoC4/CyLFClk.c ****             {
 526              		.loc 1 692 0 discriminator 1
 527 0022 0120     		mov	r0, #1
 528 0024 FFF7FEFF 		bl	CySysWdtGetEnabledStatus
 529              	.LVL36:
 530 0028 0028     		cmp	r0, #0
 531 002a FAD0     		beq	.L48
 532              	.L47:
 698:.\Generated_Source\PSoC4/CyLFClk.c ****         {
 533              		.loc 1 698 0
 534 002c E303     		lsl	r3, r4, #15
 535 002e 04D5     		bpl	.L44
 536              	.L50:
 700:.\Generated_Source\PSoC4/CyLFClk.c ****             {
 537              		.loc 1 700 0 discriminator 1
 538 0030 0220     		mov	r0, #2
 539 0032 FFF7FEFF 		bl	CySysWdtGetEnabledStatus
 540              	.LVL37:
 541 0036 0028     		cmp	r0, #0
 542 0038 FAD0     		beq	.L50
 543              	.L44:
 705:.\Generated_Source\PSoC4/CyLFClk.c **** 
 544              		.loc 1 705 0
ARM GAS  C:\Users\Nick\AppData\Local\Temp\ccPDwdCo.s 			page 40


 545              		@ sp needed
 546              	.LVL38:
 547 003a 10BD     		pop	{r4, pc}
 548              	.L52:
 549              		.align	2
 550              	.L51:
 551 003c 10020B40 		.word	1074463248
 552              		.cfi_endproc
 553              	.LFE11:
 554              		.size	CySysWdtEnable, .-CySysWdtEnable
 555              		.section	.text.CySysWdtDisable,"ax",%progbits
 556              		.align	2
 557              		.global	CySysWdtDisable
 558              		.code	16
 559              		.thumb_func
 560              		.type	CySysWdtDisable, %function
 561              	CySysWdtDisable:
 562              	.LFB12:
 728:.\Generated_Source\PSoC4/CyLFClk.c ****         if (0uL == CySysWdtLocked())
 563              		.loc 1 728 0
 564              		.cfi_startproc
 565              	.LVL39:
 566 0000 10B5     		push	{r4, lr}
 567              		.cfi_def_cfa_offset 8
 568              		.cfi_offset 4, -8
 569              		.cfi_offset 14, -4
 570 0002 041C     		mov	r4, r0
 729:.\Generated_Source\PSoC4/CyLFClk.c ****         {
 571              		.loc 1 729 0
 572 0004 FFF7FEFF 		bl	CySysWdtLocked
 573              	.LVL40:
 574 0008 0028     		cmp	r0, #0
 575 000a 18D1     		bne	.L53
 731:.\Generated_Source\PSoC4/CyLFClk.c **** 
 576              		.loc 1 731 0
 577 000c 0C4A     		ldr	r2, .L60
 578 000e 1368     		ldr	r3, [r2]
 579 0010 A343     		bic	r3, r4
 580 0012 1360     		str	r3, [r2]
 733:.\Generated_Source\PSoC4/CyLFClk.c ****             {
 581              		.loc 1 733 0
 582 0014 E307     		lsl	r3, r4, #31
 583 0016 04D5     		bpl	.L55
 584              	.L56:
 735:.\Generated_Source\PSoC4/CyLFClk.c ****                 {
 585              		.loc 1 735 0 discriminator 1
 586 0018 0020     		mov	r0, #0
 587 001a FFF7FEFF 		bl	CySysWdtGetEnabledStatus
 588              	.LVL41:
 589 001e 0028     		cmp	r0, #0
 590 0020 FAD1     		bne	.L56
 591              	.L55:
 741:.\Generated_Source\PSoC4/CyLFClk.c ****             {
 592              		.loc 1 741 0
 593 0022 E305     		lsl	r3, r4, #23
 594 0024 04D5     		bpl	.L57
 595              	.L58:
ARM GAS  C:\Users\Nick\AppData\Local\Temp\ccPDwdCo.s 			page 41


 743:.\Generated_Source\PSoC4/CyLFClk.c ****                 {
 596              		.loc 1 743 0 discriminator 1
 597 0026 0120     		mov	r0, #1
 598 0028 FFF7FEFF 		bl	CySysWdtGetEnabledStatus
 599              	.LVL42:
 600 002c 0028     		cmp	r0, #0
 601 002e FAD1     		bne	.L58
 602              	.L57:
 749:.\Generated_Source\PSoC4/CyLFClk.c ****             {
 603              		.loc 1 749 0
 604 0030 E303     		lsl	r3, r4, #15
 605 0032 04D5     		bpl	.L53
 606              	.L59:
 751:.\Generated_Source\PSoC4/CyLFClk.c ****                 {
 607              		.loc 1 751 0 discriminator 1
 608 0034 0220     		mov	r0, #2
 609 0036 FFF7FEFF 		bl	CySysWdtGetEnabledStatus
 610              	.LVL43:
 611 003a 0028     		cmp	r0, #0
 612 003c FAD1     		bne	.L59
 613              	.L53:
 757:.\Generated_Source\PSoC4/CyLFClk.c **** 
 614              		.loc 1 757 0
 615              		@ sp needed
 616              	.LVL44:
 617 003e 10BD     		pop	{r4, pc}
 618              	.L61:
 619              		.align	2
 620              	.L60:
 621 0040 10020B40 		.word	1074463248
 622              		.cfi_endproc
 623              	.LFE12:
 624              		.size	CySysWdtDisable, .-CySysWdtDisable
 625              		.section	.text.CySysWdtSetCascade,"ax",%progbits
 626              		.align	2
 627              		.global	CySysWdtSetCascade
 628              		.code	16
 629              		.thumb_func
 630              		.type	CySysWdtSetCascade, %function
 631              	CySysWdtSetCascade:
 632              	.LFB13:
 794:.\Generated_Source\PSoC4/CyLFClk.c ****         uint32 configRegValue;
 633              		.loc 1 794 0
 634              		.cfi_startproc
 635              	.LVL45:
 636 0000 38B5     		push	{r3, r4, r5, lr}
 637              		.cfi_def_cfa_offset 16
 638              		.cfi_offset 3, -16
 639              		.cfi_offset 4, -12
 640              		.cfi_offset 5, -8
 641              		.cfi_offset 14, -4
 642 0002 051C     		mov	r5, r0
 798:.\Generated_Source\PSoC4/CyLFClk.c ****                             CySysWdtGetEnabledStatus(CY_SYS_WDT_COUNTER1) |
 643              		.loc 1 798 0
 644 0004 0020     		mov	r0, #0
 645              	.LVL46:
 646 0006 FFF7FEFF 		bl	CySysWdtGetEnabledStatus
ARM GAS  C:\Users\Nick\AppData\Local\Temp\ccPDwdCo.s 			page 42


 647              	.LVL47:
 648 000a 041C     		mov	r4, r0
 799:.\Generated_Source\PSoC4/CyLFClk.c ****                             CySysWdtGetEnabledStatus(CY_SYS_WDT_COUNTER2);
 649              		.loc 1 799 0
 650 000c 0120     		mov	r0, #1
 651 000e FFF7FEFF 		bl	CySysWdtGetEnabledStatus
 652              	.LVL48:
 798:.\Generated_Source\PSoC4/CyLFClk.c ****                             CySysWdtGetEnabledStatus(CY_SYS_WDT_COUNTER1) |
 653              		.loc 1 798 0
 654 0012 0443     		orr	r4, r0
 800:.\Generated_Source\PSoC4/CyLFClk.c **** 
 655              		.loc 1 800 0
 656 0014 0220     		mov	r0, #2
 657 0016 FFF7FEFF 		bl	CySysWdtGetEnabledStatus
 658              	.LVL49:
 798:.\Generated_Source\PSoC4/CyLFClk.c ****                             CySysWdtGetEnabledStatus(CY_SYS_WDT_COUNTER1) |
 659              		.loc 1 798 0
 660 001a 2043     		orr	r0, r4
 661              	.LVL50:
 802:.\Generated_Source\PSoC4/CyLFClk.c ****         {
 662              		.loc 1 802 0
 663 001c 05D1     		bne	.L62
 804:.\Generated_Source\PSoC4/CyLFClk.c ****             configRegValue &= ((uint32)(~(CY_SYS_WDT_CASCADE_01|CY_SYS_WDT_CASCADE_12)));
 664              		.loc 1 804 0
 665 001e 034A     		ldr	r2, .L64
 666 0020 1168     		ldr	r1, [r2]
 667              	.LVL51:
 805:.\Generated_Source\PSoC4/CyLFClk.c ****             configRegValue |= cascadeMask;
 668              		.loc 1 805 0
 669 0022 034B     		ldr	r3, .L64+4
 670 0024 0B40     		and	r3, r1
 671              	.LVL52:
 806:.\Generated_Source\PSoC4/CyLFClk.c ****             CY_SYS_WDT_CONFIG_REG = configRegValue;
 672              		.loc 1 806 0
 673 0026 1D43     		orr	r5, r3
 674              	.LVL53:
 807:.\Generated_Source\PSoC4/CyLFClk.c ****         }
 675              		.loc 1 807 0
 676 0028 1560     		str	r5, [r2]
 677              	.LVL54:
 678              	.L62:
 809:.\Generated_Source\PSoC4/CyLFClk.c **** 
 679              		.loc 1 809 0
 680              		@ sp needed
 681 002a 38BD     		pop	{r3, r4, r5, pc}
 682              	.L65:
 683              		.align	2
 684              	.L64:
 685 002c 0C020B40 		.word	1074463244
 686 0030 F7F7FFFF 		.word	-2057
 687              		.cfi_endproc
 688              	.LFE13:
 689              		.size	CySysWdtSetCascade, .-CySysWdtSetCascade
 690              		.section	.text.CySysWdtGetCascade,"ax",%progbits
 691              		.align	2
 692              		.global	CySysWdtGetCascade
 693              		.code	16
ARM GAS  C:\Users\Nick\AppData\Local\Temp\ccPDwdCo.s 			page 43


 694              		.thumb_func
 695              		.type	CySysWdtGetCascade, %function
 696              	CySysWdtGetCascade:
 697              	.LFB14:
 831:.\Generated_Source\PSoC4/CyLFClk.c ****         return (CY_SYS_WDT_CONFIG_REG & (CY_SYS_WDT_CASCADE_01 | CY_SYS_WDT_CASCADE_12));
 698              		.loc 1 831 0
 699              		.cfi_startproc
 832:.\Generated_Source\PSoC4/CyLFClk.c ****     }
 700              		.loc 1 832 0
 701 0000 024B     		ldr	r3, .L67
 702 0002 1868     		ldr	r0, [r3]
 703 0004 024B     		ldr	r3, .L67+4
 704 0006 1840     		and	r0, r3
 833:.\Generated_Source\PSoC4/CyLFClk.c **** 
 705              		.loc 1 833 0
 706              		@ sp needed
 707 0008 7047     		bx	lr
 708              	.L68:
 709 000a C046     		.align	2
 710              	.L67:
 711 000c 0C020B40 		.word	1074463244
 712 0010 08080000 		.word	2056
 713              		.cfi_endproc
 714              	.LFE14:
 715              		.size	CySysWdtGetCascade, .-CySysWdtGetCascade
 716              		.section	.text.CySysWdtSetMatch,"ax",%progbits
 717              		.align	2
 718              		.global	CySysWdtSetMatch
 719              		.code	16
 720              		.thumb_func
 721              		.type	CySysWdtSetMatch, %function
 722              	CySysWdtSetMatch:
 723              	.LFB15:
 856:.\Generated_Source\PSoC4/CyLFClk.c ****         uint32 regValue;
 724              		.loc 1 856 0
 725              		.cfi_startproc
 726              	.LVL55:
 727 0000 38B5     		push	{r3, r4, r5, lr}
 728              		.cfi_def_cfa_offset 16
 729              		.cfi_offset 3, -16
 730              		.cfi_offset 4, -12
 731              		.cfi_offset 5, -8
 732              		.cfi_offset 14, -4
 733 0002 041C     		mov	r4, r0
 734 0004 0D1C     		mov	r5, r1
 859:.\Generated_Source\PSoC4/CyLFClk.c ****                  (counterNum == CY_SYS_WDT_COUNTER1));
 735              		.loc 1 859 0
 736 0006 0128     		cmp	r0, #1
 737 0008 02D9     		bls	.L70
 859:.\Generated_Source\PSoC4/CyLFClk.c ****                  (counterNum == CY_SYS_WDT_COUNTER1));
 738              		.loc 1 859 0 is_stmt 0 discriminator 1
 739 000a 0020     		mov	r0, #0
 740              	.LVL56:
 741 000c FFF7FEFF 		bl	CyHalt
 742              	.LVL57:
 743              	.L70:
 863:.\Generated_Source\PSoC4/CyLFClk.c **** 
ARM GAS  C:\Users\Nick\AppData\Local\Temp\ccPDwdCo.s 			page 44


 744              		.loc 1 863 0 is_stmt 1
 745 0010 C920     		mov	r0, #201
 746 0012 FFF7FEFF 		bl	CyDelayUs
 747              	.LVL58:
 865:.\Generated_Source\PSoC4/CyLFClk.c ****         regValue &= (uint32)~((uint32)(CY_SYS_WDT_LOWER_16BITS_MASK << (counterNum * CY_SYS_WDT_CNT
 748              		.loc 1 865 0
 749 0016 074A     		ldr	r2, .L71
 750 0018 1068     		ldr	r0, [r2]
 751              	.LVL59:
 866:.\Generated_Source\PSoC4/CyLFClk.c ****         CY_SYS_WDT_MATCH_REG = (regValue | (match << (counterNum * CY_SYS_WDT_CNT_MATCH_SHIFT)));
 752              		.loc 1 866 0
 753 001a 2401     		lsl	r4, r4, #4
 754              	.LVL60:
 755 001c 064B     		ldr	r3, .L71+4
 756 001e A340     		lsl	r3, r3, r4
 757 0020 9843     		bic	r0, r3
 758              	.LVL61:
 759 0022 031C     		mov	r3, r0
 760              	.LVL62:
 867:.\Generated_Source\PSoC4/CyLFClk.c **** 
 761              		.loc 1 867 0
 762 0024 281C     		mov	r0, r5
 763              	.LVL63:
 764 0026 A040     		lsl	r0, r0, r4
 765 0028 1843     		orr	r0, r3
 766 002a 1060     		str	r0, [r2]
 870:.\Generated_Source\PSoC4/CyLFClk.c ****     }
 767              		.loc 1 870 0
 768 002c 4320     		mov	r0, #67
 769 002e FFF7FEFF 		bl	CyDelayUs
 770              	.LVL64:
 871:.\Generated_Source\PSoC4/CyLFClk.c **** 
 771              		.loc 1 871 0
 772              		@ sp needed
 773              	.LVL65:
 774 0032 38BD     		pop	{r3, r4, r5, pc}
 775              	.L72:
 776              		.align	2
 777              	.L71:
 778 0034 08020B40 		.word	1074463240
 779 0038 FFFF0000 		.word	65535
 780              		.cfi_endproc
 781              	.LFE15:
 782              		.size	CySysWdtSetMatch, .-CySysWdtSetMatch
 783              		.section	.text.CySysWdtSetToggleBit,"ax",%progbits
 784              		.align	2
 785              		.global	CySysWdtSetToggleBit
 786              		.code	16
 787              		.thumb_func
 788              		.type	CySysWdtSetToggleBit, %function
 789              	CySysWdtSetToggleBit:
 790              	.LFB16:
 900:.\Generated_Source\PSoC4/CyLFClk.c ****         uint32 configRegValue;
 791              		.loc 1 900 0
 792              		.cfi_startproc
 793              	.LVL66:
 794 0000 10B5     		push	{r4, lr}
ARM GAS  C:\Users\Nick\AppData\Local\Temp\ccPDwdCo.s 			page 45


 795              		.cfi_def_cfa_offset 8
 796              		.cfi_offset 4, -8
 797              		.cfi_offset 14, -4
 798 0002 041C     		mov	r4, r0
 903:.\Generated_Source\PSoC4/CyLFClk.c ****         {
 799              		.loc 1 903 0
 800 0004 0220     		mov	r0, #2
 801              	.LVL67:
 802 0006 FFF7FEFF 		bl	CySysWdtGetEnabledStatus
 803              	.LVL68:
 804 000a 0028     		cmp	r0, #0
 805 000c 08D1     		bne	.L73
 905:.\Generated_Source\PSoC4/CyLFClk.c ****             configRegValue &= (uint32)(~((uint32)(CY_SYS_WDT_CONFIG_BITS2_MASK << CY_SYS_WDT_CONFIG
 806              		.loc 1 905 0
 807 000e 054A     		ldr	r2, .L75
 808 0010 1168     		ldr	r1, [r2]
 809              	.LVL69:
 906:.\Generated_Source\PSoC4/CyLFClk.c ****             configRegValue |= ((bits & CY_SYS_WDT_CONFIG_BITS2_MASK) << CY_SYS_WDT_CONFIG_BITS2_POS
 810              		.loc 1 906 0
 811 0012 054B     		ldr	r3, .L75+4
 812 0014 0B40     		and	r3, r1
 813              	.LVL70:
 907:.\Generated_Source\PSoC4/CyLFClk.c ****             CY_SYS_WDT_CONFIG_REG = configRegValue;
 814              		.loc 1 907 0
 815 0016 1F21     		mov	r1, #31
 816 0018 0C40     		and	r4, r1
 817              	.LVL71:
 818 001a 2406     		lsl	r4, r4, #24
 819 001c 1C43     		orr	r4, r3
 820              	.LVL72:
 908:.\Generated_Source\PSoC4/CyLFClk.c ****         }
 821              		.loc 1 908 0
 822 001e 1460     		str	r4, [r2]
 823              	.LVL73:
 824              	.L73:
 910:.\Generated_Source\PSoC4/CyLFClk.c **** 
 825              		.loc 1 910 0
 826              		@ sp needed
 827 0020 10BD     		pop	{r4, pc}
 828              	.L76:
 829 0022 C046     		.align	2
 830              	.L75:
 831 0024 0C020B40 		.word	1074463244
 832 0028 FFFFFFE0 		.word	-520093697
 833              		.cfi_endproc
 834              	.LFE16:
 835              		.size	CySysWdtSetToggleBit, .-CySysWdtSetToggleBit
 836              		.section	.text.CySysWdtGetToggleBit,"ax",%progbits
 837              		.align	2
 838              		.global	CySysWdtGetToggleBit
 839              		.code	16
 840              		.thumb_func
 841              		.type	CySysWdtGetToggleBit, %function
 842              	CySysWdtGetToggleBit:
 843              	.LFB17:
 928:.\Generated_Source\PSoC4/CyLFClk.c ****         return ((CY_SYS_WDT_CONFIG_REG >> CY_SYS_WDT_CONFIG_BITS2_POS) & CY_SYS_WDT_CONFIG_BITS2_MA
 844              		.loc 1 928 0
ARM GAS  C:\Users\Nick\AppData\Local\Temp\ccPDwdCo.s 			page 46


 845              		.cfi_startproc
 929:.\Generated_Source\PSoC4/CyLFClk.c ****     }
 846              		.loc 1 929 0
 847 0000 024B     		ldr	r3, .L78
 848 0002 1868     		ldr	r0, [r3]
 849 0004 C000     		lsl	r0, r0, #3
 850 0006 C00E     		lsr	r0, r0, #27
 930:.\Generated_Source\PSoC4/CyLFClk.c **** 
 851              		.loc 1 930 0
 852              		@ sp needed
 853 0008 7047     		bx	lr
 854              	.L79:
 855 000a C046     		.align	2
 856              	.L78:
 857 000c 0C020B40 		.word	1074463244
 858              		.cfi_endproc
 859              	.LFE17:
 860              		.size	CySysWdtGetToggleBit, .-CySysWdtGetToggleBit
 861              		.section	.text.CySysWdtGetMatch,"ax",%progbits
 862              		.align	2
 863              		.global	CySysWdtGetMatch
 864              		.code	16
 865              		.thumb_func
 866              		.type	CySysWdtGetMatch, %function
 867              	CySysWdtGetMatch:
 868              	.LFB18:
 949:.\Generated_Source\PSoC4/CyLFClk.c ****         CYASSERT((counterNum == CY_SYS_WDT_COUNTER0) ||
 869              		.loc 1 949 0
 870              		.cfi_startproc
 871              	.LVL74:
 872 0000 10B5     		push	{r4, lr}
 873              		.cfi_def_cfa_offset 8
 874              		.cfi_offset 4, -8
 875              		.cfi_offset 14, -4
 876 0002 041E     		sub	r4, r0, #0
 950:.\Generated_Source\PSoC4/CyLFClk.c ****                  (counterNum == CY_SYS_WDT_COUNTER1));
 877              		.loc 1 950 0
 878 0004 012C     		cmp	r4, #1
 879 0006 02D9     		bls	.L81
 950:.\Generated_Source\PSoC4/CyLFClk.c ****                  (counterNum == CY_SYS_WDT_COUNTER1));
 880              		.loc 1 950 0 is_stmt 0 discriminator 1
 881 0008 0020     		mov	r0, #0
 882              	.LVL75:
 883 000a FFF7FEFF 		bl	CyHalt
 884              	.LVL76:
 885              	.L81:
 953:.\Generated_Source\PSoC4/CyLFClk.c ****     }
 886              		.loc 1 953 0 is_stmt 1
 887 000e 034B     		ldr	r3, .L82
 888 0010 1B68     		ldr	r3, [r3]
 889 0012 2401     		lsl	r4, r4, #4
 890              	.LVL77:
 891 0014 E340     		lsr	r3, r3, r4
 892 0016 1804     		lsl	r0, r3, #16
 893 0018 000C     		lsr	r0, r0, #16
 954:.\Generated_Source\PSoC4/CyLFClk.c **** 
 894              		.loc 1 954 0
ARM GAS  C:\Users\Nick\AppData\Local\Temp\ccPDwdCo.s 			page 47


 895              		@ sp needed
 896 001a 10BD     		pop	{r4, pc}
 897              	.L83:
 898              		.align	2
 899              	.L82:
 900 001c 08020B40 		.word	1074463240
 901              		.cfi_endproc
 902              	.LFE18:
 903              		.size	CySysWdtGetMatch, .-CySysWdtGetMatch
 904              		.section	.text.CySysWdtGetCount,"ax",%progbits
 905              		.align	2
 906              		.global	CySysWdtGetCount
 907              		.code	16
 908              		.thumb_func
 909              		.type	CySysWdtGetCount, %function
 910              	CySysWdtGetCount:
 911              	.LFB19:
 973:.\Generated_Source\PSoC4/CyLFClk.c ****         uint32 regValue = 0u;
 912              		.loc 1 973 0
 913              		.cfi_startproc
 914              	.LVL78:
 915 0000 08B5     		push	{r3, lr}
 916              		.cfi_def_cfa_offset 8
 917              		.cfi_offset 3, -8
 918              		.cfi_offset 14, -4
 919              	.LVL79:
 976:.\Generated_Source\PSoC4/CyLFClk.c ****         {
 920              		.loc 1 976 0
 921 0002 0128     		cmp	r0, #1
 922 0004 09D0     		beq	.L86
 923 0006 0028     		cmp	r0, #0
 924 0008 02D0     		beq	.L87
 925 000a 0228     		cmp	r0, #2
 926 000c 09D0     		beq	.L88
 927 000e 0BE0     		b	.L90
 928              	.L87:
 980:.\Generated_Source\PSoC4/CyLFClk.c ****             break;
 929              		.loc 1 980 0
 930 0010 084B     		ldr	r3, .L91
 931 0012 1868     		ldr	r0, [r3]
 932              	.LVL80:
 933 0014 0004     		lsl	r0, r0, #16
 934 0016 000C     		lsr	r0, r0, #16
 935              	.LVL81:
 981:.\Generated_Source\PSoC4/CyLFClk.c **** 
 936              		.loc 1 981 0
 937 0018 0AE0     		b	.L89
 938              	.LVL82:
 939              	.L86:
 985:.\Generated_Source\PSoC4/CyLFClk.c ****             break;
 940              		.loc 1 985 0
 941 001a 064B     		ldr	r3, .L91
 942 001c 1868     		ldr	r0, [r3]
 943              	.LVL83:
 944 001e 000C     		lsr	r0, r0, #16
 945              	.LVL84:
 986:.\Generated_Source\PSoC4/CyLFClk.c **** 
ARM GAS  C:\Users\Nick\AppData\Local\Temp\ccPDwdCo.s 			page 48


 946              		.loc 1 986 0
 947 0020 06E0     		b	.L89
 948              	.LVL85:
 949              	.L88:
 990:.\Generated_Source\PSoC4/CyLFClk.c ****             break;
 950              		.loc 1 990 0
 951 0022 054B     		ldr	r3, .L91+4
 952 0024 1868     		ldr	r0, [r3]
 953              	.LVL86:
 991:.\Generated_Source\PSoC4/CyLFClk.c **** 
 954              		.loc 1 991 0
 955 0026 03E0     		b	.L89
 956              	.LVL87:
 957              	.L90:
 994:.\Generated_Source\PSoC4/CyLFClk.c ****             break;
 958              		.loc 1 994 0 discriminator 1
 959 0028 0020     		mov	r0, #0
 960              	.LVL88:
 961 002a FFF7FEFF 		bl	CyHalt
 962              	.LVL89:
 974:.\Generated_Source\PSoC4/CyLFClk.c **** 
 963              		.loc 1 974 0 discriminator 1
 964 002e 0020     		mov	r0, #0
 965              	.LVL90:
 966              	.L89:
 999:.\Generated_Source\PSoC4/CyLFClk.c **** 
 967              		.loc 1 999 0
 968              		@ sp needed
 969 0030 08BD     		pop	{r3, pc}
 970              	.L92:
 971 0032 C046     		.align	2
 972              	.L91:
 973 0034 00020B40 		.word	1074463232
 974 0038 04020B40 		.word	1074463236
 975              		.cfi_endproc
 976              	.LFE19:
 977              		.size	CySysWdtGetCount, .-CySysWdtGetCount
 978              		.section	.text.CySysClkLfclkPosedgeCatch,"ax",%progbits
 979              		.align	2
 980              		.code	16
 981              		.thumb_func
 982              		.type	CySysClkLfclkPosedgeCatch, %function
 983              	CySysClkLfclkPosedgeCatch:
 984              	.LFB31:
1573:.\Generated_Source\PSoC4/CyLFClk.c ****         uint32 firstCount;
 985              		.loc 1 1573 0
 986              		.cfi_startproc
 987 0000 10B5     		push	{r4, lr}
 988              		.cfi_def_cfa_offset 8
 989              		.cfi_offset 4, -8
 990              		.cfi_offset 14, -4
1577:.\Generated_Source\PSoC4/CyLFClk.c ****         {
 991              		.loc 1 1577 0
 992 0002 0020     		mov	r0, #0
 993 0004 FFF7FEFF 		bl	CySysWdtGetEnabledStatus
 994              	.LVL91:
 995 0008 0028     		cmp	r0, #0
ARM GAS  C:\Users\Nick\AppData\Local\Temp\ccPDwdCo.s 			page 49


 996 000a 03D0     		beq	.L94
1579:.\Generated_Source\PSoC4/CyLFClk.c ****         }
 997              		.loc 1 1579 0
 998 000c 0022     		mov	r2, #0
 999 000e 184B     		ldr	r3, .L99
 1000 0010 9A60     		str	r2, [r3, #8]
 1001 0012 21E0     		b	.L95
 1002              	.L94:
1581:.\Generated_Source\PSoC4/CyLFClk.c ****         {
 1003              		.loc 1 1581 0
 1004 0014 0120     		mov	r0, #1
 1005 0016 FFF7FEFF 		bl	CySysWdtGetEnabledStatus
 1006              	.LVL92:
 1007 001a 0028     		cmp	r0, #0
 1008 001c 03D0     		beq	.L96
1583:.\Generated_Source\PSoC4/CyLFClk.c ****         }
 1009              		.loc 1 1583 0
 1010 001e 0122     		mov	r2, #1
 1011 0020 134B     		ldr	r3, .L99
 1012 0022 9A60     		str	r2, [r3, #8]
 1013 0024 18E0     		b	.L95
 1014              	.L96:
1585:.\Generated_Source\PSoC4/CyLFClk.c ****         {
 1015              		.loc 1 1585 0
 1016 0026 0220     		mov	r0, #2
 1017 0028 FFF7FEFF 		bl	CySysWdtGetEnabledStatus
 1018              	.LVL93:
 1019 002c 0028     		cmp	r0, #0
 1020 002e 03D0     		beq	.L97
1587:.\Generated_Source\PSoC4/CyLFClk.c ****         }
 1021              		.loc 1 1587 0
 1022 0030 0222     		mov	r2, #2
 1023 0032 0F4B     		ldr	r3, .L99
 1024 0034 9A60     		str	r2, [r3, #8]
 1025 0036 0FE0     		b	.L95
 1026              	.L97:
1592:.\Generated_Source\PSoC4/CyLFClk.c ****             lfclkPosedgeEnabledWdtCounter = CY_SYS_WDT_COUNTER0;
 1027              		.loc 1 1592 0
 1028 0038 0D4C     		ldr	r4, .L99
 1029 003a 0123     		mov	r3, #1
 1030 003c 2360     		str	r3, [r4]
1593:.\Generated_Source\PSoC4/CyLFClk.c **** 
 1031              		.loc 1 1593 0
 1032 003e 0023     		mov	r3, #0
 1033 0040 A360     		str	r3, [r4, #8]
1595:.\Generated_Source\PSoC4/CyLFClk.c ****             CySysWdtSetMode(CY_SYS_WDT_COUNTER0, CY_SYS_WDT_MODE_NONE);
 1034              		.loc 1 1595 0
 1035 0042 0020     		mov	r0, #0
 1036 0044 FFF7FEFF 		bl	CySysWdtGetMode
 1037              	.LVL94:
 1038 0048 6060     		str	r0, [r4, #4]
1596:.\Generated_Source\PSoC4/CyLFClk.c ****             CySysWdtEnable(CY_SYS_WDT_COUNTER0_MASK);
 1039              		.loc 1 1596 0
 1040 004a 0020     		mov	r0, #0
 1041 004c 0021     		mov	r1, #0
 1042 004e FFF7FEFF 		bl	CySysWdtSetMode
 1043              	.LVL95:
ARM GAS  C:\Users\Nick\AppData\Local\Temp\ccPDwdCo.s 			page 50


1597:.\Generated_Source\PSoC4/CyLFClk.c ****         }
 1044              		.loc 1 1597 0
 1045 0052 0120     		mov	r0, #1
 1046 0054 FFF7FEFF 		bl	CySysWdtEnable
 1047              	.LVL96:
 1048              	.L95:
1600:.\Generated_Source\PSoC4/CyLFClk.c ****         while (CySysWdtGetCount(lfclkPosedgeEnabledWdtCounter) == firstCount)
 1049              		.loc 1 1600 0
 1050 0058 054B     		ldr	r3, .L99
 1051 005a 9868     		ldr	r0, [r3, #8]
 1052 005c FFF7FEFF 		bl	CySysWdtGetCount
 1053              	.LVL97:
 1054 0060 041C     		mov	r4, r0
 1055              	.LVL98:
 1056              	.L98:
1601:.\Generated_Source\PSoC4/CyLFClk.c ****         {
 1057              		.loc 1 1601 0 discriminator 1
 1058 0062 034B     		ldr	r3, .L99
 1059 0064 9868     		ldr	r0, [r3, #8]
 1060 0066 FFF7FEFF 		bl	CySysWdtGetCount
 1061              	.LVL99:
 1062 006a A042     		cmp	r0, r4
 1063 006c F9D0     		beq	.L98
1605:.\Generated_Source\PSoC4/CyLFClk.c **** 
 1064              		.loc 1 1605 0
 1065              		@ sp needed
 1066              	.LVL100:
 1067 006e 10BD     		pop	{r4, pc}
 1068              	.L100:
 1069              		.align	2
 1070              	.L99:
 1071 0070 00000000 		.word	.LANCHOR0
 1072              		.cfi_endproc
 1073              	.LFE31:
 1074              		.size	CySysClkLfclkPosedgeCatch, .-CySysClkLfclkPosedgeCatch
 1075              		.section	.text.CySysClkIloStop,"ax",%progbits
 1076              		.align	2
 1077              		.global	CySysClkIloStop
 1078              		.code	16
 1079              		.thumb_func
 1080              		.type	CySysClkIloStop, %function
 1081              	CySysClkIloStop:
 1082              	.LFB1:
  97:.\Generated_Source\PSoC4/CyLFClk.c ****     #if(CY_IP_SRSSV2)
 1083              		.loc 1 97 0
 1084              		.cfi_startproc
 1085 0000 10B5     		push	{r4, lr}
 1086              		.cfi_def_cfa_offset 8
 1087              		.cfi_offset 4, -8
 1088              		.cfi_offset 14, -4
 102:.\Generated_Source\PSoC4/CyLFClk.c ****         {
 1089              		.loc 1 102 0
 1090 0002 FFF7FEFF 		bl	CySysWdtLocked
 1091              	.LVL101:
 1092 0006 0028     		cmp	r0, #0
 1093 0008 12D1     		bne	.L101
 104:.\Generated_Source\PSoC4/CyLFClk.c ****             {
ARM GAS  C:\Users\Nick\AppData\Local\Temp\ccPDwdCo.s 			page 51


 1094              		.loc 1 104 0
 1095 000a FFF7FEFF 		bl	CySysClkIloEnabled
 1096              	.LVL102:
 1097 000e 0028     		cmp	r0, #0
 1098 0010 0ED0     		beq	.L101
 112:.\Generated_Source\PSoC4/CyLFClk.c ****                 CySysClkLfclkPosedgeCatch();
 1099              		.loc 1 112 0
 1100 0012 FFF7FEFF 		bl	CyEnterCriticalSection
 1101              	.LVL103:
 1102 0016 041C     		mov	r4, r0
 1103              	.LVL104:
 113:.\Generated_Source\PSoC4/CyLFClk.c ****                 CY_SYS_CLK_ILO_CONFIG_REG &= ( uint32 ) ( ~( uint32 )CY_SYS_CLK_ILO_CONFIG_ENABLE);
 1104              		.loc 1 113 0
 1105 0018 FFF7FEFF 		bl	CySysClkLfclkPosedgeCatch
 1106              	.LVL105:
 114:.\Generated_Source\PSoC4/CyLFClk.c ****                 CySysClkLfclkPosedgeRestore();
 1107              		.loc 1 114 0
 1108 001c 054A     		ldr	r2, .L103
 1109 001e 1368     		ldr	r3, [r2]
 1110 0020 5B00     		lsl	r3, r3, #1
 1111 0022 5B08     		lsr	r3, r3, #1
 1112 0024 1360     		str	r3, [r2]
 115:.\Generated_Source\PSoC4/CyLFClk.c ****                 CyExitCriticalSection(interruptState);
 1113              		.loc 1 115 0
 1114 0026 FFF7FEFF 		bl	CySysClkLfclkPosedgeRestore
 1115              	.LVL106:
 116:.\Generated_Source\PSoC4/CyLFClk.c **** 
 1116              		.loc 1 116 0
 1117 002a 201C     		mov	r0, r4
 1118 002c FFF7FEFF 		bl	CyExitCriticalSection
 1119              	.LVL107:
 1120              	.L101:
 131:.\Generated_Source\PSoC4/CyLFClk.c **** 
 1121              		.loc 1 131 0
 1122              		@ sp needed
 1123 0030 10BD     		pop	{r4, pc}
 1124              	.L104:
 1125 0032 C046     		.align	2
 1126              	.L103:
 1127 0034 04010B40 		.word	1074462980
 1128              		.cfi_endproc
 1129              	.LFE1:
 1130              		.size	CySysClkIloStop, .-CySysClkIloStop
 1131              		.section	.text.CySysWdtGetInterruptSource,"ax",%progbits
 1132              		.align	2
 1133              		.global	CySysWdtGetInterruptSource
 1134              		.code	16
 1135              		.thumb_func
 1136              		.type	CySysWdtGetInterruptSource, %function
 1137              	CySysWdtGetInterruptSource:
 1138              	.LFB20:
1022:.\Generated_Source\PSoC4/CyLFClk.c ****         return (CY_SYS_WDT_CONTROL_REG & (CY_SYS_WDT_COUNTER0_INT | CY_SYS_WDT_COUNTER1_INT | CY_SY
 1139              		.loc 1 1022 0
 1140              		.cfi_startproc
1023:.\Generated_Source\PSoC4/CyLFClk.c ****     }
 1141              		.loc 1 1023 0
 1142 0000 024B     		ldr	r3, .L106
ARM GAS  C:\Users\Nick\AppData\Local\Temp\ccPDwdCo.s 			page 52


 1143 0002 1868     		ldr	r0, [r3]
 1144 0004 024B     		ldr	r3, .L106+4
 1145 0006 1840     		and	r0, r3
1024:.\Generated_Source\PSoC4/CyLFClk.c **** 
 1146              		.loc 1 1024 0
 1147              		@ sp needed
 1148 0008 7047     		bx	lr
 1149              	.L107:
 1150 000a C046     		.align	2
 1151              	.L106:
 1152 000c 10020B40 		.word	1074463248
 1153 0010 04040400 		.word	263172
 1154              		.cfi_endproc
 1155              	.LFE20:
 1156              		.size	CySysWdtGetInterruptSource, .-CySysWdtGetInterruptSource
 1157              		.section	.text.CySysWdtClearInterrupt,"ax",%progbits
 1158              		.align	2
 1159              		.global	CySysWdtClearInterrupt
 1160              		.code	16
 1161              		.thumb_func
 1162              		.type	CySysWdtClearInterrupt, %function
 1163              	CySysWdtClearInterrupt:
 1164              	.LFB21:
1056:.\Generated_Source\PSoC4/CyLFClk.c ****         uint8 interruptState;
 1165              		.loc 1 1056 0
 1166              		.cfi_startproc
 1167              	.LVL108:
 1168 0000 70B5     		push	{r4, r5, r6, lr}
 1169              		.cfi_def_cfa_offset 16
 1170              		.cfi_offset 4, -16
 1171              		.cfi_offset 5, -12
 1172              		.cfi_offset 6, -8
 1173              		.cfi_offset 14, -4
 1174 0002 061C     		mov	r6, r0
1060:.\Generated_Source\PSoC4/CyLFClk.c **** 
 1175              		.loc 1 1060 0
 1176 0004 FFF7FEFF 		bl	CyEnterCriticalSection
 1177              	.LVL109:
 1178 0008 041C     		mov	r4, r0
 1179              	.LVL110:
1062:.\Generated_Source\PSoC4/CyLFClk.c ****         {
 1180              		.loc 1 1062 0
 1181 000a FFF7FEFF 		bl	CySysWdtLocked
 1182              	.LVL111:
 1183 000e 0028     		cmp	r0, #0
 1184 0010 03D0     		beq	.L111
 1185              	.LVL112:
1065:.\Generated_Source\PSoC4/CyLFClk.c ****         }
 1186              		.loc 1 1065 0
 1187 0012 FFF7FEFF 		bl	CySysWdtUnlock
 1188              	.LVL113:
1064:.\Generated_Source\PSoC4/CyLFClk.c ****             CySysWdtUnlock();
 1189              		.loc 1 1064 0
 1190 0016 0125     		mov	r5, #1
 1191 0018 00E0     		b	.L109
 1192              	.LVL114:
 1193              	.L111:
ARM GAS  C:\Users\Nick\AppData\Local\Temp\ccPDwdCo.s 			page 53


1069:.\Generated_Source\PSoC4/CyLFClk.c ****         }
 1194              		.loc 1 1069 0
 1195 001a 0025     		mov	r5, #0
 1196              	.L109:
 1197              	.LVL115:
1073:.\Generated_Source\PSoC4/CyLFClk.c ****                         CY_SYS_WDT_COUNTER1_INT |
 1198              		.loc 1 1073 0
 1199 001c 0848     		ldr	r0, .L112
 1200 001e 331C     		mov	r3, r6
 1201 0020 0340     		and	r3, r0
 1202              	.LVL116:
1077:.\Generated_Source\PSoC4/CyLFClk.c ****                                                                            CY_SYS_WDT_COUNTER1_INT 
 1203              		.loc 1 1077 0
 1204 0022 084A     		ldr	r2, .L112+4
 1205 0024 1068     		ldr	r0, [r2]
 1206 0026 0849     		ldr	r1, .L112+8
 1207 0028 0840     		and	r0, r1
 1208 002a 1843     		orr	r0, r3
 1209 002c 1060     		str	r0, [r2]
1084:.\Generated_Source\PSoC4/CyLFClk.c **** 
 1210              		.loc 1 1084 0
 1211 002e 1368     		ldr	r3, [r2]
 1212              	.LVL117:
1086:.\Generated_Source\PSoC4/CyLFClk.c ****         {
 1213              		.loc 1 1086 0
 1214 0030 012D     		cmp	r5, #1
 1215 0032 01D1     		bne	.L110
1088:.\Generated_Source\PSoC4/CyLFClk.c ****         }
 1216              		.loc 1 1088 0
 1217 0034 FFF7FEFF 		bl	CySysWdtLock
 1218              	.LVL118:
 1219              	.L110:
1091:.\Generated_Source\PSoC4/CyLFClk.c ****     }
 1220              		.loc 1 1091 0
 1221 0038 201C     		mov	r0, r4
 1222 003a FFF7FEFF 		bl	CyExitCriticalSection
 1223              	.LVL119:
1092:.\Generated_Source\PSoC4/CyLFClk.c **** 
 1224              		.loc 1 1092 0
 1225              		@ sp needed
 1226              	.LVL120:
 1227              	.LVL121:
 1228              	.LVL122:
 1229 003e 70BD     		pop	{r4, r5, r6, pc}
 1230              	.L113:
 1231              		.align	2
 1232              	.L112:
 1233 0040 04040400 		.word	263172
 1234 0044 10020B40 		.word	1074463248
 1235 0048 FBFBFBFF 		.word	-263173
 1236              		.cfi_endproc
 1237              	.LFE21:
 1238              		.size	CySysWdtClearInterrupt, .-CySysWdtClearInterrupt
 1239              		.section	.text.CySysWdtResetCounters,"ax",%progbits
 1240              		.align	2
 1241              		.global	CySysWdtResetCounters
 1242              		.code	16
ARM GAS  C:\Users\Nick\AppData\Local\Temp\ccPDwdCo.s 			page 54


 1243              		.thumb_func
 1244              		.type	CySysWdtResetCounters, %function
 1245              	CySysWdtResetCounters:
 1246              	.LFB22:
1120:.\Generated_Source\PSoC4/CyLFClk.c ****         /* Set new WDT reset value */
 1247              		.loc 1 1120 0
 1248              		.cfi_startproc
 1249              	.LVL123:
1122:.\Generated_Source\PSoC4/CyLFClk.c **** 
 1250              		.loc 1 1122 0
 1251 0000 054A     		ldr	r2, .L116
 1252 0002 1168     		ldr	r1, [r2]
 1253 0004 054B     		ldr	r3, .L116+4
 1254 0006 1840     		and	r0, r3
 1255              	.LVL124:
 1256 0008 0843     		orr	r0, r1
 1257 000a 1060     		str	r0, [r2]
 1258              	.L115:
1124:.\Generated_Source\PSoC4/CyLFClk.c ****         {
 1259              		.loc 1 1124 0 discriminator 1
 1260 000c 024B     		ldr	r3, .L116
 1261 000e 1A68     		ldr	r2, [r3]
 1262 0010 024B     		ldr	r3, .L116+4
 1263 0012 1A42     		tst	r2, r3
 1264 0014 FAD1     		bne	.L115
1128:.\Generated_Source\PSoC4/CyLFClk.c **** 
 1265              		.loc 1 1128 0
 1266              		@ sp needed
 1267 0016 7047     		bx	lr
 1268              	.L117:
 1269              		.align	2
 1270              	.L116:
 1271 0018 10020B40 		.word	1074463248
 1272 001c 08080800 		.word	526344
 1273              		.cfi_endproc
 1274              	.LFE22:
 1275              		.size	CySysWdtResetCounters, .-CySysWdtResetCounters
 1276              		.section	.text.CySysWdtSetInterruptCallback,"ax",%progbits
 1277              		.align	2
 1278              		.global	CySysWdtSetInterruptCallback
 1279              		.code	16
 1280              		.thumb_func
 1281              		.type	CySysWdtSetInterruptCallback, %function
 1282              	CySysWdtSetInterruptCallback:
 1283              	.LFB23:
1149:.\Generated_Source\PSoC4/CyLFClk.c ****         cyWdtCallback prevCallback = (void *)0;
 1284              		.loc 1 1149 0
 1285              		.cfi_startproc
 1286              	.LVL125:
 1287 0000 08B5     		push	{r3, lr}
 1288              		.cfi_def_cfa_offset 8
 1289              		.cfi_offset 3, -8
 1290              		.cfi_offset 14, -4
 1291              	.LVL126:
1152:.\Generated_Source\PSoC4/CyLFClk.c ****         {
 1292              		.loc 1 1152 0
 1293 0002 0228     		cmp	r0, #2
ARM GAS  C:\Users\Nick\AppData\Local\Temp\ccPDwdCo.s 			page 55


 1294 0004 05D8     		bhi	.L119
1154:.\Generated_Source\PSoC4/CyLFClk.c ****             cySysWdtCallback[counterNum] = function;
 1295              		.loc 1 1154 0
 1296 0006 8000     		lsl	r0, r0, #2
 1297              	.LVL127:
 1298 0008 044B     		ldr	r3, .L121
 1299 000a 1B18     		add	r3, r3, r0
 1300 000c D868     		ldr	r0, [r3, #12]
 1301              	.LVL128:
1155:.\Generated_Source\PSoC4/CyLFClk.c ****         }
 1302              		.loc 1 1155 0
 1303 000e D960     		str	r1, [r3, #12]
 1304 0010 03E0     		b	.L120
 1305              	.LVL129:
 1306              	.L119:
1159:.\Generated_Source\PSoC4/CyLFClk.c ****         }
 1307              		.loc 1 1159 0 discriminator 1
 1308 0012 0020     		mov	r0, #0
 1309              	.LVL130:
 1310 0014 FFF7FEFF 		bl	CyHalt
 1311              	.LVL131:
1150:.\Generated_Source\PSoC4/CyLFClk.c **** 
 1312              		.loc 1 1150 0 discriminator 1
 1313 0018 0020     		mov	r0, #0
 1314              	.LVL132:
 1315              	.L120:
1163:.\Generated_Source\PSoC4/CyLFClk.c **** 
 1316              		.loc 1 1163 0
 1317              		@ sp needed
 1318 001a 08BD     		pop	{r3, pc}
 1319              	.L122:
 1320              		.align	2
 1321              	.L121:
 1322 001c 00000000 		.word	.LANCHOR0
 1323              		.cfi_endproc
 1324              	.LFE23:
 1325              		.size	CySysWdtSetInterruptCallback, .-CySysWdtSetInterruptCallback
 1326              		.section	.text.CySysWdtGetInterruptCallback,"ax",%progbits
 1327              		.align	2
 1328              		.global	CySysWdtGetInterruptCallback
 1329              		.code	16
 1330              		.thumb_func
 1331              		.type	CySysWdtGetInterruptCallback, %function
 1332              	CySysWdtGetInterruptCallback:
 1333              	.LFB24:
1182:.\Generated_Source\PSoC4/CyLFClk.c ****         cyWdtCallback retCallback = (void *)0;
 1334              		.loc 1 1182 0
 1335              		.cfi_startproc
 1336              	.LVL133:
 1337 0000 08B5     		push	{r3, lr}
 1338              		.cfi_def_cfa_offset 8
 1339              		.cfi_offset 3, -8
 1340              		.cfi_offset 14, -4
 1341              	.LVL134:
1185:.\Generated_Source\PSoC4/CyLFClk.c ****         {
 1342              		.loc 1 1185 0
 1343 0002 0228     		cmp	r0, #2
ARM GAS  C:\Users\Nick\AppData\Local\Temp\ccPDwdCo.s 			page 56


 1344 0004 04D8     		bhi	.L124
1187:.\Generated_Source\PSoC4/CyLFClk.c ****         }
 1345              		.loc 1 1187 0
 1346 0006 8000     		lsl	r0, r0, #2
 1347              	.LVL135:
 1348 0008 044B     		ldr	r3, .L126
 1349 000a 1818     		add	r0, r3, r0
 1350 000c C068     		ldr	r0, [r0, #12]
 1351              	.LVL136:
 1352 000e 03E0     		b	.L125
 1353              	.LVL137:
 1354              	.L124:
1191:.\Generated_Source\PSoC4/CyLFClk.c ****         }
 1355              		.loc 1 1191 0 discriminator 1
 1356 0010 0020     		mov	r0, #0
 1357              	.LVL138:
 1358 0012 FFF7FEFF 		bl	CyHalt
 1359              	.LVL139:
1183:.\Generated_Source\PSoC4/CyLFClk.c **** 
 1360              		.loc 1 1183 0 discriminator 1
 1361 0016 0020     		mov	r0, #0
 1362              	.LVL140:
 1363              	.L125:
1195:.\Generated_Source\PSoC4/CyLFClk.c **** 
 1364              		.loc 1 1195 0
 1365              		@ sp needed
 1366 0018 08BD     		pop	{r3, pc}
 1367              	.L127:
 1368 001a C046     		.align	2
 1369              	.L126:
 1370 001c 00000000 		.word	.LANCHOR0
 1371              		.cfi_endproc
 1372              	.LFE24:
 1373              		.size	CySysWdtGetInterruptCallback, .-CySysWdtGetInterruptCallback
 1374              		.section	.text.CySysWdtEnableCounterIsr,"ax",%progbits
 1375              		.align	2
 1376              		.global	CySysWdtEnableCounterIsr
 1377              		.code	16
 1378              		.thumb_func
 1379              		.type	CySysWdtEnableCounterIsr, %function
 1380              	CySysWdtEnableCounterIsr:
 1381              	.LFB25:
1210:.\Generated_Source\PSoC4/CyLFClk.c ****         if(counterNum <= CY_SYS_WDT_COUNTER2)
 1382              		.loc 1 1210 0
 1383              		.cfi_startproc
 1384              	.LVL141:
 1385 0000 08B5     		push	{r3, lr}
 1386              		.cfi_def_cfa_offset 8
 1387              		.cfi_offset 3, -8
 1388              		.cfi_offset 14, -4
1211:.\Generated_Source\PSoC4/CyLFClk.c ****         {
 1389              		.loc 1 1211 0
 1390 0002 0228     		cmp	r0, #2
 1391 0004 0BD8     		bhi	.L129
1213:.\Generated_Source\PSoC4/CyLFClk.c ****             wdtIsrMask |= counterIntMaskTbl[counterNum];
 1392              		.loc 1 1213 0
 1393 0006 8000     		lsl	r0, r0, #2
ARM GAS  C:\Users\Nick\AppData\Local\Temp\ccPDwdCo.s 			page 57


 1394              	.LVL142:
 1395 0008 074B     		ldr	r3, .L131
 1396 000a C158     		ldr	r1, [r0, r3]
 1397 000c 074B     		ldr	r3, .L131+4
 1398 000e 9A69     		ldr	r2, [r3, #24]
 1399 0010 8A43     		bic	r2, r1
 1400 0012 9A61     		str	r2, [r3, #24]
1214:.\Generated_Source\PSoC4/CyLFClk.c ****         }
 1401              		.loc 1 1214 0
 1402 0014 064A     		ldr	r2, .L131+8
 1403 0016 1368     		ldr	r3, [r2]
 1404 0018 0B43     		orr	r3, r1
 1405 001a 1360     		str	r3, [r2]
 1406 001c 02E0     		b	.L128
 1407              	.LVL143:
 1408              	.L129:
1218:.\Generated_Source\PSoC4/CyLFClk.c ****         }
 1409              		.loc 1 1218 0 discriminator 1
 1410 001e 0020     		mov	r0, #0
 1411              	.LVL144:
 1412 0020 FFF7FEFF 		bl	CyHalt
 1413              	.LVL145:
 1414              	.L128:
1220:.\Generated_Source\PSoC4/CyLFClk.c **** 
 1415              		.loc 1 1220 0
 1416              		@ sp needed
 1417 0024 08BD     		pop	{r3, pc}
 1418              	.L132:
 1419 0026 C046     		.align	2
 1420              	.L131:
 1421 0028 00000000 		.word	.LANCHOR1
 1422 002c 00000000 		.word	.LANCHOR0
 1423 0030 00000000 		.word	.LANCHOR2
 1424              		.cfi_endproc
 1425              	.LFE25:
 1426              		.size	CySysWdtEnableCounterIsr, .-CySysWdtEnableCounterIsr
 1427              		.section	.text.CySysWdtDisableCounterIsr,"ax",%progbits
 1428              		.align	2
 1429              		.global	CySysWdtDisableCounterIsr
 1430              		.code	16
 1431              		.thumb_func
 1432              		.type	CySysWdtDisableCounterIsr, %function
 1433              	CySysWdtDisableCounterIsr:
 1434              	.LFB26:
1235:.\Generated_Source\PSoC4/CyLFClk.c ****         if(counterNum <= CY_SYS_WDT_COUNTER2)
 1435              		.loc 1 1235 0
 1436              		.cfi_startproc
 1437              	.LVL146:
 1438 0000 08B5     		push	{r3, lr}
 1439              		.cfi_def_cfa_offset 8
 1440              		.cfi_offset 3, -8
 1441              		.cfi_offset 14, -4
1236:.\Generated_Source\PSoC4/CyLFClk.c ****         {
 1442              		.loc 1 1236 0
 1443 0002 0228     		cmp	r0, #2
 1444 0004 07D8     		bhi	.L134
1238:.\Generated_Source\PSoC4/CyLFClk.c ****         }
ARM GAS  C:\Users\Nick\AppData\Local\Temp\ccPDwdCo.s 			page 58


 1445              		.loc 1 1238 0
 1446 0006 8000     		lsl	r0, r0, #2
 1447              	.LVL147:
 1448 0008 054B     		ldr	r3, .L136
 1449 000a C158     		ldr	r1, [r0, r3]
 1450 000c 054A     		ldr	r2, .L136+4
 1451 000e 1368     		ldr	r3, [r2]
 1452 0010 8B43     		bic	r3, r1
 1453 0012 1360     		str	r3, [r2]
 1454 0014 02E0     		b	.L133
 1455              	.LVL148:
 1456              	.L134:
1242:.\Generated_Source\PSoC4/CyLFClk.c ****         }
 1457              		.loc 1 1242 0 discriminator 1
 1458 0016 0020     		mov	r0, #0
 1459              	.LVL149:
 1460 0018 FFF7FEFF 		bl	CyHalt
 1461              	.LVL150:
 1462              	.L133:
1244:.\Generated_Source\PSoC4/CyLFClk.c **** 
 1463              		.loc 1 1244 0
 1464              		@ sp needed
 1465 001c 08BD     		pop	{r3, pc}
 1466              	.L137:
 1467 001e C046     		.align	2
 1468              	.L136:
 1469 0020 00000000 		.word	.LANCHOR1
 1470 0024 00000000 		.word	.LANCHOR2
 1471              		.cfi_endproc
 1472              	.LFE26:
 1473              		.size	CySysWdtDisableCounterIsr, .-CySysWdtDisableCounterIsr
 1474              		.section	.text.CySysWdtIsr,"ax",%progbits
 1475              		.align	2
 1476              		.global	CySysWdtIsr
 1477              		.code	16
 1478              		.thumb_func
 1479              		.type	CySysWdtIsr, %function
 1480              	CySysWdtIsr:
 1481              	.LFB27:
1273:.\Generated_Source\PSoC4/CyLFClk.c ****         if(0u != (CY_SYS_WDT_COUNTER0_INT & CY_SYS_WDT_CONTROL_REG))
 1482              		.loc 1 1273 0
 1483              		.cfi_startproc
 1484 0000 10B5     		push	{r4, lr}
 1485              		.cfi_def_cfa_offset 8
 1486              		.cfi_offset 4, -8
 1487              		.cfi_offset 14, -4
1274:.\Generated_Source\PSoC4/CyLFClk.c ****         {
 1488              		.loc 1 1274 0
 1489 0002 244B     		ldr	r3, .L145
 1490 0004 1B68     		ldr	r3, [r3]
 1491 0006 5B07     		lsl	r3, r3, #29
 1492 0008 15D5     		bpl	.L139
1276:.\Generated_Source\PSoC4/CyLFClk.c ****             {
 1493              		.loc 1 1276 0
 1494 000a 234B     		ldr	r3, .L145+4
 1495 000c 1B68     		ldr	r3, [r3]
 1496 000e 5B07     		lsl	r3, r3, #29
ARM GAS  C:\Users\Nick\AppData\Local\Temp\ccPDwdCo.s 			page 59


 1497 0010 0ED5     		bpl	.L140
1278:.\Generated_Source\PSoC4/CyLFClk.c ****                 disableServicedIsr  &= ~CY_SYS_WDT_COUNTER0_INT;
 1498              		.loc 1 1278 0
 1499 0012 224B     		ldr	r3, .L145+8
 1500 0014 9969     		ldr	r1, [r3, #24]
 1501 0016 0420     		mov	r0, #4
 1502 0018 0140     		and	r1, r0
 1503 001a 1F4C     		ldr	r4, .L145+4
 1504 001c 2268     		ldr	r2, [r4]
 1505 001e 8A43     		bic	r2, r1
 1506 0020 2260     		str	r2, [r4]
1279:.\Generated_Source\PSoC4/CyLFClk.c ****                 if(cySysWdtCallback[CY_SYS_WDT_COUNTER0] != (void *) 0)
 1507              		.loc 1 1279 0
 1508 0022 9A69     		ldr	r2, [r3, #24]
 1509 0024 8243     		bic	r2, r0
 1510 0026 9A61     		str	r2, [r3, #24]
1280:.\Generated_Source\PSoC4/CyLFClk.c ****                 {
 1511              		.loc 1 1280 0
 1512 0028 DB68     		ldr	r3, [r3, #12]
 1513 002a 002B     		cmp	r3, #0
 1514 002c 00D0     		beq	.L140
1282:.\Generated_Source\PSoC4/CyLFClk.c ****                 }
 1515              		.loc 1 1282 0
 1516 002e 9847     		blx	r3
 1517              	.LVL151:
 1518              	.L140:
1285:.\Generated_Source\PSoC4/CyLFClk.c ****         }
 1519              		.loc 1 1285 0
 1520 0030 0420     		mov	r0, #4
 1521 0032 FFF7FEFF 		bl	CySysWdtClearInterrupt
 1522              	.LVL152:
 1523              	.L139:
1288:.\Generated_Source\PSoC4/CyLFClk.c ****         {
 1524              		.loc 1 1288 0
 1525 0036 174B     		ldr	r3, .L145
 1526 0038 1B68     		ldr	r3, [r3]
 1527 003a 5B05     		lsl	r3, r3, #21
 1528 003c 18D5     		bpl	.L141
1290:.\Generated_Source\PSoC4/CyLFClk.c ****             {
 1529              		.loc 1 1290 0
 1530 003e 164B     		ldr	r3, .L145+4
 1531 0040 1B68     		ldr	r3, [r3]
 1532 0042 5B05     		lsl	r3, r3, #21
 1533 0044 10D5     		bpl	.L142
1292:.\Generated_Source\PSoC4/CyLFClk.c ****                 disableServicedIsr  &= ~CY_SYS_WDT_COUNTER1_INT;
 1534              		.loc 1 1292 0
 1535 0046 154B     		ldr	r3, .L145+8
 1536 0048 9969     		ldr	r1, [r3, #24]
 1537 004a 8022     		mov	r2, #128
 1538 004c D200     		lsl	r2, r2, #3
 1539 004e 1140     		and	r1, r2
 1540 0050 1148     		ldr	r0, .L145+4
 1541 0052 0268     		ldr	r2, [r0]
 1542 0054 8A43     		bic	r2, r1
 1543 0056 0260     		str	r2, [r0]
1293:.\Generated_Source\PSoC4/CyLFClk.c ****                 if(cySysWdtCallback[CY_SYS_WDT_COUNTER1] != (void *) 0)
 1544              		.loc 1 1293 0
ARM GAS  C:\Users\Nick\AppData\Local\Temp\ccPDwdCo.s 			page 60


 1545 0058 9969     		ldr	r1, [r3, #24]
 1546 005a 114A     		ldr	r2, .L145+12
 1547 005c 0A40     		and	r2, r1
 1548 005e 9A61     		str	r2, [r3, #24]
1294:.\Generated_Source\PSoC4/CyLFClk.c ****                 {
 1549              		.loc 1 1294 0
 1550 0060 1B69     		ldr	r3, [r3, #16]
 1551 0062 002B     		cmp	r3, #0
 1552 0064 00D0     		beq	.L142
1296:.\Generated_Source\PSoC4/CyLFClk.c ****                 }
 1553              		.loc 1 1296 0
 1554 0066 9847     		blx	r3
 1555              	.LVL153:
 1556              	.L142:
1299:.\Generated_Source\PSoC4/CyLFClk.c ****         }
 1557              		.loc 1 1299 0
 1558 0068 8020     		mov	r0, #128
 1559 006a C000     		lsl	r0, r0, #3
 1560 006c FFF7FEFF 		bl	CySysWdtClearInterrupt
 1561              	.LVL154:
 1562              	.L141:
1302:.\Generated_Source\PSoC4/CyLFClk.c ****         {
 1563              		.loc 1 1302 0
 1564 0070 084B     		ldr	r3, .L145
 1565 0072 1B68     		ldr	r3, [r3]
 1566 0074 5B03     		lsl	r3, r3, #13
 1567 0076 0CD5     		bpl	.L138
1304:.\Generated_Source\PSoC4/CyLFClk.c ****             {
 1568              		.loc 1 1304 0
 1569 0078 074B     		ldr	r3, .L145+4
 1570 007a 1B68     		ldr	r3, [r3]
 1571 007c 5B03     		lsl	r3, r3, #13
 1572 007e 04D5     		bpl	.L144
1306:.\Generated_Source\PSoC4/CyLFClk.c ****                 {
 1573              		.loc 1 1306 0
 1574 0080 064B     		ldr	r3, .L145+8
 1575 0082 5B69     		ldr	r3, [r3, #20]
 1576 0084 002B     		cmp	r3, #0
 1577 0086 00D0     		beq	.L144
1308:.\Generated_Source\PSoC4/CyLFClk.c ****                 }
 1578              		.loc 1 1308 0
 1579 0088 9847     		blx	r3
 1580              	.LVL155:
 1581              	.L144:
1311:.\Generated_Source\PSoC4/CyLFClk.c ****         }
 1582              		.loc 1 1311 0
 1583 008a 8020     		mov	r0, #128
 1584 008c C002     		lsl	r0, r0, #11
 1585 008e FFF7FEFF 		bl	CySysWdtClearInterrupt
 1586              	.LVL156:
 1587              	.L138:
1313:.\Generated_Source\PSoC4/CyLFClk.c **** 
 1588              		.loc 1 1313 0
 1589              		@ sp needed
 1590 0092 10BD     		pop	{r4, pc}
 1591              	.L146:
 1592              		.align	2
ARM GAS  C:\Users\Nick\AppData\Local\Temp\ccPDwdCo.s 			page 61


 1593              	.L145:
 1594 0094 10020B40 		.word	1074463248
 1595 0098 00000000 		.word	.LANCHOR2
 1596 009c 00000000 		.word	.LANCHOR0
 1597 00a0 FFFBFFFF 		.word	-1025
 1598              		.cfi_endproc
 1599              	.LFE27:
 1600              		.size	CySysWdtIsr, .-CySysWdtIsr
 1601              		.section	.text.CySysTimerDelayUntilMatch,"ax",%progbits
 1602              		.align	2
 1603              		.global	CySysTimerDelayUntilMatch
 1604              		.code	16
 1605              		.thumb_func
 1606              		.type	CySysTimerDelayUntilMatch, %function
 1607              	CySysTimerDelayUntilMatch:
 1608              	.LFB29:
1448:.\Generated_Source\PSoC4/CyLFClk.c ****         uint32 tmpValue;
 1609              		.loc 1 1448 0
 1610              		.cfi_startproc
 1611              	.LVL157:
 1612 0000 70B5     		push	{r4, r5, r6, lr}
 1613              		.cfi_def_cfa_offset 16
 1614              		.cfi_offset 4, -16
 1615              		.cfi_offset 5, -12
 1616              		.cfi_offset 6, -8
 1617              		.cfi_offset 14, -4
 1618 0002 041C     		mov	r4, r0
 1619 0004 0E1C     		mov	r6, r1
 1620 0006 151C     		mov	r5, r2
1451:.\Generated_Source\PSoC4/CyLFClk.c ****         {
 1621              		.loc 1 1451 0
 1622 0008 0128     		cmp	r0, #1
 1623 000a 23D8     		bhi	.L148
1451:.\Generated_Source\PSoC4/CyLFClk.c ****         {
 1624              		.loc 1 1451 0 is_stmt 0 discriminator 1
 1625 000c FFF7FEFF 		bl	CySysWdtGetClearOnMatch
 1626              	.LVL158:
 1627 0010 0028     		cmp	r0, #0
 1628 0012 1FD1     		bne	.L148
1451:.\Generated_Source\PSoC4/CyLFClk.c ****         {
 1629              		.loc 1 1451 0 discriminator 2
 1630 0014 114B     		ldr	r3, .L153
 1631 0016 9D42     		cmp	r5, r3
 1632 0018 1CD8     		bhi	.L148
1453:.\Generated_Source\PSoC4/CyLFClk.c ****             {
 1633              		.loc 1 1453 0 is_stmt 1
 1634 001a 002E     		cmp	r6, #0
 1635 001c 0AD1     		bne	.L149
 1636              	.L150:
1457:.\Generated_Source\PSoC4/CyLFClk.c ****                 }while(tmpValue > match);
 1637              		.loc 1 1457 0 discriminator 1
 1638 001e 201C     		mov	r0, r4
 1639 0020 FFF7FEFF 		bl	CySysWdtGetCount
 1640              	.LVL159:
1458:.\Generated_Source\PSoC4/CyLFClk.c **** 
 1641              		.loc 1 1458 0 discriminator 1
 1642 0024 A842     		cmp	r0, r5
ARM GAS  C:\Users\Nick\AppData\Local\Temp\ccPDwdCo.s 			page 62


 1643 0026 FAD8     		bhi	.L150
 1644              	.L151:
1462:.\Generated_Source\PSoC4/CyLFClk.c ****                 }while(tmpValue < match);
 1645              		.loc 1 1462 0 discriminator 1
 1646 0028 201C     		mov	r0, r4
 1647              	.LVL160:
 1648 002a FFF7FEFF 		bl	CySysWdtGetCount
 1649              	.LVL161:
1463:.\Generated_Source\PSoC4/CyLFClk.c ****             }
 1650              		.loc 1 1463 0 discriminator 1
 1651 002e A842     		cmp	r0, r5
 1652 0030 FAD3     		bcc	.L151
 1653 0032 12E0     		b	.L147
 1654              	.LVL162:
 1655              	.L149:
1467:.\Generated_Source\PSoC4/CyLFClk.c ****                 CySysWdtSetMatch(counterNum, match);
 1656              		.loc 1 1467 0
 1657 0034 A200     		lsl	r2, r4, #2
 1658 0036 0A4B     		ldr	r3, .L153+4
 1659 0038 D658     		ldr	r6, [r2, r3]
 1660              	.LVL163:
1468:.\Generated_Source\PSoC4/CyLFClk.c **** 
 1661              		.loc 1 1468 0
 1662 003a 201C     		mov	r0, r4
 1663 003c 291C     		mov	r1, r5
 1664 003e FFF7FEFF 		bl	CySysWdtSetMatch
 1665              	.LVL164:
1470:.\Generated_Source\PSoC4/CyLFClk.c ****                 wdtIsrMask |= tmpValue;
 1666              		.loc 1 1470 0
 1667 0042 084A     		ldr	r2, .L153+8
 1668 0044 9369     		ldr	r3, [r2, #24]
 1669 0046 3343     		orr	r3, r6
 1670 0048 9361     		str	r3, [r2, #24]
1471:.\Generated_Source\PSoC4/CyLFClk.c ****             }
 1671              		.loc 1 1471 0
 1672 004a 074B     		ldr	r3, .L153+12
 1673 004c 1A68     		ldr	r2, [r3]
 1674 004e 1643     		orr	r6, r2
 1675              	.LVL165:
 1676 0050 1E60     		str	r6, [r3]
 1677 0052 02E0     		b	.L147
 1678              	.LVL166:
 1679              	.L148:
1476:.\Generated_Source\PSoC4/CyLFClk.c ****         }
 1680              		.loc 1 1476 0 discriminator 1
 1681 0054 0020     		mov	r0, #0
 1682 0056 FFF7FEFF 		bl	CyHalt
 1683              	.LVL167:
 1684              	.L147:
1478:.\Generated_Source\PSoC4/CyLFClk.c **** 
 1685              		.loc 1 1478 0
 1686              		@ sp needed
 1687              	.LVL168:
 1688              	.LVL169:
 1689 005a 70BD     		pop	{r4, r5, r6, pc}
 1690              	.L154:
 1691              		.align	2
ARM GAS  C:\Users\Nick\AppData\Local\Temp\ccPDwdCo.s 			page 63


 1692              	.L153:
 1693 005c FFFF0000 		.word	65535
 1694 0060 00000000 		.word	.LANCHOR1
 1695 0064 00000000 		.word	.LANCHOR0
 1696 0068 00000000 		.word	.LANCHOR2
 1697              		.cfi_endproc
 1698              	.LFE29:
 1699              		.size	CySysTimerDelayUntilMatch, .-CySysTimerDelayUntilMatch
 1700              		.section	.text.CySysTimerDelay,"ax",%progbits
 1701              		.align	2
 1702              		.global	CySysTimerDelay
 1703              		.code	16
 1704              		.thumb_func
 1705              		.type	CySysTimerDelay, %function
 1706              	CySysTimerDelay:
 1707              	.LFB28:
1372:.\Generated_Source\PSoC4/CyLFClk.c ****         uint32 regValue;
 1708              		.loc 1 1372 0
 1709              		.cfi_startproc
 1710              	.LVL170:
 1711 0000 70B5     		push	{r4, r5, r6, lr}
 1712              		.cfi_def_cfa_offset 16
 1713              		.cfi_offset 4, -16
 1714              		.cfi_offset 5, -12
 1715              		.cfi_offset 6, -8
 1716              		.cfi_offset 14, -4
 1717 0002 041C     		mov	r4, r0
 1718 0004 0E1C     		mov	r6, r1
 1719 0006 151C     		mov	r5, r2
1376:.\Generated_Source\PSoC4/CyLFClk.c ****         {
 1720              		.loc 1 1376 0
 1721 0008 0128     		cmp	r0, #1
 1722 000a 11D8     		bhi	.L156
1376:.\Generated_Source\PSoC4/CyLFClk.c ****         {
 1723              		.loc 1 1376 0 is_stmt 0 discriminator 1
 1724 000c FFF7FEFF 		bl	CySysWdtGetClearOnMatch
 1725              	.LVL171:
 1726 0010 0028     		cmp	r0, #0
 1727 0012 0DD1     		bne	.L156
1376:.\Generated_Source\PSoC4/CyLFClk.c ****         {
 1728              		.loc 1 1376 0 discriminator 2
 1729 0014 084B     		ldr	r3, .L158
 1730 0016 9D42     		cmp	r5, r3
 1731 0018 0AD8     		bhi	.L156
1378:.\Generated_Source\PSoC4/CyLFClk.c ****             matchValue = (regValue + delay) & (uint32)UINT16_MAX_VAL;
 1732              		.loc 1 1378 0 is_stmt 1
 1733 001a 201C     		mov	r0, r4
 1734 001c FFF7FEFF 		bl	CySysWdtGetCount
 1735              	.LVL172:
1379:.\Generated_Source\PSoC4/CyLFClk.c **** 
 1736              		.loc 1 1379 0
 1737 0020 4219     		add	r2, r0, r5
 1738 0022 1204     		lsl	r2, r2, #16
 1739 0024 120C     		lsr	r2, r2, #16
 1740              	.LVL173:
1381:.\Generated_Source\PSoC4/CyLFClk.c ****         }
 1741              		.loc 1 1381 0
ARM GAS  C:\Users\Nick\AppData\Local\Temp\ccPDwdCo.s 			page 64


 1742 0026 201C     		mov	r0, r4
 1743              	.LVL174:
 1744 0028 311C     		mov	r1, r6
 1745 002a FFF7FEFF 		bl	CySysTimerDelayUntilMatch
 1746              	.LVL175:
 1747 002e 02E0     		b	.L155
 1748              	.L156:
1385:.\Generated_Source\PSoC4/CyLFClk.c ****         }
 1749              		.loc 1 1385 0 discriminator 1
 1750 0030 0020     		mov	r0, #0
 1751 0032 FFF7FEFF 		bl	CyHalt
 1752              	.LVL176:
 1753              	.L155:
1387:.\Generated_Source\PSoC4/CyLFClk.c **** 
 1754              		.loc 1 1387 0
 1755              		@ sp needed
 1756              	.LVL177:
 1757              	.LVL178:
 1758 0036 70BD     		pop	{r4, r5, r6, pc}
 1759              	.L159:
 1760              		.align	2
 1761              	.L158:
 1762 0038 FFFF0000 		.word	65535
 1763              		.cfi_endproc
 1764              	.LFE28:
 1765              		.size	CySysTimerDelay, .-CySysTimerDelay
 1766              		.section	.text.CySysWatchdogFeed,"ax",%progbits
 1767              		.align	2
 1768              		.global	CySysWatchdogFeed
 1769              		.code	16
 1770              		.thumb_func
 1771              		.type	CySysWatchdogFeed, %function
 1772              	CySysWatchdogFeed:
 1773              	.LFB30:
1501:.\Generated_Source\PSoC4/CyLFClk.c ****         if(counterNum == CY_SYS_WDT_COUNTER0)
 1774              		.loc 1 1501 0
 1775              		.cfi_startproc
 1776              	.LVL179:
 1777 0000 10B5     		push	{r4, lr}
 1778              		.cfi_def_cfa_offset 8
 1779              		.cfi_offset 4, -8
 1780              		.cfi_offset 14, -4
 1781 0002 041E     		sub	r4, r0, #0
1502:.\Generated_Source\PSoC4/CyLFClk.c ****         {
 1782              		.loc 1 1502 0
 1783 0004 13D1     		bne	.L161
1504:.\Generated_Source\PSoC4/CyLFClk.c ****             {
 1784              		.loc 1 1504 0
 1785 0006 FFF7FEFF 		bl	CySysWdtGetMode
 1786              	.LVL180:
 1787 000a 0328     		cmp	r0, #3
 1788 000c 03D1     		bne	.L162
1506:.\Generated_Source\PSoC4/CyLFClk.c ****             }
 1789              		.loc 1 1506 0
 1790 000e 0238     		sub	r0, r0, #2
 1791 0010 FFF7FEFF 		bl	CySysWdtClearInterrupt
 1792              	.LVL181:
ARM GAS  C:\Users\Nick\AppData\Local\Temp\ccPDwdCo.s 			page 65


 1793 0014 22E0     		b	.L160
 1794              	.L162:
1508:.\Generated_Source\PSoC4/CyLFClk.c ****             {
 1795              		.loc 1 1508 0
 1796 0016 201C     		mov	r0, r4
 1797 0018 FFF7FEFF 		bl	CySysWdtGetMode
 1798              	.LVL182:
 1799 001c 0228     		cmp	r0, #2
 1800 001e 1DD1     		bne	.L160
1510:.\Generated_Source\PSoC4/CyLFClk.c ****                 CySysWdtClearInterrupt(CY_SYS_WDT_COUNTER0_MASK);
 1801              		.loc 1 1510 0
 1802 0020 0630     		add	r0, r0, #6
 1803 0022 FFF7FEFF 		bl	CySysWdtResetCounters
 1804              	.LVL183:
1511:.\Generated_Source\PSoC4/CyLFClk.c ****             }
 1805              		.loc 1 1511 0
 1806 0026 0120     		mov	r0, #1
 1807 0028 FFF7FEFF 		bl	CySysWdtClearInterrupt
 1808              	.LVL184:
 1809 002c 16E0     		b	.L160
 1810              	.LVL185:
 1811              	.L161:
1518:.\Generated_Source\PSoC4/CyLFClk.c ****         {
 1812              		.loc 1 1518 0
 1813 002e 0128     		cmp	r0, #1
 1814 0030 14D1     		bne	.L160
1520:.\Generated_Source\PSoC4/CyLFClk.c ****             {
 1815              		.loc 1 1520 0
 1816 0032 FFF7FEFF 		bl	CySysWdtGetMode
 1817              	.LVL186:
 1818 0036 0328     		cmp	r0, #3
 1819 0038 03D1     		bne	.L164
1522:.\Generated_Source\PSoC4/CyLFClk.c ****             }
 1820              		.loc 1 1522 0
 1821 003a FD30     		add	r0, r0, #253
 1822 003c FFF7FEFF 		bl	CySysWdtClearInterrupt
 1823              	.LVL187:
 1824 0040 0CE0     		b	.L160
 1825              	.L164:
1524:.\Generated_Source\PSoC4/CyLFClk.c ****             {
 1826              		.loc 1 1524 0
 1827 0042 201C     		mov	r0, r4
 1828 0044 FFF7FEFF 		bl	CySysWdtGetMode
 1829              	.LVL188:
 1830 0048 0228     		cmp	r0, #2
 1831 004a 07D1     		bne	.L160
1526:.\Generated_Source\PSoC4/CyLFClk.c ****                 CySysWdtClearInterrupt(CY_SYS_WDT_COUNTER1_MASK);
 1832              		.loc 1 1526 0
 1833 004c 8020     		mov	r0, #128
 1834 004e 0001     		lsl	r0, r0, #4
 1835 0050 FFF7FEFF 		bl	CySysWdtResetCounters
 1836              	.LVL189:
1527:.\Generated_Source\PSoC4/CyLFClk.c ****             }
 1837              		.loc 1 1527 0
 1838 0054 8020     		mov	r0, #128
 1839 0056 4000     		lsl	r0, r0, #1
 1840 0058 FFF7FEFF 		bl	CySysWdtClearInterrupt
ARM GAS  C:\Users\Nick\AppData\Local\Temp\ccPDwdCo.s 			page 66


 1841              	.LVL190:
 1842              	.L160:
1538:.\Generated_Source\PSoC4/CyLFClk.c **** 
 1843              		.loc 1 1538 0
 1844              		@ sp needed
 1845              	.LVL191:
 1846 005c 10BD     		pop	{r4, pc}
 1847              		.cfi_endproc
 1848              	.LFE30:
 1849              		.size	CySysWatchdogFeed, .-CySysWatchdogFeed
 1850 005e C046     		.section	.rodata
 1851              		.align	2
 1852              		.set	.LANCHOR1,. + 0
 1853              		.type	counterIntMaskTbl, %object
 1854              		.size	counterIntMaskTbl, 12
 1855              	counterIntMaskTbl:
 1856 0000 04000000 		.word	4
 1857 0004 00040000 		.word	1024
 1858 0008 00000400 		.word	262144
 1859              		.data
 1860              		.align	2
 1861              		.set	.LANCHOR2,. + 0
 1862              		.type	wdtIsrMask, %object
 1863              		.size	wdtIsrMask, 4
 1864              	wdtIsrMask:
 1865 0000 04040400 		.word	263172
 1866              		.bss
 1867              		.align	2
 1868              		.set	.LANCHOR0,. + 0
 1869              		.type	lfclkPosedgeWdtCounter0Enabled, %object
 1870              		.size	lfclkPosedgeWdtCounter0Enabled, 4
 1871              	lfclkPosedgeWdtCounter0Enabled:
 1872 0000 00000000 		.space	4
 1873              		.type	lfclkPosedgeWdtCounter0Mode, %object
 1874              		.size	lfclkPosedgeWdtCounter0Mode, 4
 1875              	lfclkPosedgeWdtCounter0Mode:
 1876 0004 00000000 		.space	4
 1877              		.type	lfclkPosedgeEnabledWdtCounter.4836, %object
 1878              		.size	lfclkPosedgeEnabledWdtCounter.4836, 4
 1879              	lfclkPosedgeEnabledWdtCounter.4836:
 1880 0008 00000000 		.space	4
 1881              		.type	cySysWdtCallback, %object
 1882              		.size	cySysWdtCallback, 12
 1883              	cySysWdtCallback:
 1884 000c 00000000 		.space	12
 1884      00000000 
 1884      00000000 
 1885              		.type	disableServicedIsr, %object
 1886              		.size	disableServicedIsr, 4
 1887              	disableServicedIsr:
 1888 0018 00000000 		.space	4
 1889              		.text
 1890              	.Letext0:
 1891              		.file 2 ".\\Generated_Source\\PSoC4\\cytypes.h"
 1892              		.file 3 ".\\Generated_Source\\PSoC4\\CyLFClk.h"
 1893              		.file 4 ".\\Generated_Source\\PSoC4\\CyLib.h"