ARM GAS  C:\Users\Nick\AppData\Local\Temp\ccgmJ0U9.s 			page 1


   1              		.cpu cortex-m0
   2              		.fpu softvfp
   3              		.eabi_attribute 20, 1
   4              		.eabi_attribute 21, 1
   5              		.eabi_attribute 23, 3
   6              		.eabi_attribute 24, 1
   7              		.eabi_attribute 25, 1
   8              		.eabi_attribute 26, 1
   9              		.eabi_attribute 30, 1
  10              		.eabi_attribute 34, 0
  11              		.eabi_attribute 18, 4
  12              		.code	16
  13              		.file	"LCD_Char_1.c"
  14              		.text
  15              	.Ltext0:
  16              		.cfi_sections	.debug_frame
  17              		.section	.text.LCD_Char_1_WrCntrlNib,"ax",%progbits
  18              		.align	2
  19              		.code	16
  20              		.thumb_func
  21              		.type	LCD_Char_1_WrCntrlNib, %function
  22              	LCD_Char_1_WrCntrlNib:
  23              	.LFB11:
  24              		.file 1 ".\\Generated_Source\\PSoC4\\LCD_Char_1.c"
   1:.\Generated_Source\PSoC4/LCD_Char_1.c **** /*******************************************************************************
   2:.\Generated_Source\PSoC4/LCD_Char_1.c **** * File Name: LCD_Char_1.c
   3:.\Generated_Source\PSoC4/LCD_Char_1.c **** * Version 2.10
   4:.\Generated_Source\PSoC4/LCD_Char_1.c **** *
   5:.\Generated_Source\PSoC4/LCD_Char_1.c **** * Description:
   6:.\Generated_Source\PSoC4/LCD_Char_1.c **** *  This file provides source code for the Character LCD component's API.
   7:.\Generated_Source\PSoC4/LCD_Char_1.c **** *
   8:.\Generated_Source\PSoC4/LCD_Char_1.c **** * Note:
   9:.\Generated_Source\PSoC4/LCD_Char_1.c **** *
  10:.\Generated_Source\PSoC4/LCD_Char_1.c **** ********************************************************************************
  11:.\Generated_Source\PSoC4/LCD_Char_1.c **** * Copyright 2008-2014, Cypress Semiconductor Corporation.  All rights reserved.
  12:.\Generated_Source\PSoC4/LCD_Char_1.c **** * You may use this file only in accordance with the license, terms, conditions,
  13:.\Generated_Source\PSoC4/LCD_Char_1.c **** * disclaimers, and limitations in the end user license agreement accompanying
  14:.\Generated_Source\PSoC4/LCD_Char_1.c **** * the software package with which this file was provided.
  15:.\Generated_Source\PSoC4/LCD_Char_1.c **** *******************************************************************************/
  16:.\Generated_Source\PSoC4/LCD_Char_1.c **** 
  17:.\Generated_Source\PSoC4/LCD_Char_1.c **** #include "CyLib.h"
  18:.\Generated_Source\PSoC4/LCD_Char_1.c **** #include "LCD_Char_1.h"
  19:.\Generated_Source\PSoC4/LCD_Char_1.c **** 
  20:.\Generated_Source\PSoC4/LCD_Char_1.c **** 
  21:.\Generated_Source\PSoC4/LCD_Char_1.c **** static void LCD_Char_1_WrDatNib(uint8 nibble) ;
  22:.\Generated_Source\PSoC4/LCD_Char_1.c **** static void LCD_Char_1_WrCntrlNib(uint8 nibble) ;
  23:.\Generated_Source\PSoC4/LCD_Char_1.c **** 
  24:.\Generated_Source\PSoC4/LCD_Char_1.c **** /* Stores state of component. Indicates whether component is or not
  25:.\Generated_Source\PSoC4/LCD_Char_1.c **** * in enable state.
  26:.\Generated_Source\PSoC4/LCD_Char_1.c **** */
  27:.\Generated_Source\PSoC4/LCD_Char_1.c **** uint8 LCD_Char_1_enableState = 0u;
  28:.\Generated_Source\PSoC4/LCD_Char_1.c **** 
  29:.\Generated_Source\PSoC4/LCD_Char_1.c **** uint8 LCD_Char_1_initVar = 0u;
  30:.\Generated_Source\PSoC4/LCD_Char_1.c **** 
  31:.\Generated_Source\PSoC4/LCD_Char_1.c **** 
  32:.\Generated_Source\PSoC4/LCD_Char_1.c **** /*******************************************************************************
  33:.\Generated_Source\PSoC4/LCD_Char_1.c **** * Function Name: LCD_Char_1_Init
ARM GAS  C:\Users\Nick\AppData\Local\Temp\ccgmJ0U9.s 			page 2


  34:.\Generated_Source\PSoC4/LCD_Char_1.c **** ********************************************************************************
  35:.\Generated_Source\PSoC4/LCD_Char_1.c **** *
  36:.\Generated_Source\PSoC4/LCD_Char_1.c **** * Summary:
  37:.\Generated_Source\PSoC4/LCD_Char_1.c **** *  Performs initialization required for the components normal work.
  38:.\Generated_Source\PSoC4/LCD_Char_1.c **** *  This function initializes the LCD hardware module as follows:
  39:.\Generated_Source\PSoC4/LCD_Char_1.c **** *        Enables a 4-bit interface
  40:.\Generated_Source\PSoC4/LCD_Char_1.c **** *        Clears the display
  41:.\Generated_Source\PSoC4/LCD_Char_1.c **** *        Enables the auto cursor increment
  42:.\Generated_Source\PSoC4/LCD_Char_1.c **** *        Resets the cursor to start position
  43:.\Generated_Source\PSoC4/LCD_Char_1.c **** *  Also, it loads a custom character set to the LCD if it was defined in the customizer.
  44:.\Generated_Source\PSoC4/LCD_Char_1.c **** *
  45:.\Generated_Source\PSoC4/LCD_Char_1.c **** * Parameters:
  46:.\Generated_Source\PSoC4/LCD_Char_1.c **** *  None.
  47:.\Generated_Source\PSoC4/LCD_Char_1.c **** *
  48:.\Generated_Source\PSoC4/LCD_Char_1.c **** * Return:
  49:.\Generated_Source\PSoC4/LCD_Char_1.c **** *  None.
  50:.\Generated_Source\PSoC4/LCD_Char_1.c **** *
  51:.\Generated_Source\PSoC4/LCD_Char_1.c **** * Reentrant:
  52:.\Generated_Source\PSoC4/LCD_Char_1.c **** *  No.
  53:.\Generated_Source\PSoC4/LCD_Char_1.c **** *
  54:.\Generated_Source\PSoC4/LCD_Char_1.c **** *******************************************************************************/
  55:.\Generated_Source\PSoC4/LCD_Char_1.c **** void LCD_Char_1_Init(void) 
  56:.\Generated_Source\PSoC4/LCD_Char_1.c **** {
  57:.\Generated_Source\PSoC4/LCD_Char_1.c ****     /* INIT CODE */
  58:.\Generated_Source\PSoC4/LCD_Char_1.c ****     CyDelay(40u);                                                        /* Delay 40 ms */
  59:.\Generated_Source\PSoC4/LCD_Char_1.c ****     LCD_Char_1_WrCntrlNib(LCD_Char_1_DISPLAY_8_BIT_INIT);    /* Selects 8-bit mode */
  60:.\Generated_Source\PSoC4/LCD_Char_1.c ****     CyDelay(5u);                                                         /* Delay 5 ms */
  61:.\Generated_Source\PSoC4/LCD_Char_1.c ****     LCD_Char_1_WrCntrlNib(LCD_Char_1_DISPLAY_8_BIT_INIT);    /* Selects 8-bit mode */
  62:.\Generated_Source\PSoC4/LCD_Char_1.c ****     CyDelay(15u);                                                        /* Delay 15 ms */
  63:.\Generated_Source\PSoC4/LCD_Char_1.c ****     LCD_Char_1_WrCntrlNib(LCD_Char_1_DISPLAY_8_BIT_INIT);    /* Selects 8-bit mode */
  64:.\Generated_Source\PSoC4/LCD_Char_1.c ****     CyDelay(1u);                                                         /* Delay 1 ms */
  65:.\Generated_Source\PSoC4/LCD_Char_1.c ****     LCD_Char_1_WrCntrlNib(LCD_Char_1_DISPLAY_4_BIT_INIT);    /* Selects 4-bit mode */
  66:.\Generated_Source\PSoC4/LCD_Char_1.c ****     CyDelay(5u);                                                         /* Delay 5 ms */
  67:.\Generated_Source\PSoC4/LCD_Char_1.c **** 
  68:.\Generated_Source\PSoC4/LCD_Char_1.c ****     LCD_Char_1_WriteControl(LCD_Char_1_CURSOR_AUTO_INCR_ON);    /* Incr Cursor After Writes */
  69:.\Generated_Source\PSoC4/LCD_Char_1.c ****     LCD_Char_1_WriteControl(LCD_Char_1_DISPLAY_CURSOR_ON);      /* Turn Display, Cursor ON */
  70:.\Generated_Source\PSoC4/LCD_Char_1.c ****     LCD_Char_1_WriteControl(LCD_Char_1_DISPLAY_2_LINES_5x10);   /* 2 Lines by 5x10 Characters */
  71:.\Generated_Source\PSoC4/LCD_Char_1.c ****     LCD_Char_1_WriteControl(LCD_Char_1_DISPLAY_CURSOR_OFF);     /* Turn Display, Cursor OFF */
  72:.\Generated_Source\PSoC4/LCD_Char_1.c ****     LCD_Char_1_WriteControl(LCD_Char_1_CLEAR_DISPLAY);          /* Clear LCD Screen */
  73:.\Generated_Source\PSoC4/LCD_Char_1.c ****     LCD_Char_1_WriteControl(LCD_Char_1_DISPLAY_ON_CURSOR_OFF);  /* Turn Display ON, Cursor OFF */
  74:.\Generated_Source\PSoC4/LCD_Char_1.c ****     LCD_Char_1_WriteControl(LCD_Char_1_RESET_CURSOR_POSITION);  /* Set Cursor to 0,0 */
  75:.\Generated_Source\PSoC4/LCD_Char_1.c ****     CyDelay(5u);
  76:.\Generated_Source\PSoC4/LCD_Char_1.c **** 
  77:.\Generated_Source\PSoC4/LCD_Char_1.c ****     #if(LCD_Char_1_CUSTOM_CHAR_SET != LCD_Char_1_NONE)
  78:.\Generated_Source\PSoC4/LCD_Char_1.c ****         LCD_Char_1_LoadCustomFonts(LCD_Char_1_customFonts);
  79:.\Generated_Source\PSoC4/LCD_Char_1.c ****     #endif /* LCD_Char_1_CUSTOM_CHAR_SET != LCD_Char_1_NONE */
  80:.\Generated_Source\PSoC4/LCD_Char_1.c **** }
  81:.\Generated_Source\PSoC4/LCD_Char_1.c **** 
  82:.\Generated_Source\PSoC4/LCD_Char_1.c **** 
  83:.\Generated_Source\PSoC4/LCD_Char_1.c **** /*******************************************************************************
  84:.\Generated_Source\PSoC4/LCD_Char_1.c **** * Function Name: LCD_Char_1_Enable
  85:.\Generated_Source\PSoC4/LCD_Char_1.c **** ********************************************************************************
  86:.\Generated_Source\PSoC4/LCD_Char_1.c **** *
  87:.\Generated_Source\PSoC4/LCD_Char_1.c **** * Summary:
  88:.\Generated_Source\PSoC4/LCD_Char_1.c **** *  Turns on the display.
  89:.\Generated_Source\PSoC4/LCD_Char_1.c **** *
  90:.\Generated_Source\PSoC4/LCD_Char_1.c **** * Parameters:
ARM GAS  C:\Users\Nick\AppData\Local\Temp\ccgmJ0U9.s 			page 3


  91:.\Generated_Source\PSoC4/LCD_Char_1.c **** *  None.
  92:.\Generated_Source\PSoC4/LCD_Char_1.c **** *
  93:.\Generated_Source\PSoC4/LCD_Char_1.c **** * Return:
  94:.\Generated_Source\PSoC4/LCD_Char_1.c **** *  None.
  95:.\Generated_Source\PSoC4/LCD_Char_1.c **** *
  96:.\Generated_Source\PSoC4/LCD_Char_1.c **** * Reentrant:
  97:.\Generated_Source\PSoC4/LCD_Char_1.c **** *  No.
  98:.\Generated_Source\PSoC4/LCD_Char_1.c **** *
  99:.\Generated_Source\PSoC4/LCD_Char_1.c **** * Theory:
 100:.\Generated_Source\PSoC4/LCD_Char_1.c **** *  This function has no effect when it is called the first time as
 101:.\Generated_Source\PSoC4/LCD_Char_1.c **** *  LCD_Char_1_Init() turns on the LCD.
 102:.\Generated_Source\PSoC4/LCD_Char_1.c **** *
 103:.\Generated_Source\PSoC4/LCD_Char_1.c **** *******************************************************************************/
 104:.\Generated_Source\PSoC4/LCD_Char_1.c **** void LCD_Char_1_Enable(void) 
 105:.\Generated_Source\PSoC4/LCD_Char_1.c **** {
 106:.\Generated_Source\PSoC4/LCD_Char_1.c ****     LCD_Char_1_DisplayOn();
 107:.\Generated_Source\PSoC4/LCD_Char_1.c ****     LCD_Char_1_enableState = 1u;
 108:.\Generated_Source\PSoC4/LCD_Char_1.c **** }
 109:.\Generated_Source\PSoC4/LCD_Char_1.c **** 
 110:.\Generated_Source\PSoC4/LCD_Char_1.c **** 
 111:.\Generated_Source\PSoC4/LCD_Char_1.c **** /*******************************************************************************
 112:.\Generated_Source\PSoC4/LCD_Char_1.c **** * Function Name: LCD_Char_1_Start
 113:.\Generated_Source\PSoC4/LCD_Char_1.c **** ********************************************************************************
 114:.\Generated_Source\PSoC4/LCD_Char_1.c **** *
 115:.\Generated_Source\PSoC4/LCD_Char_1.c **** * Summary:
 116:.\Generated_Source\PSoC4/LCD_Char_1.c **** *  Performs initialization required for the components normal work.
 117:.\Generated_Source\PSoC4/LCD_Char_1.c **** *  This function initializes the LCD hardware module as follows:
 118:.\Generated_Source\PSoC4/LCD_Char_1.c **** *        Enables 4-bit interface
 119:.\Generated_Source\PSoC4/LCD_Char_1.c **** *        Clears the display
 120:.\Generated_Source\PSoC4/LCD_Char_1.c **** *        Enables auto cursor increment
 121:.\Generated_Source\PSoC4/LCD_Char_1.c **** *        Resets the cursor to start position
 122:.\Generated_Source\PSoC4/LCD_Char_1.c **** *  Also, it loads a custom character set to the LCD if it was defined in the customizer.
 123:.\Generated_Source\PSoC4/LCD_Char_1.c **** *  If it was not the first call in this project, then it just turns on the
 124:.\Generated_Source\PSoC4/LCD_Char_1.c **** *  display
 125:.\Generated_Source\PSoC4/LCD_Char_1.c **** *
 126:.\Generated_Source\PSoC4/LCD_Char_1.c **** *
 127:.\Generated_Source\PSoC4/LCD_Char_1.c **** * Parameters:
 128:.\Generated_Source\PSoC4/LCD_Char_1.c **** *  LCD_Char_1_initVar - global variable.
 129:.\Generated_Source\PSoC4/LCD_Char_1.c **** *
 130:.\Generated_Source\PSoC4/LCD_Char_1.c **** * Return:
 131:.\Generated_Source\PSoC4/LCD_Char_1.c **** *  LCD_Char_1_initVar - global variable.
 132:.\Generated_Source\PSoC4/LCD_Char_1.c **** *
 133:.\Generated_Source\PSoC4/LCD_Char_1.c **** * Reentrant:
 134:.\Generated_Source\PSoC4/LCD_Char_1.c **** *  No.
 135:.\Generated_Source\PSoC4/LCD_Char_1.c **** *
 136:.\Generated_Source\PSoC4/LCD_Char_1.c **** *******************************************************************************/
 137:.\Generated_Source\PSoC4/LCD_Char_1.c **** void LCD_Char_1_Start(void) 
 138:.\Generated_Source\PSoC4/LCD_Char_1.c **** {
 139:.\Generated_Source\PSoC4/LCD_Char_1.c ****     /* If not initialized, perform initialization */
 140:.\Generated_Source\PSoC4/LCD_Char_1.c ****     if(LCD_Char_1_initVar == 0u)
 141:.\Generated_Source\PSoC4/LCD_Char_1.c ****     {
 142:.\Generated_Source\PSoC4/LCD_Char_1.c ****         LCD_Char_1_Init();
 143:.\Generated_Source\PSoC4/LCD_Char_1.c ****         LCD_Char_1_initVar = 1u;
 144:.\Generated_Source\PSoC4/LCD_Char_1.c ****     }
 145:.\Generated_Source\PSoC4/LCD_Char_1.c **** 
 146:.\Generated_Source\PSoC4/LCD_Char_1.c ****     /* Turn on the LCD */
 147:.\Generated_Source\PSoC4/LCD_Char_1.c ****     LCD_Char_1_Enable();
ARM GAS  C:\Users\Nick\AppData\Local\Temp\ccgmJ0U9.s 			page 4


 148:.\Generated_Source\PSoC4/LCD_Char_1.c **** }
 149:.\Generated_Source\PSoC4/LCD_Char_1.c **** 
 150:.\Generated_Source\PSoC4/LCD_Char_1.c **** 
 151:.\Generated_Source\PSoC4/LCD_Char_1.c **** /*******************************************************************************
 152:.\Generated_Source\PSoC4/LCD_Char_1.c **** * Function Name: LCD_Char_1_Stop
 153:.\Generated_Source\PSoC4/LCD_Char_1.c **** ********************************************************************************
 154:.\Generated_Source\PSoC4/LCD_Char_1.c **** *
 155:.\Generated_Source\PSoC4/LCD_Char_1.c **** * Summary:
 156:.\Generated_Source\PSoC4/LCD_Char_1.c **** *  Turns off the display of the LCD screen.
 157:.\Generated_Source\PSoC4/LCD_Char_1.c **** *
 158:.\Generated_Source\PSoC4/LCD_Char_1.c **** * Parameters:
 159:.\Generated_Source\PSoC4/LCD_Char_1.c **** *  None.
 160:.\Generated_Source\PSoC4/LCD_Char_1.c **** *
 161:.\Generated_Source\PSoC4/LCD_Char_1.c **** * Return:
 162:.\Generated_Source\PSoC4/LCD_Char_1.c **** *  None.
 163:.\Generated_Source\PSoC4/LCD_Char_1.c **** *
 164:.\Generated_Source\PSoC4/LCD_Char_1.c **** * Reentrant:
 165:.\Generated_Source\PSoC4/LCD_Char_1.c **** *  No.
 166:.\Generated_Source\PSoC4/LCD_Char_1.c **** *
 167:.\Generated_Source\PSoC4/LCD_Char_1.c **** *******************************************************************************/
 168:.\Generated_Source\PSoC4/LCD_Char_1.c **** void LCD_Char_1_Stop(void) 
 169:.\Generated_Source\PSoC4/LCD_Char_1.c **** {
 170:.\Generated_Source\PSoC4/LCD_Char_1.c ****     /* Calls LCD Off Macro */
 171:.\Generated_Source\PSoC4/LCD_Char_1.c ****     LCD_Char_1_DisplayOff();
 172:.\Generated_Source\PSoC4/LCD_Char_1.c ****     LCD_Char_1_enableState = 0u;
 173:.\Generated_Source\PSoC4/LCD_Char_1.c **** }
 174:.\Generated_Source\PSoC4/LCD_Char_1.c **** 
 175:.\Generated_Source\PSoC4/LCD_Char_1.c **** 
 176:.\Generated_Source\PSoC4/LCD_Char_1.c **** /*******************************************************************************
 177:.\Generated_Source\PSoC4/LCD_Char_1.c **** *  Function Name: LCD_Char_1_Position
 178:.\Generated_Source\PSoC4/LCD_Char_1.c **** ********************************************************************************
 179:.\Generated_Source\PSoC4/LCD_Char_1.c **** *
 180:.\Generated_Source\PSoC4/LCD_Char_1.c **** * Summary:
 181:.\Generated_Source\PSoC4/LCD_Char_1.c **** *  Moves the active cursor location to a point specified by the input arguments
 182:.\Generated_Source\PSoC4/LCD_Char_1.c **** *
 183:.\Generated_Source\PSoC4/LCD_Char_1.c **** * Parameters:
 184:.\Generated_Source\PSoC4/LCD_Char_1.c **** *  row:    Specific row of LCD module to be written
 185:.\Generated_Source\PSoC4/LCD_Char_1.c **** *  column: Column of LCD module to be written
 186:.\Generated_Source\PSoC4/LCD_Char_1.c **** *
 187:.\Generated_Source\PSoC4/LCD_Char_1.c **** * Return:
 188:.\Generated_Source\PSoC4/LCD_Char_1.c **** *  None.
 189:.\Generated_Source\PSoC4/LCD_Char_1.c **** *
 190:.\Generated_Source\PSoC4/LCD_Char_1.c **** * Note:
 191:.\Generated_Source\PSoC4/LCD_Char_1.c **** *  This only applies for LCD displays that use the 2X40 address mode.
 192:.\Generated_Source\PSoC4/LCD_Char_1.c **** *  In this case Row 2 starts with a 0x28 offset from Row 1.
 193:.\Generated_Source\PSoC4/LCD_Char_1.c **** *  When there are more than 2 rows, each row must be fewer than 20 characters.
 194:.\Generated_Source\PSoC4/LCD_Char_1.c **** *
 195:.\Generated_Source\PSoC4/LCD_Char_1.c **** *******************************************************************************/
 196:.\Generated_Source\PSoC4/LCD_Char_1.c **** void LCD_Char_1_Position(uint8 row, uint8 column) 
 197:.\Generated_Source\PSoC4/LCD_Char_1.c **** {
 198:.\Generated_Source\PSoC4/LCD_Char_1.c ****     switch (row)
 199:.\Generated_Source\PSoC4/LCD_Char_1.c ****     {
 200:.\Generated_Source\PSoC4/LCD_Char_1.c ****         case (uint8)0:
 201:.\Generated_Source\PSoC4/LCD_Char_1.c ****             LCD_Char_1_WriteControl(LCD_Char_1_ROW_0_START + column);
 202:.\Generated_Source\PSoC4/LCD_Char_1.c ****             break;
 203:.\Generated_Source\PSoC4/LCD_Char_1.c ****         case (uint8) 1:
 204:.\Generated_Source\PSoC4/LCD_Char_1.c ****             LCD_Char_1_WriteControl(LCD_Char_1_ROW_1_START + column);
ARM GAS  C:\Users\Nick\AppData\Local\Temp\ccgmJ0U9.s 			page 5


 205:.\Generated_Source\PSoC4/LCD_Char_1.c ****             break;
 206:.\Generated_Source\PSoC4/LCD_Char_1.c ****         case (uint8) 2:
 207:.\Generated_Source\PSoC4/LCD_Char_1.c ****             LCD_Char_1_WriteControl(LCD_Char_1_ROW_2_START + column);
 208:.\Generated_Source\PSoC4/LCD_Char_1.c ****             break;
 209:.\Generated_Source\PSoC4/LCD_Char_1.c ****         case (uint8) 3:
 210:.\Generated_Source\PSoC4/LCD_Char_1.c ****             LCD_Char_1_WriteControl(LCD_Char_1_ROW_3_START + column);
 211:.\Generated_Source\PSoC4/LCD_Char_1.c ****             break;
 212:.\Generated_Source\PSoC4/LCD_Char_1.c ****         default:
 213:.\Generated_Source\PSoC4/LCD_Char_1.c ****             /* if default case is hit, invalid row argument was passed.*/
 214:.\Generated_Source\PSoC4/LCD_Char_1.c ****             break;
 215:.\Generated_Source\PSoC4/LCD_Char_1.c ****     }
 216:.\Generated_Source\PSoC4/LCD_Char_1.c **** }
 217:.\Generated_Source\PSoC4/LCD_Char_1.c **** 
 218:.\Generated_Source\PSoC4/LCD_Char_1.c **** 
 219:.\Generated_Source\PSoC4/LCD_Char_1.c **** /*******************************************************************************
 220:.\Generated_Source\PSoC4/LCD_Char_1.c **** * Function Name: LCD_Char_1_PrintString
 221:.\Generated_Source\PSoC4/LCD_Char_1.c **** ********************************************************************************
 222:.\Generated_Source\PSoC4/LCD_Char_1.c **** *
 223:.\Generated_Source\PSoC4/LCD_Char_1.c **** * Summary:
 224:.\Generated_Source\PSoC4/LCD_Char_1.c **** *  Writes a zero terminated string to the LCD.
 225:.\Generated_Source\PSoC4/LCD_Char_1.c **** *
 226:.\Generated_Source\PSoC4/LCD_Char_1.c **** * Parameters:
 227:.\Generated_Source\PSoC4/LCD_Char_1.c **** *  string: Pointer to head of char8 array to be written to the LCD module
 228:.\Generated_Source\PSoC4/LCD_Char_1.c **** *
 229:.\Generated_Source\PSoC4/LCD_Char_1.c **** * Return:
 230:.\Generated_Source\PSoC4/LCD_Char_1.c **** *  None.
 231:.\Generated_Source\PSoC4/LCD_Char_1.c **** *
 232:.\Generated_Source\PSoC4/LCD_Char_1.c **** *******************************************************************************/
 233:.\Generated_Source\PSoC4/LCD_Char_1.c **** void LCD_Char_1_PrintString(char8 const string[]) 
 234:.\Generated_Source\PSoC4/LCD_Char_1.c **** {
 235:.\Generated_Source\PSoC4/LCD_Char_1.c ****     uint8 indexU8 = 1u;
 236:.\Generated_Source\PSoC4/LCD_Char_1.c ****     char8 current = *string;
 237:.\Generated_Source\PSoC4/LCD_Char_1.c **** 
 238:.\Generated_Source\PSoC4/LCD_Char_1.c ****     /* Until null is reached, print next character */
 239:.\Generated_Source\PSoC4/LCD_Char_1.c ****     while((char8) '\0' != current)
 240:.\Generated_Source\PSoC4/LCD_Char_1.c ****     {
 241:.\Generated_Source\PSoC4/LCD_Char_1.c ****         LCD_Char_1_WriteData((uint8)current);
 242:.\Generated_Source\PSoC4/LCD_Char_1.c ****         current = string[indexU8];
 243:.\Generated_Source\PSoC4/LCD_Char_1.c ****         indexU8++;
 244:.\Generated_Source\PSoC4/LCD_Char_1.c ****     }
 245:.\Generated_Source\PSoC4/LCD_Char_1.c **** }
 246:.\Generated_Source\PSoC4/LCD_Char_1.c **** 
 247:.\Generated_Source\PSoC4/LCD_Char_1.c **** 
 248:.\Generated_Source\PSoC4/LCD_Char_1.c **** /*******************************************************************************
 249:.\Generated_Source\PSoC4/LCD_Char_1.c **** *  Function Name: LCD_Char_1_PutChar
 250:.\Generated_Source\PSoC4/LCD_Char_1.c **** ********************************************************************************
 251:.\Generated_Source\PSoC4/LCD_Char_1.c **** *
 252:.\Generated_Source\PSoC4/LCD_Char_1.c **** * Summary:
 253:.\Generated_Source\PSoC4/LCD_Char_1.c **** *  Writes a single character to the current cursor position of the LCD module.
 254:.\Generated_Source\PSoC4/LCD_Char_1.c **** *  Custom character names (_CUSTOM_0 through
 255:.\Generated_Source\PSoC4/LCD_Char_1.c **** *  _CUSTOM_7) are acceptable as inputs.
 256:.\Generated_Source\PSoC4/LCD_Char_1.c **** *
 257:.\Generated_Source\PSoC4/LCD_Char_1.c **** * Parameters:
 258:.\Generated_Source\PSoC4/LCD_Char_1.c **** *  character: Character to be written to LCD
 259:.\Generated_Source\PSoC4/LCD_Char_1.c **** *
 260:.\Generated_Source\PSoC4/LCD_Char_1.c **** * Return:
 261:.\Generated_Source\PSoC4/LCD_Char_1.c **** *  None.
ARM GAS  C:\Users\Nick\AppData\Local\Temp\ccgmJ0U9.s 			page 6


 262:.\Generated_Source\PSoC4/LCD_Char_1.c **** *
 263:.\Generated_Source\PSoC4/LCD_Char_1.c **** *******************************************************************************/
 264:.\Generated_Source\PSoC4/LCD_Char_1.c **** void LCD_Char_1_PutChar(char8 character) 
 265:.\Generated_Source\PSoC4/LCD_Char_1.c **** {
 266:.\Generated_Source\PSoC4/LCD_Char_1.c ****     LCD_Char_1_WriteData((uint8)character);
 267:.\Generated_Source\PSoC4/LCD_Char_1.c **** }
 268:.\Generated_Source\PSoC4/LCD_Char_1.c **** 
 269:.\Generated_Source\PSoC4/LCD_Char_1.c **** 
 270:.\Generated_Source\PSoC4/LCD_Char_1.c **** /*******************************************************************************
 271:.\Generated_Source\PSoC4/LCD_Char_1.c **** *  Function Name: LCD_Char_1_WriteData
 272:.\Generated_Source\PSoC4/LCD_Char_1.c **** ********************************************************************************
 273:.\Generated_Source\PSoC4/LCD_Char_1.c **** *
 274:.\Generated_Source\PSoC4/LCD_Char_1.c **** * Summary:
 275:.\Generated_Source\PSoC4/LCD_Char_1.c **** *  Writes a data byte to the LCD module's Data Display RAM.
 276:.\Generated_Source\PSoC4/LCD_Char_1.c **** *
 277:.\Generated_Source\PSoC4/LCD_Char_1.c **** * Parameters:
 278:.\Generated_Source\PSoC4/LCD_Char_1.c **** *  dByte: Byte to be written to the LCD module
 279:.\Generated_Source\PSoC4/LCD_Char_1.c **** *
 280:.\Generated_Source\PSoC4/LCD_Char_1.c **** * Return:
 281:.\Generated_Source\PSoC4/LCD_Char_1.c **** *  None.
 282:.\Generated_Source\PSoC4/LCD_Char_1.c **** *
 283:.\Generated_Source\PSoC4/LCD_Char_1.c **** *******************************************************************************/
 284:.\Generated_Source\PSoC4/LCD_Char_1.c **** void LCD_Char_1_WriteData(uint8 dByte) 
 285:.\Generated_Source\PSoC4/LCD_Char_1.c **** {
 286:.\Generated_Source\PSoC4/LCD_Char_1.c ****     uint8 nibble;
 287:.\Generated_Source\PSoC4/LCD_Char_1.c **** 
 288:.\Generated_Source\PSoC4/LCD_Char_1.c ****     LCD_Char_1_IsReady();
 289:.\Generated_Source\PSoC4/LCD_Char_1.c ****     nibble = dByte >> LCD_Char_1_NIBBLE_SHIFT;
 290:.\Generated_Source\PSoC4/LCD_Char_1.c **** 
 291:.\Generated_Source\PSoC4/LCD_Char_1.c ****     /* Write high nibble */
 292:.\Generated_Source\PSoC4/LCD_Char_1.c ****     LCD_Char_1_WrDatNib(nibble);
 293:.\Generated_Source\PSoC4/LCD_Char_1.c **** 
 294:.\Generated_Source\PSoC4/LCD_Char_1.c ****     nibble = dByte & LCD_Char_1_NIBBLE_MASK;
 295:.\Generated_Source\PSoC4/LCD_Char_1.c ****     /* Write low nibble */
 296:.\Generated_Source\PSoC4/LCD_Char_1.c ****     LCD_Char_1_WrDatNib(nibble);
 297:.\Generated_Source\PSoC4/LCD_Char_1.c **** }
 298:.\Generated_Source\PSoC4/LCD_Char_1.c **** 
 299:.\Generated_Source\PSoC4/LCD_Char_1.c **** 
 300:.\Generated_Source\PSoC4/LCD_Char_1.c **** /*******************************************************************************
 301:.\Generated_Source\PSoC4/LCD_Char_1.c **** *  Function Name: LCD_Char_1_WriteControl
 302:.\Generated_Source\PSoC4/LCD_Char_1.c **** ********************************************************************************
 303:.\Generated_Source\PSoC4/LCD_Char_1.c **** *
 304:.\Generated_Source\PSoC4/LCD_Char_1.c **** * Summary:
 305:.\Generated_Source\PSoC4/LCD_Char_1.c **** *  Writes a command byte to the LCD module.
 306:.\Generated_Source\PSoC4/LCD_Char_1.c **** *
 307:.\Generated_Source\PSoC4/LCD_Char_1.c **** * Parameters:
 308:.\Generated_Source\PSoC4/LCD_Char_1.c **** *  cByte:  The byte to be written to theLCD module
 309:.\Generated_Source\PSoC4/LCD_Char_1.c **** * 
 310:.\Generated_Source\PSoC4/LCD_Char_1.c **** * Return:
 311:.\Generated_Source\PSoC4/LCD_Char_1.c **** *  None.
 312:.\Generated_Source\PSoC4/LCD_Char_1.c **** *
 313:.\Generated_Source\PSoC4/LCD_Char_1.c **** *******************************************************************************/
 314:.\Generated_Source\PSoC4/LCD_Char_1.c **** void LCD_Char_1_WriteControl(uint8 cByte) 
 315:.\Generated_Source\PSoC4/LCD_Char_1.c **** {
 316:.\Generated_Source\PSoC4/LCD_Char_1.c ****     uint8 nibble;
 317:.\Generated_Source\PSoC4/LCD_Char_1.c **** 
 318:.\Generated_Source\PSoC4/LCD_Char_1.c ****     LCD_Char_1_IsReady();
ARM GAS  C:\Users\Nick\AppData\Local\Temp\ccgmJ0U9.s 			page 7


 319:.\Generated_Source\PSoC4/LCD_Char_1.c **** 
 320:.\Generated_Source\PSoC4/LCD_Char_1.c ****     nibble = cByte >> LCD_Char_1_NIBBLE_SHIFT;
 321:.\Generated_Source\PSoC4/LCD_Char_1.c ****     
 322:.\Generated_Source\PSoC4/LCD_Char_1.c ****     /* WrCntrlNib(High Nibble) */
 323:.\Generated_Source\PSoC4/LCD_Char_1.c ****     LCD_Char_1_WrCntrlNib(nibble);
 324:.\Generated_Source\PSoC4/LCD_Char_1.c ****     nibble = cByte & LCD_Char_1_NIBBLE_MASK;
 325:.\Generated_Source\PSoC4/LCD_Char_1.c **** 
 326:.\Generated_Source\PSoC4/LCD_Char_1.c ****     /* WrCntrlNib(Low Nibble) */
 327:.\Generated_Source\PSoC4/LCD_Char_1.c ****     LCD_Char_1_WrCntrlNib(nibble);
 328:.\Generated_Source\PSoC4/LCD_Char_1.c **** }
 329:.\Generated_Source\PSoC4/LCD_Char_1.c **** 
 330:.\Generated_Source\PSoC4/LCD_Char_1.c **** 
 331:.\Generated_Source\PSoC4/LCD_Char_1.c **** /*******************************************************************************
 332:.\Generated_Source\PSoC4/LCD_Char_1.c **** * Function Name: LCD_Char_1_IsReady
 333:.\Generated_Source\PSoC4/LCD_Char_1.c **** ********************************************************************************
 334:.\Generated_Source\PSoC4/LCD_Char_1.c **** *
 335:.\Generated_Source\PSoC4/LCD_Char_1.c **** * Summary:
 336:.\Generated_Source\PSoC4/LCD_Char_1.c **** *  Polls the LCD until the ready bit is set or a timeout occurs.
 337:.\Generated_Source\PSoC4/LCD_Char_1.c **** *
 338:.\Generated_Source\PSoC4/LCD_Char_1.c **** * Parameters:
 339:.\Generated_Source\PSoC4/LCD_Char_1.c **** *  None.
 340:.\Generated_Source\PSoC4/LCD_Char_1.c **** *
 341:.\Generated_Source\PSoC4/LCD_Char_1.c **** * Return:
 342:.\Generated_Source\PSoC4/LCD_Char_1.c **** *  None.
 343:.\Generated_Source\PSoC4/LCD_Char_1.c **** *
 344:.\Generated_Source\PSoC4/LCD_Char_1.c **** * Note:
 345:.\Generated_Source\PSoC4/LCD_Char_1.c **** *  Changes the pins to High-Z.
 346:.\Generated_Source\PSoC4/LCD_Char_1.c **** *
 347:.\Generated_Source\PSoC4/LCD_Char_1.c **** *******************************************************************************/
 348:.\Generated_Source\PSoC4/LCD_Char_1.c **** void LCD_Char_1_IsReady(void) 
 349:.\Generated_Source\PSoC4/LCD_Char_1.c **** {
 350:.\Generated_Source\PSoC4/LCD_Char_1.c ****     uint32 value;
 351:.\Generated_Source\PSoC4/LCD_Char_1.c ****     uint32 timeout;
 352:.\Generated_Source\PSoC4/LCD_Char_1.c ****     timeout = LCD_Char_1_READY_DELAY;
 353:.\Generated_Source\PSoC4/LCD_Char_1.c **** 
 354:.\Generated_Source\PSoC4/LCD_Char_1.c ****     /* Clear LCD port*/
 355:.\Generated_Source\PSoC4/LCD_Char_1.c ****     LCD_Char_1_PORT_DR_REG &= ((uint32)(~LCD_Char_1_PORT_MASK));
 356:.\Generated_Source\PSoC4/LCD_Char_1.c **** 
 357:.\Generated_Source\PSoC4/LCD_Char_1.c ****     /* PSoC4 has a little different from PSoC3/5 port/pin organization for setting Drive Modes.
 358:.\Generated_Source\PSoC4/LCD_Char_1.c ****   
 359:.\Generated_Source\PSoC4/LCD_Char_1.c ****     */
 360:.\Generated_Source\PSoC4/LCD_Char_1.c ****     #if (CY_PSOC4)
 361:.\Generated_Source\PSoC4/LCD_Char_1.c ****         
 362:.\Generated_Source\PSoC4/LCD_Char_1.c ****         /* Mask off data pins to clear old values out */
 363:.\Generated_Source\PSoC4/LCD_Char_1.c ****         value = LCD_Char_1_PORT_PC_REG & ((uint32) (~ LCD_Char_1_DM_DATA_MASK));
 364:.\Generated_Source\PSoC4/LCD_Char_1.c ****         /* Load in high Z values for data pins, others unchanged */
 365:.\Generated_Source\PSoC4/LCD_Char_1.c ****         LCD_Char_1_PORT_PC_REG = value | LCD_Char_1_HIGH_Z_DATA_DM;
 366:.\Generated_Source\PSoC4/LCD_Char_1.c **** 
 367:.\Generated_Source\PSoC4/LCD_Char_1.c ****     #else
 368:.\Generated_Source\PSoC4/LCD_Char_1.c ****     
 369:.\Generated_Source\PSoC4/LCD_Char_1.c ****         /* Change Port to High-Z Status on data pins */
 370:.\Generated_Source\PSoC4/LCD_Char_1.c **** 
 371:.\Generated_Source\PSoC4/LCD_Char_1.c ****         /* Mask off data pins to clear old values out */
 372:.\Generated_Source\PSoC4/LCD_Char_1.c ****         value = LCD_Char_1_PORT_DM0_REG & ((uint8)(~LCD_Char_1_DATA_MASK));
 373:.\Generated_Source\PSoC4/LCD_Char_1.c ****         /* Load in high Z values for data pins, others unchanged */
 374:.\Generated_Source\PSoC4/LCD_Char_1.c ****         LCD_Char_1_PORT_DM0_REG = value | (LCD_Char_1_HIGH_Z_DM0 & LCD_Char_1_DATA_MASK);
 375:.\Generated_Source\PSoC4/LCD_Char_1.c **** 
ARM GAS  C:\Users\Nick\AppData\Local\Temp\ccgmJ0U9.s 			page 8


 376:.\Generated_Source\PSoC4/LCD_Char_1.c ****         /* Mask off data pins to clear old values out */
 377:.\Generated_Source\PSoC4/LCD_Char_1.c ****         value = LCD_Char_1_PORT_DM1_REG & ((uint8)(~LCD_Char_1_DATA_MASK));
 378:.\Generated_Source\PSoC4/LCD_Char_1.c ****         /* Load in high Z values for data pins, others unchanged */
 379:.\Generated_Source\PSoC4/LCD_Char_1.c ****         LCD_Char_1_PORT_DM1_REG = value;
 380:.\Generated_Source\PSoC4/LCD_Char_1.c **** 
 381:.\Generated_Source\PSoC4/LCD_Char_1.c ****         /* Mask off data pins to clear old values out */
 382:.\Generated_Source\PSoC4/LCD_Char_1.c ****         value = LCD_Char_1_PORT_DM2_REG & ((uint8)(~LCD_Char_1_DATA_MASK));
 383:.\Generated_Source\PSoC4/LCD_Char_1.c ****         /* Load in high Z values for data pins, others unchanged */
 384:.\Generated_Source\PSoC4/LCD_Char_1.c ****         LCD_Char_1_PORT_DM2_REG = value;
 385:.\Generated_Source\PSoC4/LCD_Char_1.c ****     
 386:.\Generated_Source\PSoC4/LCD_Char_1.c ****     #endif /* CY_PSOC4 */
 387:.\Generated_Source\PSoC4/LCD_Char_1.c ****     
 388:.\Generated_Source\PSoC4/LCD_Char_1.c ****     /* Make sure RS is low */
 389:.\Generated_Source\PSoC4/LCD_Char_1.c ****     LCD_Char_1_PORT_DR_REG &= ((uint32)(~LCD_Char_1_RS));
 390:.\Generated_Source\PSoC4/LCD_Char_1.c **** 
 391:.\Generated_Source\PSoC4/LCD_Char_1.c ****     /* Set R/W high to read */
 392:.\Generated_Source\PSoC4/LCD_Char_1.c ****     LCD_Char_1_PORT_DR_REG |= LCD_Char_1_RW;
 393:.\Generated_Source\PSoC4/LCD_Char_1.c **** 
 394:.\Generated_Source\PSoC4/LCD_Char_1.c ****     do
 395:.\Generated_Source\PSoC4/LCD_Char_1.c ****     {
 396:.\Generated_Source\PSoC4/LCD_Char_1.c ****         /* 40 ns delay required before rising Enable and 500ns between neighbour Enables */
 397:.\Generated_Source\PSoC4/LCD_Char_1.c ****         CyDelayUs(0u);
 398:.\Generated_Source\PSoC4/LCD_Char_1.c **** 
 399:.\Generated_Source\PSoC4/LCD_Char_1.c ****         /* Set E high */
 400:.\Generated_Source\PSoC4/LCD_Char_1.c ****         LCD_Char_1_PORT_DR_REG |= LCD_Char_1_E;
 401:.\Generated_Source\PSoC4/LCD_Char_1.c **** 
 402:.\Generated_Source\PSoC4/LCD_Char_1.c ****         /* 360 ns delay setup time for data pins */
 403:.\Generated_Source\PSoC4/LCD_Char_1.c ****         CyDelayUs(1u);
 404:.\Generated_Source\PSoC4/LCD_Char_1.c **** 
 405:.\Generated_Source\PSoC4/LCD_Char_1.c ****         /* Get port state */
 406:.\Generated_Source\PSoC4/LCD_Char_1.c ****         value = LCD_Char_1_PORT_PS_REG;
 407:.\Generated_Source\PSoC4/LCD_Char_1.c **** 
 408:.\Generated_Source\PSoC4/LCD_Char_1.c ****         /* Set enable low */
 409:.\Generated_Source\PSoC4/LCD_Char_1.c ****         LCD_Char_1_PORT_DR_REG &= ((uint32)(~LCD_Char_1_E));
 410:.\Generated_Source\PSoC4/LCD_Char_1.c **** 
 411:.\Generated_Source\PSoC4/LCD_Char_1.c ****         /* This gives true delay between disabling Enable bit and polling Ready bit */
 412:.\Generated_Source\PSoC4/LCD_Char_1.c ****         CyDelayUs(0u);
 413:.\Generated_Source\PSoC4/LCD_Char_1.c **** 
 414:.\Generated_Source\PSoC4/LCD_Char_1.c ****         /* Extract ready bit */
 415:.\Generated_Source\PSoC4/LCD_Char_1.c ****         value &= LCD_Char_1_READY_BIT;
 416:.\Generated_Source\PSoC4/LCD_Char_1.c **** 
 417:.\Generated_Source\PSoC4/LCD_Char_1.c ****         /* Set E high as we in 4-bit interface we need extra operation */
 418:.\Generated_Source\PSoC4/LCD_Char_1.c ****         LCD_Char_1_PORT_DR_REG |= LCD_Char_1_E;
 419:.\Generated_Source\PSoC4/LCD_Char_1.c **** 
 420:.\Generated_Source\PSoC4/LCD_Char_1.c ****         /* 360 ns delay setup time for data pins */
 421:.\Generated_Source\PSoC4/LCD_Char_1.c ****         CyDelayUs(1u);
 422:.\Generated_Source\PSoC4/LCD_Char_1.c **** 
 423:.\Generated_Source\PSoC4/LCD_Char_1.c ****         /* Set enable low */
 424:.\Generated_Source\PSoC4/LCD_Char_1.c ****         LCD_Char_1_PORT_DR_REG &= ((uint32)(~LCD_Char_1_E));
 425:.\Generated_Source\PSoC4/LCD_Char_1.c **** 
 426:.\Generated_Source\PSoC4/LCD_Char_1.c ****         /* If LCD is not ready make a delay */
 427:.\Generated_Source\PSoC4/LCD_Char_1.c ****         if (value == 0u)
 428:.\Generated_Source\PSoC4/LCD_Char_1.c ****         {
 429:.\Generated_Source\PSoC4/LCD_Char_1.c ****             CyDelayUs(10u);
 430:.\Generated_Source\PSoC4/LCD_Char_1.c ****         }
 431:.\Generated_Source\PSoC4/LCD_Char_1.c **** 
 432:.\Generated_Source\PSoC4/LCD_Char_1.c ****         /* Repeat until bit 4 is not zero or until timeout. */
ARM GAS  C:\Users\Nick\AppData\Local\Temp\ccgmJ0U9.s 			page 9


 433:.\Generated_Source\PSoC4/LCD_Char_1.c ****         timeout--;
 434:.\Generated_Source\PSoC4/LCD_Char_1.c **** 
 435:.\Generated_Source\PSoC4/LCD_Char_1.c ****     } while ((value != 0u) && (timeout > 0u));
 436:.\Generated_Source\PSoC4/LCD_Char_1.c **** 
 437:.\Generated_Source\PSoC4/LCD_Char_1.c ****     /* Set R/W low to write */
 438:.\Generated_Source\PSoC4/LCD_Char_1.c ****     LCD_Char_1_PORT_DR_REG &= ((uint32)(~LCD_Char_1_RW));
 439:.\Generated_Source\PSoC4/LCD_Char_1.c **** 
 440:.\Generated_Source\PSoC4/LCD_Char_1.c ****     /* Clear LCD port*/
 441:.\Generated_Source\PSoC4/LCD_Char_1.c ****     LCD_Char_1_PORT_DR_REG &= ((uint32)(~LCD_Char_1_PORT_MASK));
 442:.\Generated_Source\PSoC4/LCD_Char_1.c **** 
 443:.\Generated_Source\PSoC4/LCD_Char_1.c ****     #if (CY_PSOC4)
 444:.\Generated_Source\PSoC4/LCD_Char_1.c ****         
 445:.\Generated_Source\PSoC4/LCD_Char_1.c ****         /* Mask off data pins to clear old values out */
 446:.\Generated_Source\PSoC4/LCD_Char_1.c ****         value = LCD_Char_1_PORT_PC_REG & ((uint32)(~ LCD_Char_1_DM_DATA_MASK));
 447:.\Generated_Source\PSoC4/LCD_Char_1.c ****         /* Load in high Z values for data pins, others unchanged */
 448:.\Generated_Source\PSoC4/LCD_Char_1.c ****         LCD_Char_1_PORT_PC_REG = value | LCD_Char_1_STRONG_DATA_DM;
 449:.\Generated_Source\PSoC4/LCD_Char_1.c **** 
 450:.\Generated_Source\PSoC4/LCD_Char_1.c ****     #else
 451:.\Generated_Source\PSoC4/LCD_Char_1.c **** 
 452:.\Generated_Source\PSoC4/LCD_Char_1.c ****         /* Change Port to Output (Strong) on data pins */
 453:.\Generated_Source\PSoC4/LCD_Char_1.c ****         /* Mask off data pins to clear high z values out. Configure data pins 
 454:.\Generated_Source\PSoC4/LCD_Char_1.c ****         * to Strong Drive, others unchanged.
 455:.\Generated_Source\PSoC4/LCD_Char_1.c ****         */
 456:.\Generated_Source\PSoC4/LCD_Char_1.c ****         LCD_Char_1_PORT_DM0_REG &= ((uint8)(~LCD_Char_1_DATA_MASK));
 457:.\Generated_Source\PSoC4/LCD_Char_1.c ****         /* Mask off data pins to clear high z values out */
 458:.\Generated_Source\PSoC4/LCD_Char_1.c ****         value = LCD_Char_1_PORT_DM1_REG & ((uint8)(~LCD_Char_1_DATA_MASK));
 459:.\Generated_Source\PSoC4/LCD_Char_1.c ****         /* Configure data pins to Strong Drive, others unchanged */
 460:.\Generated_Source\PSoC4/LCD_Char_1.c ****         LCD_Char_1_PORT_DM1_REG = value | (LCD_Char_1_STRONG_DM1 & LCD_Char_1_DATA_MASK);
 461:.\Generated_Source\PSoC4/LCD_Char_1.c **** 
 462:.\Generated_Source\PSoC4/LCD_Char_1.c ****         /* Mask off data pins to clear high z values out */
 463:.\Generated_Source\PSoC4/LCD_Char_1.c ****         value = LCD_Char_1_PORT_DM2_REG & ((uint8)(~LCD_Char_1_DATA_MASK));
 464:.\Generated_Source\PSoC4/LCD_Char_1.c ****         /* Configure data pins to Strong Drive, others unchanged */
 465:.\Generated_Source\PSoC4/LCD_Char_1.c ****         LCD_Char_1_PORT_DM2_REG = value | (LCD_Char_1_STRONG_DM2 & LCD_Char_1_DATA_MASK);
 466:.\Generated_Source\PSoC4/LCD_Char_1.c ****     
 467:.\Generated_Source\PSoC4/LCD_Char_1.c ****     #endif /* CY_PSOC4 */
 468:.\Generated_Source\PSoC4/LCD_Char_1.c **** }
 469:.\Generated_Source\PSoC4/LCD_Char_1.c **** 
 470:.\Generated_Source\PSoC4/LCD_Char_1.c **** 
 471:.\Generated_Source\PSoC4/LCD_Char_1.c **** /*******************************************************************************
 472:.\Generated_Source\PSoC4/LCD_Char_1.c **** *  Function Name: LCD_Char_1_WrDatNib
 473:.\Generated_Source\PSoC4/LCD_Char_1.c **** ********************************************************************************
 474:.\Generated_Source\PSoC4/LCD_Char_1.c **** *
 475:.\Generated_Source\PSoC4/LCD_Char_1.c **** * Summary:
 476:.\Generated_Source\PSoC4/LCD_Char_1.c **** *  Writes a data nibble to the LCD module.
 477:.\Generated_Source\PSoC4/LCD_Char_1.c **** *
 478:.\Generated_Source\PSoC4/LCD_Char_1.c **** * Parameters:
 479:.\Generated_Source\PSoC4/LCD_Char_1.c **** *  nibble:  Byte containing nibble in the least significant nibble to be
 480:.\Generated_Source\PSoC4/LCD_Char_1.c **** *           written to the LCD module.
 481:.\Generated_Source\PSoC4/LCD_Char_1.c **** *
 482:.\Generated_Source\PSoC4/LCD_Char_1.c **** * Return:
 483:.\Generated_Source\PSoC4/LCD_Char_1.c **** *  None.
 484:.\Generated_Source\PSoC4/LCD_Char_1.c **** *
 485:.\Generated_Source\PSoC4/LCD_Char_1.c **** *******************************************************************************/
 486:.\Generated_Source\PSoC4/LCD_Char_1.c **** static void LCD_Char_1_WrDatNib(uint8 nibble) 
 487:.\Generated_Source\PSoC4/LCD_Char_1.c **** {
 488:.\Generated_Source\PSoC4/LCD_Char_1.c ****     /* RS should be low to select data register */
 489:.\Generated_Source\PSoC4/LCD_Char_1.c ****     LCD_Char_1_PORT_DR_REG |= LCD_Char_1_RS;
ARM GAS  C:\Users\Nick\AppData\Local\Temp\ccgmJ0U9.s 			page 10


 490:.\Generated_Source\PSoC4/LCD_Char_1.c ****     /* Reset RW for write operation */
 491:.\Generated_Source\PSoC4/LCD_Char_1.c ****     LCD_Char_1_PORT_DR_REG &= ((uint32)(~LCD_Char_1_RW));
 492:.\Generated_Source\PSoC4/LCD_Char_1.c **** 
 493:.\Generated_Source\PSoC4/LCD_Char_1.c ****     /* Guaranteed delay between Setting RS and RW and setting E bits */
 494:.\Generated_Source\PSoC4/LCD_Char_1.c ****     CyDelayUs(0u);
 495:.\Generated_Source\PSoC4/LCD_Char_1.c ****     
 496:.\Generated_Source\PSoC4/LCD_Char_1.c ****     /* Clear data pins */
 497:.\Generated_Source\PSoC4/LCD_Char_1.c ****     LCD_Char_1_PORT_DR_REG &= ((uint32)(~LCD_Char_1_DATA_MASK));
 498:.\Generated_Source\PSoC4/LCD_Char_1.c **** 
 499:.\Generated_Source\PSoC4/LCD_Char_1.c ****     /* Write data, bring E high */
 500:.\Generated_Source\PSoC4/LCD_Char_1.c ****     #if(0u != LCD_Char_1_PORT_SHIFT) /* MISRA forbids shift by 0 so need to handle that */
 501:.\Generated_Source\PSoC4/LCD_Char_1.c ****         LCD_Char_1_PORT_DR_REG |= 
 502:.\Generated_Source\PSoC4/LCD_Char_1.c ****             (LCD_Char_1_E | ((uint8)(((uint8) nibble) << LCD_Char_1_PORT_SHIFT)));
 503:.\Generated_Source\PSoC4/LCD_Char_1.c ****     #else
 504:.\Generated_Source\PSoC4/LCD_Char_1.c ****         LCD_Char_1_PORT_DR_REG |= (LCD_Char_1_E | nibble);
 505:.\Generated_Source\PSoC4/LCD_Char_1.c ****     #endif /* (0u != LCD_Char_1_PORT_SHIFT) */
 506:.\Generated_Source\PSoC4/LCD_Char_1.c **** 
 507:.\Generated_Source\PSoC4/LCD_Char_1.c ****     /* Minimum of 230 ns delay */
 508:.\Generated_Source\PSoC4/LCD_Char_1.c ****     CyDelayUs(1u);
 509:.\Generated_Source\PSoC4/LCD_Char_1.c **** 
 510:.\Generated_Source\PSoC4/LCD_Char_1.c ****     LCD_Char_1_PORT_DR_REG &= ((uint32)(~LCD_Char_1_E));
 511:.\Generated_Source\PSoC4/LCD_Char_1.c **** }
 512:.\Generated_Source\PSoC4/LCD_Char_1.c **** 
 513:.\Generated_Source\PSoC4/LCD_Char_1.c **** 
 514:.\Generated_Source\PSoC4/LCD_Char_1.c **** /*******************************************************************************
 515:.\Generated_Source\PSoC4/LCD_Char_1.c **** *  Function Name: LCD_Char_1_WrCntrlNib
 516:.\Generated_Source\PSoC4/LCD_Char_1.c **** ********************************************************************************
 517:.\Generated_Source\PSoC4/LCD_Char_1.c **** *
 518:.\Generated_Source\PSoC4/LCD_Char_1.c **** * Summary:
 519:.\Generated_Source\PSoC4/LCD_Char_1.c **** *  Writes a control nibble to the LCD module.
 520:.\Generated_Source\PSoC4/LCD_Char_1.c **** *
 521:.\Generated_Source\PSoC4/LCD_Char_1.c **** * Parameters:
 522:.\Generated_Source\PSoC4/LCD_Char_1.c **** *  nibble: The byte containing a nibble in the four least significant bits.????
 523:.\Generated_Source\PSoC4/LCD_Char_1.c **** *
 524:.\Generated_Source\PSoC4/LCD_Char_1.c **** * Return:
 525:.\Generated_Source\PSoC4/LCD_Char_1.c **** *  None.
 526:.\Generated_Source\PSoC4/LCD_Char_1.c **** *
 527:.\Generated_Source\PSoC4/LCD_Char_1.c **** *******************************************************************************/
 528:.\Generated_Source\PSoC4/LCD_Char_1.c **** static void LCD_Char_1_WrCntrlNib(uint8 nibble) 
 529:.\Generated_Source\PSoC4/LCD_Char_1.c **** {
  25              		.loc 1 529 0
  26              		.cfi_startproc
  27              	.LVL0:
  28 0000 10B5     		push	{r4, lr}
  29              		.cfi_def_cfa_offset 8
  30              		.cfi_offset 4, -8
  31              		.cfi_offset 14, -4
 530:.\Generated_Source\PSoC4/LCD_Char_1.c ****     /* RS and RW should be low to select instruction register and  write operation respectively */
 531:.\Generated_Source\PSoC4/LCD_Char_1.c ****     LCD_Char_1_PORT_DR_REG &= ((uint32)(~(LCD_Char_1_RS | LCD_Char_1_RW)));
  32              		.loc 1 531 0
  33 0002 0B4C     		ldr	r4, .L2
  34 0004 2368     		ldr	r3, [r4]
  35 0006 6022     		mov	r2, #96
  36 0008 9343     		bic	r3, r2
  37 000a 2360     		str	r3, [r4]
 532:.\Generated_Source\PSoC4/LCD_Char_1.c **** 
 533:.\Generated_Source\PSoC4/LCD_Char_1.c ****     /* Two following lines of code will give 40ns delay */
ARM GAS  C:\Users\Nick\AppData\Local\Temp\ccgmJ0U9.s 			page 11


 534:.\Generated_Source\PSoC4/LCD_Char_1.c ****     /* Clear data pins */
 535:.\Generated_Source\PSoC4/LCD_Char_1.c ****     LCD_Char_1_PORT_DR_REG &= ((uint32)(~LCD_Char_1_DATA_MASK));
  38              		.loc 1 535 0
  39 000c 2368     		ldr	r3, [r4]
  40 000e 513A     		sub	r2, r2, #81
  41 0010 9343     		bic	r3, r2
  42 0012 2360     		str	r3, [r4]
 536:.\Generated_Source\PSoC4/LCD_Char_1.c **** 
 537:.\Generated_Source\PSoC4/LCD_Char_1.c ****     /* Write control data and set enable signal */
 538:.\Generated_Source\PSoC4/LCD_Char_1.c ****     #if(0u != LCD_Char_1_PORT_SHIFT) /* MISRA forbids shift by 0 so need to handle that */
 539:.\Generated_Source\PSoC4/LCD_Char_1.c ****         LCD_Char_1_PORT_DR_REG |= 
 540:.\Generated_Source\PSoC4/LCD_Char_1.c ****             (LCD_Char_1_E | ((uint8)(((uint8) nibble) << LCD_Char_1_PORT_SHIFT)));
 541:.\Generated_Source\PSoC4/LCD_Char_1.c ****     #else
 542:.\Generated_Source\PSoC4/LCD_Char_1.c ****         LCD_Char_1_PORT_DR_REG |= (LCD_Char_1_E | nibble);
  43              		.loc 1 542 0
  44 0014 2268     		ldr	r2, [r4]
  45 0016 1023     		mov	r3, #16
  46 0018 1843     		orr	r0, r3
  47              	.LVL1:
  48 001a 1043     		orr	r0, r2
  49 001c 2060     		str	r0, [r4]
 543:.\Generated_Source\PSoC4/LCD_Char_1.c ****     #endif /* (0u != LCD_Char_1_PORT_SHIFT) */
 544:.\Generated_Source\PSoC4/LCD_Char_1.c **** 
 545:.\Generated_Source\PSoC4/LCD_Char_1.c ****     /* Minimum of 230 ns delay */
 546:.\Generated_Source\PSoC4/LCD_Char_1.c ****     CyDelayUs(1u);
  50              		.loc 1 546 0
  51 001e 0120     		mov	r0, #1
  52 0020 FFF7FEFF 		bl	CyDelayUs
  53              	.LVL2:
 547:.\Generated_Source\PSoC4/LCD_Char_1.c **** 
 548:.\Generated_Source\PSoC4/LCD_Char_1.c ****     LCD_Char_1_PORT_DR_REG &= ((uint32)(~LCD_Char_1_E));
  54              		.loc 1 548 0
  55 0024 2368     		ldr	r3, [r4]
  56 0026 1022     		mov	r2, #16
  57 0028 9343     		bic	r3, r2
  58 002a 2360     		str	r3, [r4]
 549:.\Generated_Source\PSoC4/LCD_Char_1.c **** }
  59              		.loc 1 549 0
  60              		@ sp needed
  61 002c 10BD     		pop	{r4, pc}
  62              	.L3:
  63 002e C046     		.align	2
  64              	.L2:
  65 0030 00020440 		.word	1074004480
  66              		.cfi_endproc
  67              	.LFE11:
  68              		.size	LCD_Char_1_WrCntrlNib, .-LCD_Char_1_WrCntrlNib
  69              		.section	.text.LCD_Char_1_WrDatNib,"ax",%progbits
  70              		.align	2
  71              		.code	16
  72              		.thumb_func
  73              		.type	LCD_Char_1_WrDatNib, %function
  74              	LCD_Char_1_WrDatNib:
  75              	.LFB10:
 487:.\Generated_Source\PSoC4/LCD_Char_1.c ****     /* RS should be low to select data register */
  76              		.loc 1 487 0
  77              		.cfi_startproc
ARM GAS  C:\Users\Nick\AppData\Local\Temp\ccgmJ0U9.s 			page 12


  78              	.LVL3:
  79 0000 38B5     		push	{r3, r4, r5, lr}
  80              		.cfi_def_cfa_offset 16
  81              		.cfi_offset 3, -16
  82              		.cfi_offset 4, -12
  83              		.cfi_offset 5, -8
  84              		.cfi_offset 14, -4
  85 0002 051C     		mov	r5, r0
 489:.\Generated_Source\PSoC4/LCD_Char_1.c ****     /* Reset RW for write operation */
  86              		.loc 1 489 0
  87 0004 0E4C     		ldr	r4, .L5
  88 0006 2268     		ldr	r2, [r4]
  89 0008 2023     		mov	r3, #32
  90 000a 1343     		orr	r3, r2
  91 000c 2360     		str	r3, [r4]
 491:.\Generated_Source\PSoC4/LCD_Char_1.c **** 
  92              		.loc 1 491 0
  93 000e 2368     		ldr	r3, [r4]
  94 0010 4022     		mov	r2, #64
  95 0012 9343     		bic	r3, r2
  96 0014 2360     		str	r3, [r4]
 494:.\Generated_Source\PSoC4/LCD_Char_1.c ****     
  97              		.loc 1 494 0
  98 0016 0020     		mov	r0, #0
  99              	.LVL4:
 100 0018 FFF7FEFF 		bl	CyDelayUs
 101              	.LVL5:
 497:.\Generated_Source\PSoC4/LCD_Char_1.c **** 
 102              		.loc 1 497 0
 103 001c 2368     		ldr	r3, [r4]
 104 001e 0F22     		mov	r2, #15
 105 0020 9343     		bic	r3, r2
 106 0022 2360     		str	r3, [r4]
 504:.\Generated_Source\PSoC4/LCD_Char_1.c ****     #endif /* (0u != LCD_Char_1_PORT_SHIFT) */
 107              		.loc 1 504 0
 108 0024 2368     		ldr	r3, [r4]
 109 0026 1020     		mov	r0, #16
 110 0028 2843     		orr	r0, r5
 111 002a 1843     		orr	r0, r3
 112 002c 2060     		str	r0, [r4]
 508:.\Generated_Source\PSoC4/LCD_Char_1.c **** 
 113              		.loc 1 508 0
 114 002e 0120     		mov	r0, #1
 115 0030 FFF7FEFF 		bl	CyDelayUs
 116              	.LVL6:
 510:.\Generated_Source\PSoC4/LCD_Char_1.c **** }
 117              		.loc 1 510 0
 118 0034 2368     		ldr	r3, [r4]
 119 0036 1022     		mov	r2, #16
 120 0038 9343     		bic	r3, r2
 121 003a 2360     		str	r3, [r4]
 511:.\Generated_Source\PSoC4/LCD_Char_1.c **** 
 122              		.loc 1 511 0
 123              		@ sp needed
 124 003c 38BD     		pop	{r3, r4, r5, pc}
 125              	.L6:
 126 003e C046     		.align	2
ARM GAS  C:\Users\Nick\AppData\Local\Temp\ccgmJ0U9.s 			page 13


 127              	.L5:
 128 0040 00020440 		.word	1074004480
 129              		.cfi_endproc
 130              	.LFE10:
 131              		.size	LCD_Char_1_WrDatNib, .-LCD_Char_1_WrDatNib
 132              		.section	.text.LCD_Char_1_IsReady,"ax",%progbits
 133              		.align	2
 134              		.global	LCD_Char_1_IsReady
 135              		.code	16
 136              		.thumb_func
 137              		.type	LCD_Char_1_IsReady, %function
 138              	LCD_Char_1_IsReady:
 139              	.LFB9:
 349:.\Generated_Source\PSoC4/LCD_Char_1.c ****     uint32 value;
 140              		.loc 1 349 0
 141              		.cfi_startproc
 142 0000 F8B5     		push	{r3, r4, r5, r6, r7, lr}
 143              		.cfi_def_cfa_offset 24
 144              		.cfi_offset 3, -24
 145              		.cfi_offset 4, -20
 146              		.cfi_offset 5, -16
 147              		.cfi_offset 6, -12
 148              		.cfi_offset 7, -8
 149              		.cfi_offset 14, -4
 150              	.LVL7:
 355:.\Generated_Source\PSoC4/LCD_Char_1.c **** 
 151              		.loc 1 355 0
 152 0002 274A     		ldr	r2, .L11
 153 0004 1368     		ldr	r3, [r2]
 154 0006 7F21     		mov	r1, #127
 155 0008 8B43     		bic	r3, r1
 156 000a 1360     		str	r3, [r2]
 363:.\Generated_Source\PSoC4/LCD_Char_1.c ****         /* Load in high Z values for data pins, others unchanged */
 157              		.loc 1 363 0
 158 000c 2549     		ldr	r1, .L11+4
 159 000e 0B68     		ldr	r3, [r1]
 160 0010 1B0B     		lsr	r3, r3, #12
 161 0012 1B03     		lsl	r3, r3, #12
 162              	.LVL8:
 365:.\Generated_Source\PSoC4/LCD_Char_1.c **** 
 163              		.loc 1 365 0
 164 0014 2448     		ldr	r0, .L11+8
 165 0016 0343     		orr	r3, r0
 166              	.LVL9:
 167 0018 0B60     		str	r3, [r1]
 389:.\Generated_Source\PSoC4/LCD_Char_1.c **** 
 168              		.loc 1 389 0
 169 001a 1368     		ldr	r3, [r2]
 170 001c 2021     		mov	r1, #32
 171 001e 8B43     		bic	r3, r1
 172 0020 1360     		str	r3, [r2]
 392:.\Generated_Source\PSoC4/LCD_Char_1.c **** 
 173              		.loc 1 392 0
 174 0022 1168     		ldr	r1, [r2]
 175 0024 4023     		mov	r3, #64
 176 0026 0B43     		orr	r3, r1
 177 0028 1360     		str	r3, [r2]
ARM GAS  C:\Users\Nick\AppData\Local\Temp\ccgmJ0U9.s 			page 14


 352:.\Generated_Source\PSoC4/LCD_Char_1.c **** 
 178              		.loc 1 352 0
 179 002a CA27     		mov	r7, #202
 180 002c 7F00     		lsl	r7, r7, #1
 181              	.LVL10:
 182              	.L10:
 397:.\Generated_Source\PSoC4/LCD_Char_1.c **** 
 183              		.loc 1 397 0
 184 002e 0020     		mov	r0, #0
 185 0030 FFF7FEFF 		bl	CyDelayUs
 186              	.LVL11:
 400:.\Generated_Source\PSoC4/LCD_Char_1.c **** 
 187              		.loc 1 400 0
 188 0034 1A4C     		ldr	r4, .L11
 189 0036 2368     		ldr	r3, [r4]
 190 0038 1026     		mov	r6, #16
 191 003a 3343     		orr	r3, r6
 192 003c 2360     		str	r3, [r4]
 403:.\Generated_Source\PSoC4/LCD_Char_1.c **** 
 193              		.loc 1 403 0
 194 003e 0120     		mov	r0, #1
 195 0040 FFF7FEFF 		bl	CyDelayUs
 196              	.LVL12:
 406:.\Generated_Source\PSoC4/LCD_Char_1.c **** 
 197              		.loc 1 406 0
 198 0044 194B     		ldr	r3, .L11+12
 199 0046 1D68     		ldr	r5, [r3]
 200              	.LVL13:
 409:.\Generated_Source\PSoC4/LCD_Char_1.c **** 
 201              		.loc 1 409 0
 202 0048 2368     		ldr	r3, [r4]
 203 004a B343     		bic	r3, r6
 204 004c 2360     		str	r3, [r4]
 412:.\Generated_Source\PSoC4/LCD_Char_1.c **** 
 205              		.loc 1 412 0
 206 004e 0020     		mov	r0, #0
 207 0050 FFF7FEFF 		bl	CyDelayUs
 208              	.LVL14:
 415:.\Generated_Source\PSoC4/LCD_Char_1.c **** 
 209              		.loc 1 415 0
 210 0054 0823     		mov	r3, #8
 211 0056 1D40     		and	r5, r3
 212              	.LVL15:
 418:.\Generated_Source\PSoC4/LCD_Char_1.c **** 
 213              		.loc 1 418 0
 214 0058 2368     		ldr	r3, [r4]
 215 005a 3343     		orr	r3, r6
 216 005c 2360     		str	r3, [r4]
 421:.\Generated_Source\PSoC4/LCD_Char_1.c **** 
 217              		.loc 1 421 0
 218 005e 0120     		mov	r0, #1
 219 0060 FFF7FEFF 		bl	CyDelayUs
 220              	.LVL16:
 424:.\Generated_Source\PSoC4/LCD_Char_1.c **** 
 221              		.loc 1 424 0
 222 0064 2368     		ldr	r3, [r4]
 223 0066 B343     		bic	r3, r6
ARM GAS  C:\Users\Nick\AppData\Local\Temp\ccgmJ0U9.s 			page 15


 224 0068 2360     		str	r3, [r4]
 427:.\Generated_Source\PSoC4/LCD_Char_1.c ****         {
 225              		.loc 1 427 0
 226 006a 002D     		cmp	r5, #0
 227 006c 02D1     		bne	.L8
 429:.\Generated_Source\PSoC4/LCD_Char_1.c ****         }
 228              		.loc 1 429 0
 229 006e 0A20     		mov	r0, #10
 230 0070 FFF7FEFF 		bl	CyDelayUs
 231              	.LVL17:
 232              	.L8:
 433:.\Generated_Source\PSoC4/LCD_Char_1.c **** 
 233              		.loc 1 433 0
 234 0074 013F     		sub	r7, r7, #1
 235              	.LVL18:
 435:.\Generated_Source\PSoC4/LCD_Char_1.c **** 
 236              		.loc 1 435 0
 237 0076 002D     		cmp	r5, #0
 238 0078 01D0     		beq	.L9
 435:.\Generated_Source\PSoC4/LCD_Char_1.c **** 
 239              		.loc 1 435 0 is_stmt 0 discriminator 1
 240 007a 002F     		cmp	r7, #0
 241 007c D7D1     		bne	.L10
 242              	.L9:
 438:.\Generated_Source\PSoC4/LCD_Char_1.c **** 
 243              		.loc 1 438 0 is_stmt 1
 244 007e 084B     		ldr	r3, .L11
 245 0080 1A68     		ldr	r2, [r3]
 246 0082 4021     		mov	r1, #64
 247 0084 8A43     		bic	r2, r1
 248 0086 1A60     		str	r2, [r3]
 441:.\Generated_Source\PSoC4/LCD_Char_1.c **** 
 249              		.loc 1 441 0
 250 0088 1A68     		ldr	r2, [r3]
 251 008a 3F31     		add	r1, r1, #63
 252 008c 8A43     		bic	r2, r1
 253 008e 1A60     		str	r2, [r3]
 446:.\Generated_Source\PSoC4/LCD_Char_1.c ****         /* Load in high Z values for data pins, others unchanged */
 254              		.loc 1 446 0
 255 0090 044A     		ldr	r2, .L11+4
 256 0092 1368     		ldr	r3, [r2]
 257 0094 1B0B     		lsr	r3, r3, #12
 258 0096 1B03     		lsl	r3, r3, #12
 259              	.LVL19:
 448:.\Generated_Source\PSoC4/LCD_Char_1.c **** 
 260              		.loc 1 448 0
 261 0098 0549     		ldr	r1, .L11+16
 262 009a 0B43     		orr	r3, r1
 263              	.LVL20:
 264 009c 1360     		str	r3, [r2]
 468:.\Generated_Source\PSoC4/LCD_Char_1.c **** 
 265              		.loc 1 468 0
 266              		@ sp needed
 267              	.LVL21:
 268 009e F8BD     		pop	{r3, r4, r5, r6, r7, pc}
 269              	.L12:
 270              		.align	2
ARM GAS  C:\Users\Nick\AppData\Local\Temp\ccgmJ0U9.s 			page 16


 271              	.L11:
 272 00a0 00020440 		.word	1074004480
 273 00a4 08020440 		.word	1074004488
 274 00a8 49020000 		.word	585
 275 00ac 04020440 		.word	1074004484
 276 00b0 B60D0000 		.word	3510
 277              		.cfi_endproc
 278              	.LFE9:
 279              		.size	LCD_Char_1_IsReady, .-LCD_Char_1_IsReady
 280              		.section	.text.LCD_Char_1_WriteData,"ax",%progbits
 281              		.align	2
 282              		.global	LCD_Char_1_WriteData
 283              		.code	16
 284              		.thumb_func
 285              		.type	LCD_Char_1_WriteData, %function
 286              	LCD_Char_1_WriteData:
 287              	.LFB7:
 285:.\Generated_Source\PSoC4/LCD_Char_1.c ****     uint8 nibble;
 288              		.loc 1 285 0
 289              		.cfi_startproc
 290              	.LVL22:
 291 0000 10B5     		push	{r4, lr}
 292              		.cfi_def_cfa_offset 8
 293              		.cfi_offset 4, -8
 294              		.cfi_offset 14, -4
 295 0002 041C     		mov	r4, r0
 288:.\Generated_Source\PSoC4/LCD_Char_1.c ****     nibble = dByte >> LCD_Char_1_NIBBLE_SHIFT;
 296              		.loc 1 288 0
 297 0004 FFF7FEFF 		bl	LCD_Char_1_IsReady
 298              	.LVL23:
 289:.\Generated_Source\PSoC4/LCD_Char_1.c **** 
 299              		.loc 1 289 0
 300 0008 2009     		lsr	r0, r4, #4
 301              	.LVL24:
 292:.\Generated_Source\PSoC4/LCD_Char_1.c **** 
 302              		.loc 1 292 0
 303 000a FFF7FEFF 		bl	LCD_Char_1_WrDatNib
 304              	.LVL25:
 294:.\Generated_Source\PSoC4/LCD_Char_1.c ****     /* Write low nibble */
 305              		.loc 1 294 0
 306 000e 0F20     		mov	r0, #15
 307 0010 2040     		and	r0, r4
 308              	.LVL26:
 296:.\Generated_Source\PSoC4/LCD_Char_1.c **** }
 309              		.loc 1 296 0
 310 0012 FFF7FEFF 		bl	LCD_Char_1_WrDatNib
 311              	.LVL27:
 297:.\Generated_Source\PSoC4/LCD_Char_1.c **** 
 312              		.loc 1 297 0
 313              		@ sp needed
 314              	.LVL28:
 315 0016 10BD     		pop	{r4, pc}
 316              		.cfi_endproc
 317              	.LFE7:
 318              		.size	LCD_Char_1_WriteData, .-LCD_Char_1_WriteData
 319              		.section	.text.LCD_Char_1_PrintString,"ax",%progbits
 320              		.align	2
ARM GAS  C:\Users\Nick\AppData\Local\Temp\ccgmJ0U9.s 			page 17


 321              		.global	LCD_Char_1_PrintString
 322              		.code	16
 323              		.thumb_func
 324              		.type	LCD_Char_1_PrintString, %function
 325              	LCD_Char_1_PrintString:
 326              	.LFB5:
 234:.\Generated_Source\PSoC4/LCD_Char_1.c ****     uint8 indexU8 = 1u;
 327              		.loc 1 234 0
 328              		.cfi_startproc
 329              	.LVL29:
 330 0000 38B5     		push	{r3, r4, r5, lr}
 331              		.cfi_def_cfa_offset 16
 332              		.cfi_offset 3, -16
 333              		.cfi_offset 4, -12
 334              		.cfi_offset 5, -8
 335              		.cfi_offset 14, -4
 336 0002 051C     		mov	r5, r0
 337              	.LVL30:
 236:.\Generated_Source\PSoC4/LCD_Char_1.c **** 
 338              		.loc 1 236 0
 339 0004 0078     		ldrb	r0, [r0]
 340              	.LVL31:
 235:.\Generated_Source\PSoC4/LCD_Char_1.c ****     char8 current = *string;
 341              		.loc 1 235 0
 342 0006 0124     		mov	r4, #1
 239:.\Generated_Source\PSoC4/LCD_Char_1.c ****     {
 343              		.loc 1 239 0
 344 0008 04E0     		b	.L15
 345              	.LVL32:
 346              	.L16:
 241:.\Generated_Source\PSoC4/LCD_Char_1.c ****         current = string[indexU8];
 347              		.loc 1 241 0
 348 000a FFF7FEFF 		bl	LCD_Char_1_WriteData
 349              	.LVL33:
 242:.\Generated_Source\PSoC4/LCD_Char_1.c ****         indexU8++;
 350              		.loc 1 242 0
 351 000e 285D     		ldrb	r0, [r5, r4]
 352              	.LVL34:
 243:.\Generated_Source\PSoC4/LCD_Char_1.c ****     }
 353              		.loc 1 243 0
 354 0010 0134     		add	r4, r4, #1
 355              	.LVL35:
 356 0012 E4B2     		uxtb	r4, r4
 357              	.LVL36:
 358              	.L15:
 239:.\Generated_Source\PSoC4/LCD_Char_1.c ****     {
 359              		.loc 1 239 0
 360 0014 0028     		cmp	r0, #0
 361 0016 F8D1     		bne	.L16
 245:.\Generated_Source\PSoC4/LCD_Char_1.c **** 
 362              		.loc 1 245 0
 363              		@ sp needed
 364              	.LVL37:
 365              	.LVL38:
 366 0018 38BD     		pop	{r3, r4, r5, pc}
 367              		.cfi_endproc
 368              	.LFE5:
ARM GAS  C:\Users\Nick\AppData\Local\Temp\ccgmJ0U9.s 			page 18


 369              		.size	LCD_Char_1_PrintString, .-LCD_Char_1_PrintString
 370 001a C046     		.section	.text.LCD_Char_1_PutChar,"ax",%progbits
 371              		.align	2
 372              		.global	LCD_Char_1_PutChar
 373              		.code	16
 374              		.thumb_func
 375              		.type	LCD_Char_1_PutChar, %function
 376              	LCD_Char_1_PutChar:
 377              	.LFB6:
 265:.\Generated_Source\PSoC4/LCD_Char_1.c ****     LCD_Char_1_WriteData((uint8)character);
 378              		.loc 1 265 0
 379              		.cfi_startproc
 380              	.LVL39:
 381 0000 08B5     		push	{r3, lr}
 382              		.cfi_def_cfa_offset 8
 383              		.cfi_offset 3, -8
 384              		.cfi_offset 14, -4
 266:.\Generated_Source\PSoC4/LCD_Char_1.c **** }
 385              		.loc 1 266 0
 386 0002 FFF7FEFF 		bl	LCD_Char_1_WriteData
 387              	.LVL40:
 267:.\Generated_Source\PSoC4/LCD_Char_1.c **** 
 388              		.loc 1 267 0
 389              		@ sp needed
 390 0006 08BD     		pop	{r3, pc}
 391              		.cfi_endproc
 392              	.LFE6:
 393              		.size	LCD_Char_1_PutChar, .-LCD_Char_1_PutChar
 394              		.section	.text.LCD_Char_1_WriteControl,"ax",%progbits
 395              		.align	2
 396              		.global	LCD_Char_1_WriteControl
 397              		.code	16
 398              		.thumb_func
 399              		.type	LCD_Char_1_WriteControl, %function
 400              	LCD_Char_1_WriteControl:
 401              	.LFB8:
 315:.\Generated_Source\PSoC4/LCD_Char_1.c ****     uint8 nibble;
 402              		.loc 1 315 0
 403              		.cfi_startproc
 404              	.LVL41:
 405 0000 10B5     		push	{r4, lr}
 406              		.cfi_def_cfa_offset 8
 407              		.cfi_offset 4, -8
 408              		.cfi_offset 14, -4
 409 0002 041C     		mov	r4, r0
 318:.\Generated_Source\PSoC4/LCD_Char_1.c **** 
 410              		.loc 1 318 0
 411 0004 FFF7FEFF 		bl	LCD_Char_1_IsReady
 412              	.LVL42:
 320:.\Generated_Source\PSoC4/LCD_Char_1.c ****     
 413              		.loc 1 320 0
 414 0008 2009     		lsr	r0, r4, #4
 415              	.LVL43:
 323:.\Generated_Source\PSoC4/LCD_Char_1.c ****     nibble = cByte & LCD_Char_1_NIBBLE_MASK;
 416              		.loc 1 323 0
 417 000a FFF7FEFF 		bl	LCD_Char_1_WrCntrlNib
 418              	.LVL44:
ARM GAS  C:\Users\Nick\AppData\Local\Temp\ccgmJ0U9.s 			page 19


 324:.\Generated_Source\PSoC4/LCD_Char_1.c **** 
 419              		.loc 1 324 0
 420 000e 0F20     		mov	r0, #15
 421 0010 2040     		and	r0, r4
 422              	.LVL45:
 327:.\Generated_Source\PSoC4/LCD_Char_1.c **** }
 423              		.loc 1 327 0
 424 0012 FFF7FEFF 		bl	LCD_Char_1_WrCntrlNib
 425              	.LVL46:
 328:.\Generated_Source\PSoC4/LCD_Char_1.c **** 
 426              		.loc 1 328 0
 427              		@ sp needed
 428              	.LVL47:
 429 0016 10BD     		pop	{r4, pc}
 430              		.cfi_endproc
 431              	.LFE8:
 432              		.size	LCD_Char_1_WriteControl, .-LCD_Char_1_WriteControl
 433              		.section	.text.LCD_Char_1_Init,"ax",%progbits
 434              		.align	2
 435              		.global	LCD_Char_1_Init
 436              		.code	16
 437              		.thumb_func
 438              		.type	LCD_Char_1_Init, %function
 439              	LCD_Char_1_Init:
 440              	.LFB0:
  56:.\Generated_Source\PSoC4/LCD_Char_1.c ****     /* INIT CODE */
 441              		.loc 1 56 0
 442              		.cfi_startproc
 443 0000 08B5     		push	{r3, lr}
 444              		.cfi_def_cfa_offset 8
 445              		.cfi_offset 3, -8
 446              		.cfi_offset 14, -4
  58:.\Generated_Source\PSoC4/LCD_Char_1.c ****     LCD_Char_1_WrCntrlNib(LCD_Char_1_DISPLAY_8_BIT_INIT);    /* Selects 8-bit mode */
 447              		.loc 1 58 0
 448 0002 2820     		mov	r0, #40
 449 0004 FFF7FEFF 		bl	CyDelay
 450              	.LVL48:
  59:.\Generated_Source\PSoC4/LCD_Char_1.c ****     CyDelay(5u);                                                         /* Delay 5 ms */
 451              		.loc 1 59 0
 452 0008 0320     		mov	r0, #3
 453 000a FFF7FEFF 		bl	LCD_Char_1_WrCntrlNib
 454              	.LVL49:
  60:.\Generated_Source\PSoC4/LCD_Char_1.c ****     LCD_Char_1_WrCntrlNib(LCD_Char_1_DISPLAY_8_BIT_INIT);    /* Selects 8-bit mode */
 455              		.loc 1 60 0
 456 000e 0520     		mov	r0, #5
 457 0010 FFF7FEFF 		bl	CyDelay
 458              	.LVL50:
  61:.\Generated_Source\PSoC4/LCD_Char_1.c ****     CyDelay(15u);                                                        /* Delay 15 ms */
 459              		.loc 1 61 0
 460 0014 0320     		mov	r0, #3
 461 0016 FFF7FEFF 		bl	LCD_Char_1_WrCntrlNib
 462              	.LVL51:
  62:.\Generated_Source\PSoC4/LCD_Char_1.c ****     LCD_Char_1_WrCntrlNib(LCD_Char_1_DISPLAY_8_BIT_INIT);    /* Selects 8-bit mode */
 463              		.loc 1 62 0
 464 001a 0F20     		mov	r0, #15
 465 001c FFF7FEFF 		bl	CyDelay
 466              	.LVL52:
ARM GAS  C:\Users\Nick\AppData\Local\Temp\ccgmJ0U9.s 			page 20


  63:.\Generated_Source\PSoC4/LCD_Char_1.c ****     CyDelay(1u);                                                         /* Delay 1 ms */
 467              		.loc 1 63 0
 468 0020 0320     		mov	r0, #3
 469 0022 FFF7FEFF 		bl	LCD_Char_1_WrCntrlNib
 470              	.LVL53:
  64:.\Generated_Source\PSoC4/LCD_Char_1.c ****     LCD_Char_1_WrCntrlNib(LCD_Char_1_DISPLAY_4_BIT_INIT);    /* Selects 4-bit mode */
 471              		.loc 1 64 0
 472 0026 0120     		mov	r0, #1
 473 0028 FFF7FEFF 		bl	CyDelay
 474              	.LVL54:
  65:.\Generated_Source\PSoC4/LCD_Char_1.c ****     CyDelay(5u);                                                         /* Delay 5 ms */
 475              		.loc 1 65 0
 476 002c 0220     		mov	r0, #2
 477 002e FFF7FEFF 		bl	LCD_Char_1_WrCntrlNib
 478              	.LVL55:
  66:.\Generated_Source\PSoC4/LCD_Char_1.c **** 
 479              		.loc 1 66 0
 480 0032 0520     		mov	r0, #5
 481 0034 FFF7FEFF 		bl	CyDelay
 482              	.LVL56:
  68:.\Generated_Source\PSoC4/LCD_Char_1.c ****     LCD_Char_1_WriteControl(LCD_Char_1_DISPLAY_CURSOR_ON);      /* Turn Display, Cursor ON */
 483              		.loc 1 68 0
 484 0038 0620     		mov	r0, #6
 485 003a FFF7FEFF 		bl	LCD_Char_1_WriteControl
 486              	.LVL57:
  69:.\Generated_Source\PSoC4/LCD_Char_1.c ****     LCD_Char_1_WriteControl(LCD_Char_1_DISPLAY_2_LINES_5x10);   /* 2 Lines by 5x10 Characters */
 487              		.loc 1 69 0
 488 003e 0E20     		mov	r0, #14
 489 0040 FFF7FEFF 		bl	LCD_Char_1_WriteControl
 490              	.LVL58:
  70:.\Generated_Source\PSoC4/LCD_Char_1.c ****     LCD_Char_1_WriteControl(LCD_Char_1_DISPLAY_CURSOR_OFF);     /* Turn Display, Cursor OFF */
 491              		.loc 1 70 0
 492 0044 2C20     		mov	r0, #44
 493 0046 FFF7FEFF 		bl	LCD_Char_1_WriteControl
 494              	.LVL59:
  71:.\Generated_Source\PSoC4/LCD_Char_1.c ****     LCD_Char_1_WriteControl(LCD_Char_1_CLEAR_DISPLAY);          /* Clear LCD Screen */
 495              		.loc 1 71 0
 496 004a 0820     		mov	r0, #8
 497 004c FFF7FEFF 		bl	LCD_Char_1_WriteControl
 498              	.LVL60:
  72:.\Generated_Source\PSoC4/LCD_Char_1.c ****     LCD_Char_1_WriteControl(LCD_Char_1_DISPLAY_ON_CURSOR_OFF);  /* Turn Display ON, Cursor OFF */
 499              		.loc 1 72 0
 500 0050 0120     		mov	r0, #1
 501 0052 FFF7FEFF 		bl	LCD_Char_1_WriteControl
 502              	.LVL61:
  73:.\Generated_Source\PSoC4/LCD_Char_1.c ****     LCD_Char_1_WriteControl(LCD_Char_1_RESET_CURSOR_POSITION);  /* Set Cursor to 0,0 */
 503              		.loc 1 73 0
 504 0056 0C20     		mov	r0, #12
 505 0058 FFF7FEFF 		bl	LCD_Char_1_WriteControl
 506              	.LVL62:
  74:.\Generated_Source\PSoC4/LCD_Char_1.c ****     CyDelay(5u);
 507              		.loc 1 74 0
 508 005c 0320     		mov	r0, #3
 509 005e FFF7FEFF 		bl	LCD_Char_1_WriteControl
 510              	.LVL63:
  75:.\Generated_Source\PSoC4/LCD_Char_1.c **** 
 511              		.loc 1 75 0
ARM GAS  C:\Users\Nick\AppData\Local\Temp\ccgmJ0U9.s 			page 21


 512 0062 0520     		mov	r0, #5
 513 0064 FFF7FEFF 		bl	CyDelay
 514              	.LVL64:
  78:.\Generated_Source\PSoC4/LCD_Char_1.c ****     #endif /* LCD_Char_1_CUSTOM_CHAR_SET != LCD_Char_1_NONE */
 515              		.loc 1 78 0
 516 0068 0148     		ldr	r0, .L20
 517 006a FFF7FEFF 		bl	LCD_Char_1_LoadCustomFonts
 518              	.LVL65:
  80:.\Generated_Source\PSoC4/LCD_Char_1.c **** 
 519              		.loc 1 80 0
 520              		@ sp needed
 521 006e 08BD     		pop	{r3, pc}
 522              	.L21:
 523              		.align	2
 524              	.L20:
 525 0070 00000000 		.word	LCD_Char_1_customFonts
 526              		.cfi_endproc
 527              	.LFE0:
 528              		.size	LCD_Char_1_Init, .-LCD_Char_1_Init
 529              		.section	.text.LCD_Char_1_Enable,"ax",%progbits
 530              		.align	2
 531              		.global	LCD_Char_1_Enable
 532              		.code	16
 533              		.thumb_func
 534              		.type	LCD_Char_1_Enable, %function
 535              	LCD_Char_1_Enable:
 536              	.LFB1:
 105:.\Generated_Source\PSoC4/LCD_Char_1.c ****     LCD_Char_1_DisplayOn();
 537              		.loc 1 105 0
 538              		.cfi_startproc
 539 0000 08B5     		push	{r3, lr}
 540              		.cfi_def_cfa_offset 8
 541              		.cfi_offset 3, -8
 542              		.cfi_offset 14, -4
 106:.\Generated_Source\PSoC4/LCD_Char_1.c ****     LCD_Char_1_enableState = 1u;
 543              		.loc 1 106 0
 544 0002 0C20     		mov	r0, #12
 545 0004 FFF7FEFF 		bl	LCD_Char_1_WriteControl
 546              	.LVL66:
 107:.\Generated_Source\PSoC4/LCD_Char_1.c **** }
 547              		.loc 1 107 0
 548 0008 0122     		mov	r2, #1
 549 000a 014B     		ldr	r3, .L23
 550 000c 1A70     		strb	r2, [r3]
 108:.\Generated_Source\PSoC4/LCD_Char_1.c **** 
 551              		.loc 1 108 0
 552              		@ sp needed
 553 000e 08BD     		pop	{r3, pc}
 554              	.L24:
 555              		.align	2
 556              	.L23:
 557 0010 00000000 		.word	.LANCHOR0
 558              		.cfi_endproc
 559              	.LFE1:
 560              		.size	LCD_Char_1_Enable, .-LCD_Char_1_Enable
 561              		.section	.text.LCD_Char_1_Start,"ax",%progbits
 562              		.align	2
ARM GAS  C:\Users\Nick\AppData\Local\Temp\ccgmJ0U9.s 			page 22


 563              		.global	LCD_Char_1_Start
 564              		.code	16
 565              		.thumb_func
 566              		.type	LCD_Char_1_Start, %function
 567              	LCD_Char_1_Start:
 568              	.LFB2:
 138:.\Generated_Source\PSoC4/LCD_Char_1.c ****     /* If not initialized, perform initialization */
 569              		.loc 1 138 0
 570              		.cfi_startproc
 571 0000 08B5     		push	{r3, lr}
 572              		.cfi_def_cfa_offset 8
 573              		.cfi_offset 3, -8
 574              		.cfi_offset 14, -4
 140:.\Generated_Source\PSoC4/LCD_Char_1.c ****     {
 575              		.loc 1 140 0
 576 0002 064B     		ldr	r3, .L27
 577 0004 5B78     		ldrb	r3, [r3, #1]
 578 0006 002B     		cmp	r3, #0
 579 0008 04D1     		bne	.L26
 142:.\Generated_Source\PSoC4/LCD_Char_1.c ****         LCD_Char_1_initVar = 1u;
 580              		.loc 1 142 0
 581 000a FFF7FEFF 		bl	LCD_Char_1_Init
 582              	.LVL67:
 143:.\Generated_Source\PSoC4/LCD_Char_1.c ****     }
 583              		.loc 1 143 0
 584 000e 0122     		mov	r2, #1
 585 0010 024B     		ldr	r3, .L27
 586 0012 5A70     		strb	r2, [r3, #1]
 587              	.L26:
 147:.\Generated_Source\PSoC4/LCD_Char_1.c **** }
 588              		.loc 1 147 0
 589 0014 FFF7FEFF 		bl	LCD_Char_1_Enable
 590              	.LVL68:
 148:.\Generated_Source\PSoC4/LCD_Char_1.c **** 
 591              		.loc 1 148 0
 592              		@ sp needed
 593 0018 08BD     		pop	{r3, pc}
 594              	.L28:
 595 001a C046     		.align	2
 596              	.L27:
 597 001c 00000000 		.word	.LANCHOR0
 598              		.cfi_endproc
 599              	.LFE2:
 600              		.size	LCD_Char_1_Start, .-LCD_Char_1_Start
 601              		.section	.text.LCD_Char_1_Stop,"ax",%progbits
 602              		.align	2
 603              		.global	LCD_Char_1_Stop
 604              		.code	16
 605              		.thumb_func
 606              		.type	LCD_Char_1_Stop, %function
 607              	LCD_Char_1_Stop:
 608              	.LFB3:
 169:.\Generated_Source\PSoC4/LCD_Char_1.c ****     /* Calls LCD Off Macro */
 609              		.loc 1 169 0
 610              		.cfi_startproc
 611 0000 08B5     		push	{r3, lr}
 612              		.cfi_def_cfa_offset 8
ARM GAS  C:\Users\Nick\AppData\Local\Temp\ccgmJ0U9.s 			page 23


 613              		.cfi_offset 3, -8
 614              		.cfi_offset 14, -4
 171:.\Generated_Source\PSoC4/LCD_Char_1.c ****     LCD_Char_1_enableState = 0u;
 615              		.loc 1 171 0
 616 0002 0820     		mov	r0, #8
 617 0004 FFF7FEFF 		bl	LCD_Char_1_WriteControl
 618              	.LVL69:
 172:.\Generated_Source\PSoC4/LCD_Char_1.c **** }
 619              		.loc 1 172 0
 620 0008 0022     		mov	r2, #0
 621 000a 014B     		ldr	r3, .L30
 622 000c 1A70     		strb	r2, [r3]
 173:.\Generated_Source\PSoC4/LCD_Char_1.c **** 
 623              		.loc 1 173 0
 624              		@ sp needed
 625 000e 08BD     		pop	{r3, pc}
 626              	.L31:
 627              		.align	2
 628              	.L30:
 629 0010 00000000 		.word	.LANCHOR0
 630              		.cfi_endproc
 631              	.LFE3:
 632              		.size	LCD_Char_1_Stop, .-LCD_Char_1_Stop
 633              		.section	.text.LCD_Char_1_Position,"ax",%progbits
 634              		.align	2
 635              		.global	LCD_Char_1_Position
 636              		.code	16
 637              		.thumb_func
 638              		.type	LCD_Char_1_Position, %function
 639              	LCD_Char_1_Position:
 640              	.LFB4:
 197:.\Generated_Source\PSoC4/LCD_Char_1.c ****     switch (row)
 641              		.loc 1 197 0
 642              		.cfi_startproc
 643              	.LVL70:
 644 0000 08B5     		push	{r3, lr}
 645              		.cfi_def_cfa_offset 8
 646              		.cfi_offset 3, -8
 647              		.cfi_offset 14, -4
 198:.\Generated_Source\PSoC4/LCD_Char_1.c ****     {
 648              		.loc 1 198 0
 649 0002 0128     		cmp	r0, #1
 650 0004 0BD0     		beq	.L34
 651 0006 0028     		cmp	r0, #0
 652 0008 04D0     		beq	.L35
 653 000a 0228     		cmp	r0, #2
 654 000c 0CD0     		beq	.L36
 655 000e 0328     		cmp	r0, #3
 656 0010 0FD0     		beq	.L37
 657 0012 12E0     		b	.L32
 658              	.L35:
 201:.\Generated_Source\PSoC4/LCD_Char_1.c ****             break;
 659              		.loc 1 201 0
 660 0014 8039     		sub	r1, r1, #128
 661              	.LVL71:
 662 0016 C8B2     		uxtb	r0, r1
 663              	.LVL72:
ARM GAS  C:\Users\Nick\AppData\Local\Temp\ccgmJ0U9.s 			page 24


 664 0018 FFF7FEFF 		bl	LCD_Char_1_WriteControl
 665              	.LVL73:
 202:.\Generated_Source\PSoC4/LCD_Char_1.c ****         case (uint8) 1:
 666              		.loc 1 202 0
 667 001c 0DE0     		b	.L32
 668              	.LVL74:
 669              	.L34:
 204:.\Generated_Source\PSoC4/LCD_Char_1.c ****             break;
 670              		.loc 1 204 0
 671 001e 4039     		sub	r1, r1, #64
 672              	.LVL75:
 673 0020 C8B2     		uxtb	r0, r1
 674              	.LVL76:
 675 0022 FFF7FEFF 		bl	LCD_Char_1_WriteControl
 676              	.LVL77:
 205:.\Generated_Source\PSoC4/LCD_Char_1.c ****         case (uint8) 2:
 677              		.loc 1 205 0
 678 0026 08E0     		b	.L32
 679              	.LVL78:
 680              	.L36:
 207:.\Generated_Source\PSoC4/LCD_Char_1.c ****             break;
 681              		.loc 1 207 0
 682 0028 6C39     		sub	r1, r1, #108
 683              	.LVL79:
 684 002a C8B2     		uxtb	r0, r1
 685              	.LVL80:
 686 002c FFF7FEFF 		bl	LCD_Char_1_WriteControl
 687              	.LVL81:
 208:.\Generated_Source\PSoC4/LCD_Char_1.c ****         case (uint8) 3:
 688              		.loc 1 208 0
 689 0030 03E0     		b	.L32
 690              	.LVL82:
 691              	.L37:
 210:.\Generated_Source\PSoC4/LCD_Char_1.c ****             break;
 692              		.loc 1 210 0
 693 0032 2C39     		sub	r1, r1, #44
 694              	.LVL83:
 695 0034 C8B2     		uxtb	r0, r1
 696              	.LVL84:
 697 0036 FFF7FEFF 		bl	LCD_Char_1_WriteControl
 698              	.LVL85:
 699              	.L32:
 216:.\Generated_Source\PSoC4/LCD_Char_1.c **** 
 700              		.loc 1 216 0
 701              		@ sp needed
 702 003a 08BD     		pop	{r3, pc}
 703              		.cfi_endproc
 704              	.LFE4:
 705              		.size	LCD_Char_1_Position, .-LCD_Char_1_Position
 706              		.section	.text.LCD_Char_1_PrintInt8,"ax",%progbits
 707              		.align	2
 708              		.global	LCD_Char_1_PrintInt8
 709              		.code	16
 710              		.thumb_func
 711              		.type	LCD_Char_1_PrintInt8, %function
 712              	LCD_Char_1_PrintInt8:
 713              	.LFB12:
ARM GAS  C:\Users\Nick\AppData\Local\Temp\ccgmJ0U9.s 			page 25


 550:.\Generated_Source\PSoC4/LCD_Char_1.c **** 
 551:.\Generated_Source\PSoC4/LCD_Char_1.c **** 
 552:.\Generated_Source\PSoC4/LCD_Char_1.c **** #if(LCD_Char_1_CONVERSION_ROUTINES == 1u)
 553:.\Generated_Source\PSoC4/LCD_Char_1.c **** 
 554:.\Generated_Source\PSoC4/LCD_Char_1.c ****     /*******************************************************************************
 555:.\Generated_Source\PSoC4/LCD_Char_1.c ****     *  Function Name: LCD_Char_1_PrintInt8
 556:.\Generated_Source\PSoC4/LCD_Char_1.c ****     ********************************************************************************
 557:.\Generated_Source\PSoC4/LCD_Char_1.c ****     *
 558:.\Generated_Source\PSoC4/LCD_Char_1.c ****     * Summary:
 559:.\Generated_Source\PSoC4/LCD_Char_1.c ****     *  Print a byte as two ASCII characters.
 560:.\Generated_Source\PSoC4/LCD_Char_1.c ****     *
 561:.\Generated_Source\PSoC4/LCD_Char_1.c ****     * Parameters:
 562:.\Generated_Source\PSoC4/LCD_Char_1.c ****     *  value: The byte to be printed out as ASCII characters.
 563:.\Generated_Source\PSoC4/LCD_Char_1.c ****     *
 564:.\Generated_Source\PSoC4/LCD_Char_1.c ****     * Return:
 565:.\Generated_Source\PSoC4/LCD_Char_1.c ****     *  None.
 566:.\Generated_Source\PSoC4/LCD_Char_1.c ****     *
 567:.\Generated_Source\PSoC4/LCD_Char_1.c ****     *******************************************************************************/
 568:.\Generated_Source\PSoC4/LCD_Char_1.c ****     void LCD_Char_1_PrintInt8(uint8 value) 
 569:.\Generated_Source\PSoC4/LCD_Char_1.c ****     {
 714              		.loc 1 569 0
 715              		.cfi_startproc
 716              	.LVL86:
 717 0000 38B5     		push	{r3, r4, r5, lr}
 718              		.cfi_def_cfa_offset 16
 719              		.cfi_offset 3, -16
 720              		.cfi_offset 4, -12
 721              		.cfi_offset 5, -8
 722              		.cfi_offset 14, -4
 723 0002 041C     		mov	r4, r0
 570:.\Generated_Source\PSoC4/LCD_Char_1.c ****         static char8 const CYCODE LCD_Char_1_hex[16u] = "0123456789ABCDEF";
 571:.\Generated_Source\PSoC4/LCD_Char_1.c ****         
 572:.\Generated_Source\PSoC4/LCD_Char_1.c ****         LCD_Char_1_PutChar((char8) LCD_Char_1_hex[value >> LCD_Char_1_BYTE_UPPER_NIBBLE_SHIFT]);
 724              		.loc 1 572 0
 725 0004 0309     		lsr	r3, r0, #4
 726 0006 054D     		ldr	r5, .L39
 727 0008 E85C     		ldrb	r0, [r5, r3]
 728              	.LVL87:
 729 000a FFF7FEFF 		bl	LCD_Char_1_PutChar
 730              	.LVL88:
 573:.\Generated_Source\PSoC4/LCD_Char_1.c ****         LCD_Char_1_PutChar((char8) LCD_Char_1_hex[value & LCD_Char_1_BYTE_LOWER_NIBBLE_MASK]);
 731              		.loc 1 573 0
 732 000e 0F23     		mov	r3, #15
 733 0010 1C40     		and	r4, r3
 734 0012 285D     		ldrb	r0, [r5, r4]
 735 0014 FFF7FEFF 		bl	LCD_Char_1_PutChar
 736              	.LVL89:
 574:.\Generated_Source\PSoC4/LCD_Char_1.c ****     }
 737              		.loc 1 574 0
 738              		@ sp needed
 739 0018 38BD     		pop	{r3, r4, r5, pc}
 740              	.L40:
 741 001a C046     		.align	2
 742              	.L39:
 743 001c 00000000 		.word	.LANCHOR1
 744              		.cfi_endproc
 745              	.LFE12:
ARM GAS  C:\Users\Nick\AppData\Local\Temp\ccgmJ0U9.s 			page 26


 746              		.size	LCD_Char_1_PrintInt8, .-LCD_Char_1_PrintInt8
 747              		.section	.text.LCD_Char_1_PrintInt16,"ax",%progbits
 748              		.align	2
 749              		.global	LCD_Char_1_PrintInt16
 750              		.code	16
 751              		.thumb_func
 752              		.type	LCD_Char_1_PrintInt16, %function
 753              	LCD_Char_1_PrintInt16:
 754              	.LFB13:
 575:.\Generated_Source\PSoC4/LCD_Char_1.c **** 
 576:.\Generated_Source\PSoC4/LCD_Char_1.c **** 
 577:.\Generated_Source\PSoC4/LCD_Char_1.c ****     /*******************************************************************************
 578:.\Generated_Source\PSoC4/LCD_Char_1.c ****     *  Function Name: LCD_Char_1_PrintInt16
 579:.\Generated_Source\PSoC4/LCD_Char_1.c ****     ********************************************************************************
 580:.\Generated_Source\PSoC4/LCD_Char_1.c ****     *
 581:.\Generated_Source\PSoC4/LCD_Char_1.c ****     * Summary:
 582:.\Generated_Source\PSoC4/LCD_Char_1.c ****     *  Print a uint16 as four ASCII characters.
 583:.\Generated_Source\PSoC4/LCD_Char_1.c ****     *
 584:.\Generated_Source\PSoC4/LCD_Char_1.c ****     * Parameters:
 585:.\Generated_Source\PSoC4/LCD_Char_1.c ****     *  value: The uint16 to be printed out as ASCII characters.
 586:.\Generated_Source\PSoC4/LCD_Char_1.c ****     *
 587:.\Generated_Source\PSoC4/LCD_Char_1.c ****     * Return:
 588:.\Generated_Source\PSoC4/LCD_Char_1.c ****     *  None.
 589:.\Generated_Source\PSoC4/LCD_Char_1.c ****     *
 590:.\Generated_Source\PSoC4/LCD_Char_1.c ****     *******************************************************************************/
 591:.\Generated_Source\PSoC4/LCD_Char_1.c ****     void LCD_Char_1_PrintInt16(uint16 value) 
 592:.\Generated_Source\PSoC4/LCD_Char_1.c ****     {
 755              		.loc 1 592 0
 756              		.cfi_startproc
 757              	.LVL90:
 758 0000 10B5     		push	{r4, lr}
 759              		.cfi_def_cfa_offset 8
 760              		.cfi_offset 4, -8
 761              		.cfi_offset 14, -4
 762 0002 041C     		mov	r4, r0
 593:.\Generated_Source\PSoC4/LCD_Char_1.c ****         LCD_Char_1_PrintInt8((uint8)(value >> LCD_Char_1_U16_UPPER_BYTE_SHIFT));
 763              		.loc 1 593 0
 764 0004 000A     		lsr	r0, r0, #8
 765              	.LVL91:
 766 0006 FFF7FEFF 		bl	LCD_Char_1_PrintInt8
 767              	.LVL92:
 594:.\Generated_Source\PSoC4/LCD_Char_1.c ****         LCD_Char_1_PrintInt8((uint8)(value & LCD_Char_1_U16_LOWER_BYTE_MASK));
 768              		.loc 1 594 0
 769 000a E0B2     		uxtb	r0, r4
 770 000c FFF7FEFF 		bl	LCD_Char_1_PrintInt8
 771              	.LVL93:
 595:.\Generated_Source\PSoC4/LCD_Char_1.c ****     }
 772              		.loc 1 595 0
 773              		@ sp needed
 774 0010 10BD     		pop	{r4, pc}
 775              		.cfi_endproc
 776              	.LFE13:
 777              		.size	LCD_Char_1_PrintInt16, .-LCD_Char_1_PrintInt16
 778 0012 C046     		.section	.text.LCD_Char_1_PrintInt32,"ax",%progbits
 779              		.align	2
 780              		.global	LCD_Char_1_PrintInt32
 781              		.code	16
ARM GAS  C:\Users\Nick\AppData\Local\Temp\ccgmJ0U9.s 			page 27


 782              		.thumb_func
 783              		.type	LCD_Char_1_PrintInt32, %function
 784              	LCD_Char_1_PrintInt32:
 785              	.LFB14:
 596:.\Generated_Source\PSoC4/LCD_Char_1.c **** 
 597:.\Generated_Source\PSoC4/LCD_Char_1.c ****     
 598:.\Generated_Source\PSoC4/LCD_Char_1.c ****     /*******************************************************************************
 599:.\Generated_Source\PSoC4/LCD_Char_1.c ****     *  Function Name: LCD_Char_1_PrintInt32
 600:.\Generated_Source\PSoC4/LCD_Char_1.c ****     ********************************************************************************
 601:.\Generated_Source\PSoC4/LCD_Char_1.c ****     *
 602:.\Generated_Source\PSoC4/LCD_Char_1.c ****     * Summary:
 603:.\Generated_Source\PSoC4/LCD_Char_1.c ****     *  Print a uint32 hexadecimal number as eight ASCII characters.
 604:.\Generated_Source\PSoC4/LCD_Char_1.c ****     *
 605:.\Generated_Source\PSoC4/LCD_Char_1.c ****     * Parameters:
 606:.\Generated_Source\PSoC4/LCD_Char_1.c ****     *  value: The uint32 to be printed out as ASCII characters.
 607:.\Generated_Source\PSoC4/LCD_Char_1.c ****     *
 608:.\Generated_Source\PSoC4/LCD_Char_1.c ****     * Return:
 609:.\Generated_Source\PSoC4/LCD_Char_1.c ****     *  None.
 610:.\Generated_Source\PSoC4/LCD_Char_1.c ****     *
 611:.\Generated_Source\PSoC4/LCD_Char_1.c ****     *******************************************************************************/
 612:.\Generated_Source\PSoC4/LCD_Char_1.c ****     void LCD_Char_1_PrintInt32(uint32 value) 
 613:.\Generated_Source\PSoC4/LCD_Char_1.c ****     {
 786              		.loc 1 613 0
 787              		.cfi_startproc
 788              	.LVL94:
 789 0000 38B5     		push	{r3, r4, r5, lr}
 790              		.cfi_def_cfa_offset 16
 791              		.cfi_offset 3, -16
 792              		.cfi_offset 4, -12
 793              		.cfi_offset 5, -8
 794              		.cfi_offset 14, -4
 795 0002 051C     		mov	r5, r0
 796              	.LVL95:
 614:.\Generated_Source\PSoC4/LCD_Char_1.c ****         uint8 shift = LCD_Char_1_32_BIT_SHIFT;
 797              		.loc 1 614 0
 798 0004 2024     		mov	r4, #32
 615:.\Generated_Source\PSoC4/LCD_Char_1.c ****         
 616:.\Generated_Source\PSoC4/LCD_Char_1.c ****         while (shift != 0u)
 799              		.loc 1 616 0
 800 0006 06E0     		b	.L43
 801              	.LVL96:
 802              	.L44:
 617:.\Generated_Source\PSoC4/LCD_Char_1.c ****         {
 618:.\Generated_Source\PSoC4/LCD_Char_1.c ****             /* "shift" var is to be subtracted by 8 prior shifting. This implements 
 619:.\Generated_Source\PSoC4/LCD_Char_1.c ****             * shifting by 24, 16, 8 and 0u. 
 620:.\Generated_Source\PSoC4/LCD_Char_1.c ****             */
 621:.\Generated_Source\PSoC4/LCD_Char_1.c ****             shift -= LCD_Char_1_8_BIT_SHIFT;
 803              		.loc 1 621 0
 804 0008 083C     		sub	r4, r4, #8
 805              	.LVL97:
 806 000a E4B2     		uxtb	r4, r4
 807              	.LVL98:
 622:.\Generated_Source\PSoC4/LCD_Char_1.c ****             
 623:.\Generated_Source\PSoC4/LCD_Char_1.c ****             /* Print 8 bits of uint32 hex number */
 624:.\Generated_Source\PSoC4/LCD_Char_1.c ****             LCD_Char_1_PrintInt8((uint8) ((uint32) (value >> shift)));
 808              		.loc 1 624 0
 809 000c 281C     		mov	r0, r5
ARM GAS  C:\Users\Nick\AppData\Local\Temp\ccgmJ0U9.s 			page 28


 810 000e E040     		lsr	r0, r0, r4
 811 0010 C0B2     		uxtb	r0, r0
 812 0012 FFF7FEFF 		bl	LCD_Char_1_PrintInt8
 813              	.LVL99:
 814              	.L43:
 616:.\Generated_Source\PSoC4/LCD_Char_1.c ****         {
 815              		.loc 1 616 0
 816 0016 002C     		cmp	r4, #0
 817 0018 F6D1     		bne	.L44
 625:.\Generated_Source\PSoC4/LCD_Char_1.c ****         }
 626:.\Generated_Source\PSoC4/LCD_Char_1.c ****     }
 818              		.loc 1 626 0
 819              		@ sp needed
 820              	.LVL100:
 821              	.LVL101:
 822 001a 38BD     		pop	{r3, r4, r5, pc}
 823              		.cfi_endproc
 824              	.LFE14:
 825              		.size	LCD_Char_1_PrintInt32, .-LCD_Char_1_PrintInt32
 826              		.global	__aeabi_uidivmod
 827              		.global	__aeabi_uidiv
 828              		.section	.text.LCD_Char_1_PrintU32Number,"ax",%progbits
 829              		.align	2
 830              		.global	LCD_Char_1_PrintU32Number
 831              		.code	16
 832              		.thumb_func
 833              		.type	LCD_Char_1_PrintU32Number, %function
 834              	LCD_Char_1_PrintU32Number:
 835              	.LFB15:
 627:.\Generated_Source\PSoC4/LCD_Char_1.c ****     
 628:.\Generated_Source\PSoC4/LCD_Char_1.c ****     
 629:.\Generated_Source\PSoC4/LCD_Char_1.c ****     /*******************************************************************************
 630:.\Generated_Source\PSoC4/LCD_Char_1.c ****     *  Function Name: LCD_Char_1_PrintNumber
 631:.\Generated_Source\PSoC4/LCD_Char_1.c ****     ********************************************************************************
 632:.\Generated_Source\PSoC4/LCD_Char_1.c ****     *
 633:.\Generated_Source\PSoC4/LCD_Char_1.c ****     * Summary:
 634:.\Generated_Source\PSoC4/LCD_Char_1.c ****     *  Print an uint16 value as a left-justified decimal value.
 635:.\Generated_Source\PSoC4/LCD_Char_1.c ****     *
 636:.\Generated_Source\PSoC4/LCD_Char_1.c ****     * Parameters:
 637:.\Generated_Source\PSoC4/LCD_Char_1.c ****     *  value: A 16-bit value to be printed in ASCII characters as a decimal number
 638:.\Generated_Source\PSoC4/LCD_Char_1.c ****     *
 639:.\Generated_Source\PSoC4/LCD_Char_1.c ****     * Return:
 640:.\Generated_Source\PSoC4/LCD_Char_1.c ****     *  None.
 641:.\Generated_Source\PSoC4/LCD_Char_1.c ****     *
 642:.\Generated_Source\PSoC4/LCD_Char_1.c ****     * Note:
 643:.\Generated_Source\PSoC4/LCD_Char_1.c ****     *  This function is implemented as a macro.
 644:.\Generated_Source\PSoC4/LCD_Char_1.c ****     *
 645:.\Generated_Source\PSoC4/LCD_Char_1.c ****     *******************************************************************************/
 646:.\Generated_Source\PSoC4/LCD_Char_1.c **** 
 647:.\Generated_Source\PSoC4/LCD_Char_1.c ****     
 648:.\Generated_Source\PSoC4/LCD_Char_1.c ****     /*******************************************************************************
 649:.\Generated_Source\PSoC4/LCD_Char_1.c ****     *  Function Name: LCD_Char_1_PrintU32Number
 650:.\Generated_Source\PSoC4/LCD_Char_1.c ****     ********************************************************************************
 651:.\Generated_Source\PSoC4/LCD_Char_1.c ****     *
 652:.\Generated_Source\PSoC4/LCD_Char_1.c ****     * Summary:
 653:.\Generated_Source\PSoC4/LCD_Char_1.c ****     *  Print an uint32 value as a left-justified decimal value.
 654:.\Generated_Source\PSoC4/LCD_Char_1.c ****     *
ARM GAS  C:\Users\Nick\AppData\Local\Temp\ccgmJ0U9.s 			page 29


 655:.\Generated_Source\PSoC4/LCD_Char_1.c ****     * Parameters:
 656:.\Generated_Source\PSoC4/LCD_Char_1.c ****     *  value: A 32-bit value to be printed in ASCII characters as a decimal number
 657:.\Generated_Source\PSoC4/LCD_Char_1.c ****     *
 658:.\Generated_Source\PSoC4/LCD_Char_1.c ****     * Return:
 659:.\Generated_Source\PSoC4/LCD_Char_1.c ****     *  None.
 660:.\Generated_Source\PSoC4/LCD_Char_1.c ****     *
 661:.\Generated_Source\PSoC4/LCD_Char_1.c ****     *******************************************************************************/
 662:.\Generated_Source\PSoC4/LCD_Char_1.c ****     void LCD_Char_1_PrintU32Number(uint32 value) 
 663:.\Generated_Source\PSoC4/LCD_Char_1.c ****     {
 836              		.loc 1 663 0
 837              		.cfi_startproc
 838              	.LVL102:
 839 0000 30B5     		push	{r4, r5, lr}
 840              		.cfi_def_cfa_offset 12
 841              		.cfi_offset 4, -12
 842              		.cfi_offset 5, -8
 843              		.cfi_offset 14, -4
 844 0002 85B0     		sub	sp, sp, #20
 845              		.cfi_def_cfa_offset 32
 846 0004 051C     		mov	r5, r0
 847              	.LVL103:
 664:.\Generated_Source\PSoC4/LCD_Char_1.c ****         uint8 tmpDigit;
 665:.\Generated_Source\PSoC4/LCD_Char_1.c ****         char8 number[LCD_Char_1_NUMBER_OF_REMAINDERS_U32 + 1u];
 666:.\Generated_Source\PSoC4/LCD_Char_1.c ****         uint8 digIndex = LCD_Char_1_NUMBER_OF_REMAINDERS_U32;
 667:.\Generated_Source\PSoC4/LCD_Char_1.c ****         
 668:.\Generated_Source\PSoC4/LCD_Char_1.c ****         /* This API will output a decimal number as a string and that string will be 
 669:.\Generated_Source\PSoC4/LCD_Char_1.c ****         * filled from end to start. Set Null termination character first.
 670:.\Generated_Source\PSoC4/LCD_Char_1.c ****         */
 671:.\Generated_Source\PSoC4/LCD_Char_1.c ****         number[digIndex] = (char8) '\0';
 848              		.loc 1 671 0
 849 0006 0022     		mov	r2, #0
 850 0008 01AB     		add	r3, sp, #4
 851 000a 9A72     		strb	r2, [r3, #10]
 852              	.LVL104:
 672:.\Generated_Source\PSoC4/LCD_Char_1.c ****         digIndex--;
 853              		.loc 1 672 0
 854 000c 0924     		mov	r4, #9
 673:.\Generated_Source\PSoC4/LCD_Char_1.c ****         
 674:.\Generated_Source\PSoC4/LCD_Char_1.c ****         /* Load these in reverse order */
 675:.\Generated_Source\PSoC4/LCD_Char_1.c ****         while(value >= LCD_Char_1_TEN)
 855              		.loc 1 675 0
 856 000e 0DE0     		b	.L46
 857              	.LVL105:
 858              	.L47:
 676:.\Generated_Source\PSoC4/LCD_Char_1.c ****         {
 677:.\Generated_Source\PSoC4/LCD_Char_1.c ****             /* Extract decimal digit, indexed by 'digIndex', from 'value' and
 678:.\Generated_Source\PSoC4/LCD_Char_1.c ****             * convert it to ASCII character.
 679:.\Generated_Source\PSoC4/LCD_Char_1.c ****             */
 680:.\Generated_Source\PSoC4/LCD_Char_1.c ****             tmpDigit = (uint8) (((uint8) (value % LCD_Char_1_TEN)) + (uint8) LCD_Char_1_ZERO_CHAR_A
 859              		.loc 1 680 0
 860 0010 281C     		mov	r0, r5
 861              	.LVL106:
 862 0012 0A21     		mov	r1, #10
 863 0014 FFF7FEFF 		bl	__aeabi_uidivmod
 864              	.LVL107:
 865 0018 3031     		add	r1, r1, #48
 866              	.LVL108:
ARM GAS  C:\Users\Nick\AppData\Local\Temp\ccgmJ0U9.s 			page 30


 681:.\Generated_Source\PSoC4/LCD_Char_1.c ****             
 682:.\Generated_Source\PSoC4/LCD_Char_1.c ****             /* Temporary variable 'tmpDigit' is used to avoid Violation of MISRA rule 
 683:.\Generated_Source\PSoC4/LCD_Char_1.c ****             * #10.3.
 684:.\Generated_Source\PSoC4/LCD_Char_1.c ****             */
 685:.\Generated_Source\PSoC4/LCD_Char_1.c ****             number[digIndex] = (char8) tmpDigit;
 867              		.loc 1 685 0
 868 001a 01AB     		add	r3, sp, #4
 869 001c 1955     		strb	r1, [r3, r4]
 686:.\Generated_Source\PSoC4/LCD_Char_1.c ****             value /= LCD_Char_1_TEN;
 870              		.loc 1 686 0
 871 001e 281C     		mov	r0, r5
 872 0020 0A21     		mov	r1, #10
 873              	.LVL109:
 874 0022 FFF7FEFF 		bl	__aeabi_uidiv
 875              	.LVL110:
 876 0026 051C     		mov	r5, r0
 877              	.LVL111:
 687:.\Generated_Source\PSoC4/LCD_Char_1.c ****             digIndex--;
 878              		.loc 1 687 0
 879 0028 013C     		sub	r4, r4, #1
 880              	.LVL112:
 881 002a E4B2     		uxtb	r4, r4
 882              	.LVL113:
 883              	.L46:
 675:.\Generated_Source\PSoC4/LCD_Char_1.c ****         {
 884              		.loc 1 675 0
 885 002c 092D     		cmp	r5, #9
 886 002e EFD8     		bhi	.L47
 688:.\Generated_Source\PSoC4/LCD_Char_1.c ****         }
 689:.\Generated_Source\PSoC4/LCD_Char_1.c ****         
 690:.\Generated_Source\PSoC4/LCD_Char_1.c ****         /* Extract last decimal digit 'digIndex', from the 'value' and convert it
 691:.\Generated_Source\PSoC4/LCD_Char_1.c ****         * to ASCII character.
 692:.\Generated_Source\PSoC4/LCD_Char_1.c ****         */
 693:.\Generated_Source\PSoC4/LCD_Char_1.c ****         tmpDigit = (uint8) (((uint8)(value % LCD_Char_1_TEN)) + (uint8) LCD_Char_1_ZERO_CHAR_ASCII)
 887              		.loc 1 693 0
 888 0030 281C     		mov	r0, r5
 889 0032 0A21     		mov	r1, #10
 890 0034 FFF7FEFF 		bl	__aeabi_uidivmod
 891              	.LVL114:
 892 0038 3031     		add	r1, r1, #48
 893              	.LVL115:
 694:.\Generated_Source\PSoC4/LCD_Char_1.c ****         number[digIndex] = (char8) tmpDigit;
 894              		.loc 1 694 0
 895 003a 01A8     		add	r0, sp, #4
 896 003c 0155     		strb	r1, [r0, r4]
 695:.\Generated_Source\PSoC4/LCD_Char_1.c **** 
 696:.\Generated_Source\PSoC4/LCD_Char_1.c ****         /* Print out number */
 697:.\Generated_Source\PSoC4/LCD_Char_1.c ****         LCD_Char_1_PrintString(&number[digIndex]);
 897              		.loc 1 697 0
 898 003e 0019     		add	r0, r0, r4
 899 0040 FFF7FEFF 		bl	LCD_Char_1_PrintString
 900              	.LVL116:
 698:.\Generated_Source\PSoC4/LCD_Char_1.c ****     }
 901              		.loc 1 698 0
 902 0044 05B0     		add	sp, sp, #20
 903              		@ sp needed
 904              	.LVL117:
ARM GAS  C:\Users\Nick\AppData\Local\Temp\ccgmJ0U9.s 			page 31


 905              	.LVL118:
 906 0046 30BD     		pop	{r4, r5, pc}
 907              		.cfi_endproc
 908              	.LFE15:
 909              		.size	LCD_Char_1_PrintU32Number, .-LCD_Char_1_PrintU32Number
 910              		.global	LCD_Char_1_initVar
 911              		.global	LCD_Char_1_enableState
 912              		.section	.rodata
 913              		.align	2
 914              		.set	.LANCHOR1,. + 0
 915              		.type	LCD_Char_1_hex.4790, %object
 916              		.size	LCD_Char_1_hex.4790, 16
 917              	LCD_Char_1_hex.4790:
 918 0000 30313233 		.ascii	"0123456789ABCDEF"
 918      34353637 
 918      38394142 
 918      43444546 
 919              		.bss
 920              		.set	.LANCHOR0,. + 0
 921              		.type	LCD_Char_1_enableState, %object
 922              		.size	LCD_Char_1_enableState, 1
 923              	LCD_Char_1_enableState:
 924 0000 00       		.space	1
 925              		.type	LCD_Char_1_initVar, %object
 926              		.size	LCD_Char_1_initVar, 1
 927              	LCD_Char_1_initVar:
 928 0001 00       		.space	1
 929              		.text
 930              	.Letext0:
 931              		.file 2 ".\\Generated_Source\\PSoC4\\cytypes.h"
 932              		.file 3 ".\\Generated_Source\\PSoC4\\LCD_Char_1.h"
 933              		.file 4 ".\\Generated_Source\\PSoC4\\CyLib.h"