ARM GAS  C:\Users\Nick\AppData\Local\Temp\cctP0FUS.s 			page 1


   1              		.cpu cortex-m0
   2              		.fpu softvfp
   3              		.eabi_attribute 20, 1
   4              		.eabi_attribute 21, 1
   5              		.eabi_attribute 23, 3
   6              		.eabi_attribute 24, 1
   7              		.eabi_attribute 25, 1
   8              		.eabi_attribute 26, 1
   9              		.eabi_attribute 30, 1
  10              		.eabi_attribute 34, 0
  11              		.eabi_attribute 18, 4
  12              		.code	16
  13              		.file	"main.c"
  14              		.text
  15              	.Ltext0:
  16              		.cfi_sections	.debug_frame
  17              		.section	.text.IntToString,"ax",%progbits
  18              		.align	2
  19              		.global	IntToString
  20              		.code	16
  21              		.thumb_func
  22              		.type	IntToString, %function
  23              	IntToString:
  24              	.LFB33:
  25              		.file 1 ".\\main.c"
   1:.\main.c      **** /* ========================================
   2:.\main.c      ****  *
   3:.\main.c      ****  * Copyright YOUR COMPANY, THE YEAR
   4:.\main.c      ****  * All Rights Reserved
   5:.\main.c      ****  * UNPUBLISHED, LICENSED SOFTWARE.
   6:.\main.c      ****  *
   7:.\main.c      ****  * CONFIDENTIAL AND PROPRIETARY INFORMATION
   8:.\main.c      ****  * WHICH IS THE PROPERTY OF your company.
   9:.\main.c      ****  *
  10:.\main.c      ****  * ========================================
  11:.\main.c      **** */
  12:.\main.c      **** #include <project.h>
  13:.\main.c      **** #include<stdio.h>
  14:.\main.c      **** #include<stdlib.h>
  15:.\main.c      **** 
  16:.\main.c      **** extern uint8 const CYCODE LCD_Char_1_customFonts[];
  17:.\main.c      **** 
  18:.\main.c      **** float angle = -90.0;
  19:.\main.c      **** int Angle = 0;
  20:.\main.c      **** char tmp[20];
  21:.\main.c      **** char outputStr[30];
  22:.\main.c      **** char Rotate_Dir[20];
  23:.\main.c      **** int PWM_1 = 4300;
  24:.\main.c      **** int PWM_2 = 4950;
  25:.\main.c      **** uint16 ADCresult1;
  26:.\main.c      **** uint16 ADCresult2;
  27:.\main.c      **** uint16 ADCresult3;
  28:.\main.c      **** char outputStr1[50];
  29:.\main.c      **** 
  30:.\main.c      **** void LCD_Display(); //LEDÊòæÁ§∫
  31:.\main.c      **** void Rotate_Verification();//ÊóãËΩ¨Á°ÆËÆ§
  32:.\main.c      **** void Servo_PWM_1(int m1);
ARM GAS  C:\Users\Nick\AppData\Local\Temp\cctP0FUS.s 			page 2


  33:.\main.c      **** void Servo_PWM_2(int m2);
  34:.\main.c      **** void RotateDirectionVerify();
  35:.\main.c      **** void IntToString(char *str, int number)
  36:.\main.c      **** {
  26              		.loc 1 36 0
  27              		.cfi_startproc
  28              	.LVL0:
  29 0000 08B5     		push	{r3, lr}
  30              		.cfi_def_cfa_offset 8
  31              		.cfi_offset 3, -8
  32              		.cfi_offset 14, -4
  33 0002 0A1C     		mov	r2, r1
  37:.\main.c      ****     sprintf(str,"%d",number);
  34              		.loc 1 37 0
  35 0004 0149     		ldr	r1, .L2
  36              	.LVL1:
  37 0006 FFF7FEFF 		bl	sprintf
  38              	.LVL2:
  38:.\main.c      **** }
  39              		.loc 1 38 0
  40              		@ sp needed
  41 000a 08BD     		pop	{r3, pc}
  42              	.L3:
  43              		.align	2
  44              	.L2:
  45 000c 00000000 		.word	.LC0
  46              		.cfi_endproc
  47              	.LFE33:
  48              		.size	IntToString, .-IntToString
  49              		.global	__aeabi_i2d
  50              		.global	__aeabi_dmul
  51              		.global	__aeabi_ddiv
  52              		.global	__aeabi_d2f
  53              		.global	__aeabi_f2iz
  54              		.section	.text.Servo_PWM_1,"ax",%progbits
  55              		.align	2
  56              		.global	Servo_PWM_1
  57              		.code	16
  58              		.thumb_func
  59              		.type	Servo_PWM_1, %function
  60              	Servo_PWM_1:
  61              	.LFB35:
  39:.\main.c      **** 
  40:.\main.c      **** 
  41:.\main.c      **** int main()
  42:.\main.c      **** {
  43:.\main.c      ****     CyGlobalIntEnable; /* Enable global interrupts. */
  44:.\main.c      **** 
  45:.\main.c      ****     /* Place your initialization/startup code here (e.g. MyInst_Start()) */
  46:.\main.c      ****     Clock_1_Enable();
  47:.\main.c      ****     Clock_2_Enable();
  48:.\main.c      ****     PWM_1_Start();
  49:.\main.c      ****     PWM_2_Start();
  50:.\main.c      ****     LCD_Char_1_Start();
  51:.\main.c      ****     LCD_Char_1_LoadCustomFonts(LCD_Char_1_customFonts);
  52:.\main.c      ****     ADC_SAR_Seq_1_Start();
  53:.\main.c      ****     LCD_Char_1_ClearDisplay();
ARM GAS  C:\Users\Nick\AppData\Local\Temp\cctP0FUS.s 			page 3


  54:.\main.c      ****     ADC_SAR_Seq_1_StartConvert();
  55:.\main.c      ****     for(;;)
  56:.\main.c      ****     {
  57:.\main.c      ****         /* Place your application code here. */
  58:.\main.c      ****         ADC_SAR_Seq_1_IsEndConversion(ADC_SAR_Seq_1_WAIT_FOR_RESULT);
  59:.\main.c      ****         ADCresult1 = ADC_SAR_Seq_1_GetResult16(0); //Â∞è‰∫é1000ÈªëÔºåÂ§ß‰∫é1000ÁôΩ
  60:.\main.c      ****         ADCresult2 = ADC_SAR_Seq_1_GetResult16(1);
  61:.\main.c      ****         ADCresult3 = ADC_SAR_Seq_1_GetResult16(2);
  62:.\main.c      ****         LCD_Char_1_Position(0,0);
  63:.\main.c      ****         LCD_Char_1_PrintString(" "); //ËæìÂÖ•ÂâçÊ∏ÖÂ±è
  64:.\main.c      ****         LCD_Char_1_Position(0,0);
  65:.\main.c      ****         sprintf(outputStr, "%d ",ADCresult1); //ÊòæÁ§∫ËΩ¨ÁöÑËßíÂ∫¶
  66:.\main.c      ****         LCD_Char_1_PrintString(outputStr);
  67:.\main.c      ****         LCD_Char_1_Position(1,0);
  68:.\main.c      ****         LCD_Char_1_PrintString(" "); //ËæìÂÖ•ÂâçÊ∏ÖÂ±è
  69:.\main.c      ****         LCD_Char_1_Position(1,0);
  70:.\main.c      ****         sprintf(outputStr, "%d ",ADCresult2); //ÊòæÁ§∫ËΩ¨ÁöÑËßíÂ∫¶
  71:.\main.c      ****         LCD_Char_1_PrintString(outputStr);
  72:.\main.c      ****         LCD_Char_1_Position(1,7);
  73:.\main.c      ****         LCD_Char_1_PrintString(" "); //ËæìÂÖ•ÂâçÊ∏ÖÂ±è
  74:.\main.c      ****         LCD_Char_1_Position(1,7);
  75:.\main.c      ****         sprintf(outputStr, "%d ",ADCresult3); //ÊòæÁ§∫ËΩ¨ÁöÑËßíÂ∫¶
  76:.\main.c      ****         LCD_Char_1_PrintString(outputStr);
  77:.\main.c      ****         //CyDelay(1000);
  78:.\main.c      ****        /* int res1,res2,res3,state,pre_state;
  79:.\main.c      ****         if(ADCresult1 < 1200) res1 = 0;
  80:.\main.c      ****         else res1 = 1;
  81:.\main.c      ****         if(ADCresult2 < 1200) res2 = 0;
  82:.\main.c      ****         else res2 = 1;
  83:.\main.c      ****         if(ADCresult3 < 1200) res3 = 0;
  84:.\main.c      ****         else res3 = 1;
  85:.\main.c      ****         state = (res1<<2) + (res2<<1)+ res3;
  86:.\main.c      ****         if(res2 == 0){
  87:.\main.c      ****             Servo_PWM_1(4200);
  88:.\main.c      ****             Servo_PWM_2(5200);
  89:.\main.c      ****             pre_state = 0;
  90:.\main.c      ****             CyDelay(80);
  91:.\main.c      ****         }
  92:.\main.c      ****         else if(state == 7)
  93:.\main.c      ****         {
  94:.\main.c      ****             Servo_PWM_1(5200);
  95:.\main.c      ****             Servo_PWM_2(3800);
  96:.\main.c      ****             pre_state =4;
  97:.\main.c      ****             CyDelay(30);
  98:.\main.c      ****         }
  99:.\main.c      ****         else if(res1 ==1)
 100:.\main.c      ****         {
 101:.\main.c      ****             Servo_PWM_1(3800);
 102:.\main.c      ****             Servo_PWM_2(4800);
 103:.\main.c      ****             pre_state = 1;
 104:.\main.c      ****             CyDelay(50);
 105:.\main.c      ****         }
 106:.\main.c      ****         else if(res3 ==1){
 107:.\main.c      ****              Servo_PWM_1(4600);
 108:.\main.c      ****              Servo_PWM_2(5600);
 109:.\main.c      ****             pre_state = 2;
 110:.\main.c      ****             CyDelay(50);;
ARM GAS  C:\Users\Nick\AppData\Local\Temp\cctP0FUS.s 			page 4


 111:.\main.c      ****         }
 112:.\main.c      ****        switch(state){
 113:.\main.c      ****             case 0: //ÂÖ®Èªë 000
 114:.\main.c      ****                 Servo_PWM_1(4300);
 115:.\main.c      ****                 Servo_PWM_2(5000);
 116:.\main.c      ****                 break;
 117:.\main.c      ****             case 1: // 001 Â∑¶ËΩ¨
 118:.\main.c      ****                 Servo_PWM_1(4000);
 119:.\main.c      ****                 Servo_PWM_2(4900);
 120:.\main.c      ****                 break;
 121:.\main.c      ****             case 2: //010 not exist
 122:.\main.c      ****                 break;
 123:.\main.c      ****             case 3: // 011 Â∑¶ËΩ¨
 124:.\main.c      ****                 Servo_PWM_1(3800);
 125:.\main.c      ****                 Servo_PWM_2(4800);
 126:.\main.c      ****                 break;
 127:.\main.c      ****             case 4: //100 Âè≥ËΩ¨
 128:.\main.c      ****                 Servo_PWM_1(4400);
 129:.\main.c      ****                 Servo_PWM_2(5300);
 130:.\main.c      ****                 break;
 131:.\main.c      ****             case 5://101 
 132:.\main.c      ****                 Servo_PWM_1(4300);
 133:.\main.c      ****                 Servo_PWM_2(5000);
 134:.\main.c      ****                 break;
 135:.\main.c      ****             case 6: //110 Âè≥ËΩ¨
 136:.\main.c      ****                 Servo_PWM_1(4500);
 137:.\main.c      ****                 Servo_PWM_2(5500);
 138:.\main.c      ****                 break;
 139:.\main.c      ****             default:
 140:.\main.c      ****                  Servo_PWM_1(5000);
 141:.\main.c      ****                  Servo_PWM_2(4300);
 142:.\main.c      ****                 break;
 143:.\main.c      ****               
 144:.\main.c      ****         }*/
 145:.\main.c      ****        // CyDelay(50);
 146:.\main.c      ****         //‰∏â‰∏™Êé¢Â§¥ÈªëËâ≤ÔºåÁõ¥Ë°å
 147:.\main.c      ****         int th =1050;
 148:.\main.c      ****        if((ADCresult1 < th)&&(ADCresult2 < th)&&(ADCresult3 < th))
 149:.\main.c      ****         {
 150:.\main.c      ****             Servo_PWM_1(4120); //4250
 151:.\main.c      ****             Servo_PWM_2(5070);  //4950
 152:.\main.c      ****             LCD_Char_1_PrintString("      ");
 153:.\main.c      ****             LCD_Char_1_Position(1,13);
 154:.\main.c      ****             LCD_Char_1_PrintString("1");
 155:.\main.c      ****             CyDelay(50);
 156:.\main.c      ****         }
 157:.\main.c      ****         // Â∑¶ËæπÊé¢Â§¥ÁôΩËâ≤ÔºåËΩ¶Â≠êÂÅèÂ∑¶ÔºåÂè≥ËΩ¨
 158:.\main.c      ****         if(((ADCresult1>th)&&(ADCresult2<th)&&(ADCresult3 < ADCresult2 + 300 && ADCresult3 < th - 1
 159:.\main.c      ****              ((ADCresult1>th)&&(ADCresult2>th)&&(ADCresult3<ADCresult2 + 300 && ADCresult3 < th- 10
 160:.\main.c      ****         { 
 161:.\main.c      ****             Servo_PWM_1(3900);
 162:.\main.c      ****             Servo_PWM_2(4500);
 163:.\main.c      ****             LCD_Char_1_PrintString(" "); //ËæìÂÖ•ÂâçÊ∏ÖÂ±è
 164:.\main.c      ****             LCD_Char_1_Position(1,13);
 165:.\main.c      ****             LCD_Char_1_PrintString("2");
 166:.\main.c      ****             CyDelay(20);
 167:.\main.c      ****          }
ARM GAS  C:\Users\Nick\AppData\Local\Temp\cctP0FUS.s 			page 5


 168:.\main.c      ****         //Âè≥ËæπÊé¢Â§¥ÁôΩËâ≤ÔºåËΩ¶Â≠êÂÅèÂè≥ÔºåÂ∑¶ËΩ¨
 169:.\main.c      ****         else if((ADCresult1<th + 150)&&(ADCresult2>th-500)&&(ADCresult3>th-50))
 170:.\main.c      ****         { //&&&&(ADCresult3>th+100))||((ADCresult1<th+ 200)&&(ADCresult2>th-200)&&(ADCresult3>th+10
 171:.\main.c      ****             Servo_PWM_1(4300);
 172:.\main.c      ****             Servo_PWM_2(5830); //t5800
 173:.\main.c      ****             LCD_Char_1_PrintString(" "); //ËæìÂÖ•ÂâçÊ∏ÖÂ±è
 174:.\main.c      ****             LCD_Char_1_Position(1,13);
 175:.\main.c      ****             LCD_Char_1_PrintString("3");
 176:.\main.c      ****             CyDelay(20);
 177:.\main.c      ****         }
 178:.\main.c      ****         
 179:.\main.c      ****         if((ADCresult1>th)&&(ADCresult2>th)&&(ADCresult3>th))
 180:.\main.c      ****         { //ÂÖ®ÁôΩÔºåÂêéÈÄÄ
 181:.\main.c      ****             Servo_PWM_1(5000);
 182:.\main.c      ****             Servo_PWM_2(4300);
 183:.\main.c      ****             LCD_Char_1_PrintString(" "); //ËæìÂÖ•ÂâçÊ∏ÖÂ±è
 184:.\main.c      ****             LCD_Char_1_Position(1,13);
 185:.\main.c      ****             LCD_Char_1_PrintString("4");
 186:.\main.c      ****              CyDelay(20);
 187:.\main.c      ****          }
 188:.\main.c      ****         else{
 189:.\main.c      ****              Servo_PWM_1(4120);
 190:.\main.c      ****              Servo_PWM_2(5070);
 191:.\main.c      ****             LCD_Char_1_PrintString(" "); //ËæìÂÖ•ÂâçÊ∏ÖÂ±è
 192:.\main.c      ****             LCD_Char_1_Position(1,13);
 193:.\main.c      ****             LCD_Char_1_PrintString("5");
 194:.\main.c      ****           }
 195:.\main.c      ****     }
 196:.\main.c      ****      return 0;
 197:.\main.c      **** }
 198:.\main.c      **** 
 199:.\main.c      **** 
 200:.\main.c      **** void Servo_PWM_1(int m1)
 201:.\main.c      **** {
  62              		.loc 1 201 0
  63              		.cfi_startproc
  64              	.LVL3:
  65 0000 10B5     		push	{r4, lr}
  66              		.cfi_def_cfa_offset 8
  67              		.cfi_offset 4, -8
  68              		.cfi_offset 14, -4
 202:.\main.c      ****     PWM_1_WriteCompare(m1); //ÊîπÂèòÂç†Á©∫ÊØîÁöÑÂÄº
  69              		.loc 1 202 0
  70 0002 FFF7FEFF 		bl	PWM_1_WriteCompare
  71              	.LVL4:
 203:.\main.c      ****     angle = (90.0*(PWM_1-4500))/2500; //Êç¢ÁÆóÊàêÂÆûÈôÖËΩ¨ËøáÁöÑËßíÂ∫¶, Ê≠£Ë¥üÂÄºË°®Á§∫ÈÄÜÈ°∫Êó∂Èíà
  72              		.loc 1 203 0
  73 0006 0C4C     		ldr	r4, .L5
  74 0008 2368     		ldr	r3, [r4]
  75 000a 0C4A     		ldr	r2, .L5+4
  76 000c 9446     		mov	ip, r2
  77 000e 6344     		add	r3, r3, ip
  78 0010 181C     		mov	r0, r3
  79 0012 FFF7FEFF 		bl	__aeabi_i2d
  80              	.LVL5:
  81 0016 0022     		mov	r2, #0
  82 0018 094B     		ldr	r3, .L5+8
ARM GAS  C:\Users\Nick\AppData\Local\Temp\cctP0FUS.s 			page 6


  83 001a FFF7FEFF 		bl	__aeabi_dmul
  84              	.LVL6:
  85 001e 0022     		mov	r2, #0
  86 0020 084B     		ldr	r3, .L5+12
  87 0022 FFF7FEFF 		bl	__aeabi_ddiv
  88              	.LVL7:
  89 0026 FFF7FEFF 		bl	__aeabi_d2f
  90              	.LVL8:
  91 002a 6060     		str	r0, [r4, #4]
 204:.\main.c      ****     Angle=(int)angle;
  92              		.loc 1 204 0
  93 002c FFF7FEFF 		bl	__aeabi_f2iz
  94              	.LVL9:
  95 0030 054B     		ldr	r3, .L5+16
  96 0032 1860     		str	r0, [r3]
 205:.\main.c      **** }
  97              		.loc 1 205 0
  98              		@ sp needed
  99 0034 10BD     		pop	{r4, pc}
 100              	.L6:
 101 0036 C046     		.align	2
 102              	.L5:
 103 0038 00000000 		.word	.LANCHOR0
 104 003c 6CEEFFFF 		.word	-4500
 105 0040 00805640 		.word	1079410688
 106 0044 0088A340 		.word	1084459008
 107 0048 00000000 		.word	.LANCHOR1
 108              		.cfi_endproc
 109              	.LFE35:
 110              		.size	Servo_PWM_1, .-Servo_PWM_1
 111              		.section	.text.Servo_PWM_2,"ax",%progbits
 112              		.align	2
 113              		.global	Servo_PWM_2
 114              		.code	16
 115              		.thumb_func
 116              		.type	Servo_PWM_2, %function
 117              	Servo_PWM_2:
 118              	.LFB36:
 206:.\main.c      **** void Servo_PWM_2(int m2)
 207:.\main.c      **** {
 119              		.loc 1 207 0
 120              		.cfi_startproc
 121              	.LVL10:
 122 0000 10B5     		push	{r4, lr}
 123              		.cfi_def_cfa_offset 8
 124              		.cfi_offset 4, -8
 125              		.cfi_offset 14, -4
 208:.\main.c      ****     PWM_2_WriteCompare(m2);//ÊîπÂèòÂç†Á©∫ÊØîÁöÑÂÄº
 126              		.loc 1 208 0
 127 0002 FFF7FEFF 		bl	PWM_2_WriteCompare
 128              	.LVL11:
 209:.\main.c      ****     angle = (90.0*(PWM_1-4500))/2500;  //Êç¢ÁÆóÊàêÂÆûÈôÖËΩ¨ËøáÁöÑËßíÂ∫¶, Ê≠£Ë¥üÂÄºË°®Á§∫ÈÄÜÈ°∫Êó∂Èí
 129              		.loc 1 209 0
 130 0006 0C4C     		ldr	r4, .L8
 131 0008 2368     		ldr	r3, [r4]
 132 000a 0C4A     		ldr	r2, .L8+4
 133 000c 9446     		mov	ip, r2
ARM GAS  C:\Users\Nick\AppData\Local\Temp\cctP0FUS.s 			page 7


 134 000e 6344     		add	r3, r3, ip
 135 0010 181C     		mov	r0, r3
 136 0012 FFF7FEFF 		bl	__aeabi_i2d
 137              	.LVL12:
 138 0016 0022     		mov	r2, #0
 139 0018 094B     		ldr	r3, .L8+8
 140 001a FFF7FEFF 		bl	__aeabi_dmul
 141              	.LVL13:
 142 001e 0022     		mov	r2, #0
 143 0020 084B     		ldr	r3, .L8+12
 144 0022 FFF7FEFF 		bl	__aeabi_ddiv
 145              	.LVL14:
 146 0026 FFF7FEFF 		bl	__aeabi_d2f
 147              	.LVL15:
 148 002a 6060     		str	r0, [r4, #4]
 210:.\main.c      ****     Angle=(int)angle;
 149              		.loc 1 210 0
 150 002c FFF7FEFF 		bl	__aeabi_f2iz
 151              	.LVL16:
 152 0030 054B     		ldr	r3, .L8+16
 153 0032 1860     		str	r0, [r3]
 211:.\main.c      **** }
 154              		.loc 1 211 0
 155              		@ sp needed
 156 0034 10BD     		pop	{r4, pc}
 157              	.L9:
 158 0036 C046     		.align	2
 159              	.L8:
 160 0038 00000000 		.word	.LANCHOR0
 161 003c 6CEEFFFF 		.word	-4500
 162 0040 00805640 		.word	1079410688
 163 0044 0088A340 		.word	1084459008
 164 0048 00000000 		.word	.LANCHOR1
 165              		.cfi_endproc
 166              	.LFE36:
 167              		.size	Servo_PWM_2, .-Servo_PWM_2
 168              		.section	.text.main,"ax",%progbits
 169              		.align	2
 170              		.global	main
 171              		.code	16
 172              		.thumb_func
 173              		.type	main, %function
 174              	main:
 175              	.LFB34:
  42:.\main.c      ****     CyGlobalIntEnable; /* Enable global interrupts. */
 176              		.loc 1 42 0
 177              		.cfi_startproc
 178 0000 F8B5     		push	{r3, r4, r5, r6, r7, lr}
 179              		.cfi_def_cfa_offset 24
 180              		.cfi_offset 3, -24
 181              		.cfi_offset 4, -20
 182              		.cfi_offset 5, -16
 183              		.cfi_offset 6, -12
 184              		.cfi_offset 7, -8
 185              		.cfi_offset 14, -4
  43:.\main.c      **** 
 186              		.loc 1 43 0
ARM GAS  C:\Users\Nick\AppData\Local\Temp\cctP0FUS.s 			page 8


 187              	@ 43 ".\main.c" 1
 188 0002 62B6     		CPSIE   i
 189              	@ 0 "" 2
  46:.\main.c      ****     Clock_2_Enable();
 190              		.loc 1 46 0
 191              		.code	16
 192 0004 FFF7FEFF 		bl	Clock_1_Start
 193              	.LVL17:
  47:.\main.c      ****     PWM_1_Start();
 194              		.loc 1 47 0
 195 0008 FFF7FEFF 		bl	Clock_2_Start
 196              	.LVL18:
  48:.\main.c      ****     PWM_2_Start();
 197              		.loc 1 48 0
 198 000c FFF7FEFF 		bl	PWM_1_Start
 199              	.LVL19:
  49:.\main.c      ****     LCD_Char_1_Start();
 200              		.loc 1 49 0
 201 0010 FFF7FEFF 		bl	PWM_2_Start
 202              	.LVL20:
  50:.\main.c      ****     LCD_Char_1_LoadCustomFonts(LCD_Char_1_customFonts);
 203              		.loc 1 50 0
 204 0014 FFF7FEFF 		bl	LCD_Char_1_Start
 205              	.LVL21:
  51:.\main.c      ****     ADC_SAR_Seq_1_Start();
 206              		.loc 1 51 0
 207 0018 7A48     		ldr	r0, .L18
 208 001a FFF7FEFF 		bl	LCD_Char_1_LoadCustomFonts
 209              	.LVL22:
  52:.\main.c      ****     LCD_Char_1_ClearDisplay();
 210              		.loc 1 52 0
 211 001e FFF7FEFF 		bl	ADC_SAR_Seq_1_Start
 212              	.LVL23:
  53:.\main.c      ****     ADC_SAR_Seq_1_StartConvert();
 213              		.loc 1 53 0
 214 0022 0120     		mov	r0, #1
 215 0024 FFF7FEFF 		bl	LCD_Char_1_WriteControl
 216              	.LVL24:
  54:.\main.c      ****     for(;;)
 217              		.loc 1 54 0
 218 0028 FFF7FEFF 		bl	ADC_SAR_Seq_1_StartConvert
 219              	.LVL25:
 220              	.L11:
 221              	.LBB2:
  58:.\main.c      ****         ADCresult1 = ADC_SAR_Seq_1_GetResult16(0); //Â∞è‰∫é1000ÈªëÔºåÂ§ß‰∫é1000ÁôΩ
 222              		.loc 1 58 0
 223 002c 0220     		mov	r0, #2
 224 002e FFF7FEFF 		bl	ADC_SAR_Seq_1_IsEndConversion
 225              	.LVL26:
  59:.\main.c      ****         ADCresult2 = ADC_SAR_Seq_1_GetResult16(1);
 226              		.loc 1 59 0
 227 0032 0020     		mov	r0, #0
 228 0034 FFF7FEFF 		bl	ADC_SAR_Seq_1_GetResult16
 229              	.LVL27:
 230 0038 734D     		ldr	r5, .L18+4
 231 003a 2880     		strh	r0, [r5]
  60:.\main.c      ****         ADCresult3 = ADC_SAR_Seq_1_GetResult16(2);
ARM GAS  C:\Users\Nick\AppData\Local\Temp\cctP0FUS.s 			page 9


 232              		.loc 1 60 0
 233 003c 0120     		mov	r0, #1
 234 003e FFF7FEFF 		bl	ADC_SAR_Seq_1_GetResult16
 235              	.LVL28:
 236 0042 724F     		ldr	r7, .L18+8
 237 0044 3880     		strh	r0, [r7]
  61:.\main.c      ****         LCD_Char_1_Position(0,0);
 238              		.loc 1 61 0
 239 0046 0220     		mov	r0, #2
 240 0048 FFF7FEFF 		bl	ADC_SAR_Seq_1_GetResult16
 241              	.LVL29:
 242 004c 704E     		ldr	r6, .L18+12
 243 004e 3080     		strh	r0, [r6]
  62:.\main.c      ****         LCD_Char_1_PrintString(" "); //ËæìÂÖ•ÂâçÊ∏ÖÂ±è
 244              		.loc 1 62 0
 245 0050 0020     		mov	r0, #0
 246 0052 0021     		mov	r1, #0
 247 0054 FFF7FEFF 		bl	LCD_Char_1_Position
 248              	.LVL30:
  63:.\main.c      ****         LCD_Char_1_Position(0,0);
 249              		.loc 1 63 0
 250 0058 6E48     		ldr	r0, .L18+16
 251 005a FFF7FEFF 		bl	LCD_Char_1_PrintString
 252              	.LVL31:
  64:.\main.c      ****         sprintf(outputStr, "%d ",ADCresult1); //ÊòæÁ§∫ËΩ¨ÁöÑËßíÂ∫¶
 253              		.loc 1 64 0
 254 005e 0020     		mov	r0, #0
 255 0060 0021     		mov	r1, #0
 256 0062 FFF7FEFF 		bl	LCD_Char_1_Position
 257              	.LVL32:
  65:.\main.c      ****         LCD_Char_1_PrintString(outputStr);
 258              		.loc 1 65 0
 259 0066 6C4C     		ldr	r4, .L18+20
 260 0068 2A88     		ldrh	r2, [r5]
 261 006a 201C     		mov	r0, r4
 262 006c 6B49     		ldr	r1, .L18+24
 263 006e FFF7FEFF 		bl	sprintf
 264              	.LVL33:
  66:.\main.c      ****         LCD_Char_1_Position(1,0);
 265              		.loc 1 66 0
 266 0072 201C     		mov	r0, r4
 267 0074 FFF7FEFF 		bl	LCD_Char_1_PrintString
 268              	.LVL34:
  67:.\main.c      ****         LCD_Char_1_PrintString(" "); //ËæìÂÖ•ÂâçÊ∏ÖÂ±è
 269              		.loc 1 67 0
 270 0078 0120     		mov	r0, #1
 271 007a 0021     		mov	r1, #0
 272 007c FFF7FEFF 		bl	LCD_Char_1_Position
 273              	.LVL35:
  68:.\main.c      ****         LCD_Char_1_Position(1,0);
 274              		.loc 1 68 0
 275 0080 6448     		ldr	r0, .L18+16
 276 0082 FFF7FEFF 		bl	LCD_Char_1_PrintString
 277              	.LVL36:
  69:.\main.c      ****         sprintf(outputStr, "%d ",ADCresult2); //ÊòæÁ§∫ËΩ¨ÁöÑËßíÂ∫¶
 278              		.loc 1 69 0
 279 0086 0120     		mov	r0, #1
ARM GAS  C:\Users\Nick\AppData\Local\Temp\cctP0FUS.s 			page 10


 280 0088 0021     		mov	r1, #0
 281 008a FFF7FEFF 		bl	LCD_Char_1_Position
 282              	.LVL37:
  70:.\main.c      ****         LCD_Char_1_PrintString(outputStr);
 283              		.loc 1 70 0
 284 008e 3A88     		ldrh	r2, [r7]
 285 0090 201C     		mov	r0, r4
 286 0092 6249     		ldr	r1, .L18+24
 287 0094 FFF7FEFF 		bl	sprintf
 288              	.LVL38:
  71:.\main.c      ****         LCD_Char_1_Position(1,7);
 289              		.loc 1 71 0
 290 0098 201C     		mov	r0, r4
 291 009a FFF7FEFF 		bl	LCD_Char_1_PrintString
 292              	.LVL39:
  72:.\main.c      ****         LCD_Char_1_PrintString(" "); //ËæìÂÖ•ÂâçÊ∏ÖÂ±è
 293              		.loc 1 72 0
 294 009e 0120     		mov	r0, #1
 295 00a0 0721     		mov	r1, #7
 296 00a2 FFF7FEFF 		bl	LCD_Char_1_Position
 297              	.LVL40:
  73:.\main.c      ****         LCD_Char_1_Position(1,7);
 298              		.loc 1 73 0
 299 00a6 5B48     		ldr	r0, .L18+16
 300 00a8 FFF7FEFF 		bl	LCD_Char_1_PrintString
 301              	.LVL41:
  74:.\main.c      ****         sprintf(outputStr, "%d ",ADCresult3); //ÊòæÁ§∫ËΩ¨ÁöÑËßíÂ∫¶
 302              		.loc 1 74 0
 303 00ac 0120     		mov	r0, #1
 304 00ae 0721     		mov	r1, #7
 305 00b0 FFF7FEFF 		bl	LCD_Char_1_Position
 306              	.LVL42:
  75:.\main.c      ****         LCD_Char_1_PrintString(outputStr);
 307              		.loc 1 75 0
 308 00b4 3288     		ldrh	r2, [r6]
 309 00b6 201C     		mov	r0, r4
 310 00b8 5849     		ldr	r1, .L18+24
 311 00ba FFF7FEFF 		bl	sprintf
 312              	.LVL43:
  76:.\main.c      ****         //CyDelay(1000);
 313              		.loc 1 76 0
 314 00be 201C     		mov	r0, r4
 315 00c0 FFF7FEFF 		bl	LCD_Char_1_PrintString
 316              	.LVL44:
 148:.\main.c      ****         {
 317              		.loc 1 148 0
 318 00c4 2A88     		ldrh	r2, [r5]
 319 00c6 564B     		ldr	r3, .L18+28
 320 00c8 9A42     		cmp	r2, r3
 321 00ca 1CDC     		bgt	.L12
 148:.\main.c      ****         {
 322              		.loc 1 148 0 is_stmt 0 discriminator 1
 323 00cc 4F4B     		ldr	r3, .L18+8
 324 00ce 1A88     		ldrh	r2, [r3]
 325 00d0 534B     		ldr	r3, .L18+28
 326 00d2 9A42     		cmp	r2, r3
 327 00d4 17DC     		bgt	.L12
ARM GAS  C:\Users\Nick\AppData\Local\Temp\cctP0FUS.s 			page 11


 148:.\main.c      ****         {
 328              		.loc 1 148 0 discriminator 2
 329 00d6 4E4B     		ldr	r3, .L18+12
 330 00d8 1A88     		ldrh	r2, [r3]
 331 00da 514B     		ldr	r3, .L18+28
 332 00dc 9A42     		cmp	r2, r3
 333 00de 12DC     		bgt	.L12
 150:.\main.c      ****             Servo_PWM_2(5070);  //4950
 334              		.loc 1 150 0 is_stmt 1
 335 00e0 5048     		ldr	r0, .L18+32
 336 00e2 FFF7FEFF 		bl	Servo_PWM_1
 337              	.LVL45:
 151:.\main.c      ****             LCD_Char_1_PrintString("      ");
 338              		.loc 1 151 0
 339 00e6 5048     		ldr	r0, .L18+36
 340 00e8 FFF7FEFF 		bl	Servo_PWM_2
 341              	.LVL46:
 152:.\main.c      ****             LCD_Char_1_Position(1,13);
 342              		.loc 1 152 0
 343 00ec 4F48     		ldr	r0, .L18+40
 344 00ee FFF7FEFF 		bl	LCD_Char_1_PrintString
 345              	.LVL47:
 153:.\main.c      ****             LCD_Char_1_PrintString("1");
 346              		.loc 1 153 0
 347 00f2 0120     		mov	r0, #1
 348 00f4 0D21     		mov	r1, #13
 349 00f6 FFF7FEFF 		bl	LCD_Char_1_Position
 350              	.LVL48:
 154:.\main.c      ****             CyDelay(50);
 351              		.loc 1 154 0
 352 00fa 4D48     		ldr	r0, .L18+44
 353 00fc FFF7FEFF 		bl	LCD_Char_1_PrintString
 354              	.LVL49:
 155:.\main.c      ****         }
 355              		.loc 1 155 0
 356 0100 3220     		mov	r0, #50
 357 0102 FFF7FEFF 		bl	CyDelay
 358              	.LVL50:
 359              	.L12:
 158:.\main.c      ****              ((ADCresult1>th)&&(ADCresult2>th)&&(ADCresult3<ADCresult2 + 300 && ADCresult3 < th- 10
 360              		.loc 1 158 0
 361 0106 404B     		ldr	r3, .L18+4
 362 0108 1B88     		ldrh	r3, [r3]
 363 010a 4A4A     		ldr	r2, .L18+48
 364 010c 9342     		cmp	r3, r2
 365 010e 24DD     		ble	.L13
 158:.\main.c      ****              ((ADCresult1>th)&&(ADCresult2>th)&&(ADCresult3<ADCresult2 + 300 && ADCresult3 < th- 10
 366              		.loc 1 158 0 is_stmt 0 discriminator 1
 367 0110 3E4A     		ldr	r2, .L18+8
 368 0112 1288     		ldrh	r2, [r2]
 369 0114 4249     		ldr	r1, .L18+28
 370 0116 8A42     		cmp	r2, r1
 371 0118 02DD     		ble	.L14
 158:.\main.c      ****              ((ADCresult1>th)&&(ADCresult2>th)&&(ADCresult3<ADCresult2 + 300 && ADCresult3 < th- 10
 372              		.loc 1 158 0 discriminator 3
 373 011a 4649     		ldr	r1, .L18+48
 374 011c 8A42     		cmp	r2, r1
ARM GAS  C:\Users\Nick\AppData\Local\Temp\cctP0FUS.s 			page 12


 375 011e 1CDD     		ble	.L13
 376              	.L14:
 158:.\main.c      ****              ((ADCresult1>th)&&(ADCresult2>th)&&(ADCresult3<ADCresult2 + 300 && ADCresult3 < th- 10
 377              		.loc 1 158 0 discriminator 4
 378 0120 3B49     		ldr	r1, .L18+12
 379 0122 0988     		ldrh	r1, [r1]
 380 0124 2D32     		add	r2, r2, #45
 381 0126 FF32     		add	r2, r2, #255
 382 0128 9142     		cmp	r1, r2
 383 012a 16DA     		bge	.L13
 158:.\main.c      ****              ((ADCresult1>th)&&(ADCresult2>th)&&(ADCresult3<ADCresult2 + 300 && ADCresult3 < th- 10
 384              		.loc 1 158 0 discriminator 5
 385 012c 424A     		ldr	r2, .L18+52
 386 012e 9142     		cmp	r1, r2
 387 0130 13DC     		bgt	.L13
 161:.\main.c      ****             Servo_PWM_2(4500);
 388              		.loc 1 161 0 is_stmt 1
 389 0132 4248     		ldr	r0, .L18+56
 390 0134 FFF7FEFF 		bl	Servo_PWM_1
 391              	.LVL51:
 162:.\main.c      ****             LCD_Char_1_PrintString(" "); //ËæìÂÖ•ÂâçÊ∏ÖÂ±è
 392              		.loc 1 162 0
 393 0138 4148     		ldr	r0, .L18+60
 394 013a FFF7FEFF 		bl	Servo_PWM_2
 395              	.LVL52:
 163:.\main.c      ****             LCD_Char_1_Position(1,13);
 396              		.loc 1 163 0
 397 013e 3548     		ldr	r0, .L18+16
 398 0140 FFF7FEFF 		bl	LCD_Char_1_PrintString
 399              	.LVL53:
 164:.\main.c      ****             LCD_Char_1_PrintString("2");
 400              		.loc 1 164 0
 401 0144 0120     		mov	r0, #1
 402 0146 0D21     		mov	r1, #13
 403 0148 FFF7FEFF 		bl	LCD_Char_1_Position
 404              	.LVL54:
 165:.\main.c      ****             CyDelay(20);
 405              		.loc 1 165 0
 406 014c 3D48     		ldr	r0, .L18+64
 407 014e FFF7FEFF 		bl	LCD_Char_1_PrintString
 408              	.LVL55:
 166:.\main.c      ****          }
 409              		.loc 1 166 0
 410 0152 1420     		mov	r0, #20
 411 0154 FFF7FEFF 		bl	CyDelay
 412              	.LVL56:
 413 0158 20E0     		b	.L15
 414              	.L13:
 169:.\main.c      ****         { //&&&&(ADCresult3>th+100))||((ADCresult1<th+ 200)&&(ADCresult2>th-200)&&(ADCresult3>th+10
 415              		.loc 1 169 0
 416 015a 3B4A     		ldr	r2, .L18+68
 417 015c 9342     		cmp	r3, r2
 418 015e 1DDC     		bgt	.L15
 169:.\main.c      ****         { //&&&&(ADCresult3>th+100))||((ADCresult1<th+ 200)&&(ADCresult2>th-200)&&(ADCresult3>th+10
 419              		.loc 1 169 0 is_stmt 0 discriminator 1
 420 0160 2A4B     		ldr	r3, .L18+8
 421 0162 1A88     		ldrh	r2, [r3]
ARM GAS  C:\Users\Nick\AppData\Local\Temp\cctP0FUS.s 			page 13


 422 0164 394B     		ldr	r3, .L18+72
 423 0166 9A42     		cmp	r2, r3
 424 0168 18DD     		ble	.L15
 169:.\main.c      ****         { //&&&&(ADCresult3>th+100))||((ADCresult1<th+ 200)&&(ADCresult2>th-200)&&(ADCresult3>th+10
 425              		.loc 1 169 0 discriminator 2
 426 016a 294B     		ldr	r3, .L18+12
 427 016c 1A88     		ldrh	r2, [r3]
 428 016e FA23     		mov	r3, #250
 429 0170 9B00     		lsl	r3, r3, #2
 430 0172 9A42     		cmp	r2, r3
 431 0174 12DD     		ble	.L15
 171:.\main.c      ****             Servo_PWM_2(5830); //t5800
 432              		.loc 1 171 0 is_stmt 1
 433 0176 3648     		ldr	r0, .L18+76
 434 0178 FFF7FEFF 		bl	Servo_PWM_1
 435              	.LVL57:
 172:.\main.c      ****             LCD_Char_1_PrintString(" "); //ËæìÂÖ•ÂâçÊ∏ÖÂ±è
 436              		.loc 1 172 0
 437 017c 3548     		ldr	r0, .L18+80
 438 017e FFF7FEFF 		bl	Servo_PWM_2
 439              	.LVL58:
 173:.\main.c      ****             LCD_Char_1_Position(1,13);
 440              		.loc 1 173 0
 441 0182 2448     		ldr	r0, .L18+16
 442 0184 FFF7FEFF 		bl	LCD_Char_1_PrintString
 443              	.LVL59:
 174:.\main.c      ****             LCD_Char_1_PrintString("3");
 444              		.loc 1 174 0
 445 0188 0120     		mov	r0, #1
 446 018a 0D21     		mov	r1, #13
 447 018c FFF7FEFF 		bl	LCD_Char_1_Position
 448              	.LVL60:
 175:.\main.c      ****             CyDelay(20);
 449              		.loc 1 175 0
 450 0190 3148     		ldr	r0, .L18+84
 451 0192 FFF7FEFF 		bl	LCD_Char_1_PrintString
 452              	.LVL61:
 176:.\main.c      ****         }
 453              		.loc 1 176 0
 454 0196 1420     		mov	r0, #20
 455 0198 FFF7FEFF 		bl	CyDelay
 456              	.LVL62:
 457              	.L15:
 179:.\main.c      ****         { //ÂÖ®ÁôΩÔºåÂêéÈÄÄ
 458              		.loc 1 179 0
 459 019c 1A4B     		ldr	r3, .L18+4
 460 019e 1A88     		ldrh	r2, [r3]
 461 01a0 244B     		ldr	r3, .L18+48
 462 01a2 9A42     		cmp	r2, r3
 463 01a4 1DDD     		ble	.L16
 179:.\main.c      ****         { //ÂÖ®ÁôΩÔºåÂêéÈÄÄ
 464              		.loc 1 179 0 is_stmt 0 discriminator 1
 465 01a6 194B     		ldr	r3, .L18+8
 466 01a8 1A88     		ldrh	r2, [r3]
 467 01aa 224B     		ldr	r3, .L18+48
 468 01ac 9A42     		cmp	r2, r3
 469 01ae 18DD     		ble	.L16
ARM GAS  C:\Users\Nick\AppData\Local\Temp\cctP0FUS.s 			page 14


 179:.\main.c      ****         { //ÂÖ®ÁôΩÔºåÂêéÈÄÄ
 470              		.loc 1 179 0 discriminator 2
 471 01b0 174B     		ldr	r3, .L18+12
 472 01b2 1A88     		ldrh	r2, [r3]
 473 01b4 1F4B     		ldr	r3, .L18+48
 474 01b6 9A42     		cmp	r2, r3
 475 01b8 13DD     		ble	.L16
 181:.\main.c      ****             Servo_PWM_2(4300);
 476              		.loc 1 181 0 is_stmt 1
 477 01ba 2848     		ldr	r0, .L18+88
 478 01bc FFF7FEFF 		bl	Servo_PWM_1
 479              	.LVL63:
 182:.\main.c      ****             LCD_Char_1_PrintString(" "); //ËæìÂÖ•ÂâçÊ∏ÖÂ±è
 480              		.loc 1 182 0
 481 01c0 2348     		ldr	r0, .L18+76
 482 01c2 FFF7FEFF 		bl	Servo_PWM_2
 483              	.LVL64:
 183:.\main.c      ****             LCD_Char_1_Position(1,13);
 484              		.loc 1 183 0
 485 01c6 1348     		ldr	r0, .L18+16
 486 01c8 FFF7FEFF 		bl	LCD_Char_1_PrintString
 487              	.LVL65:
 184:.\main.c      ****             LCD_Char_1_PrintString("4");
 488              		.loc 1 184 0
 489 01cc 0120     		mov	r0, #1
 490 01ce 0D21     		mov	r1, #13
 491 01d0 FFF7FEFF 		bl	LCD_Char_1_Position
 492              	.LVL66:
 185:.\main.c      ****              CyDelay(20);
 493              		.loc 1 185 0
 494 01d4 2248     		ldr	r0, .L18+92
 495 01d6 FFF7FEFF 		bl	LCD_Char_1_PrintString
 496              	.LVL67:
 186:.\main.c      ****          }
 497              		.loc 1 186 0
 498 01da 1420     		mov	r0, #20
 499 01dc FFF7FEFF 		bl	CyDelay
 500              	.LVL68:
 501 01e0 24E7     		b	.L11
 502              	.L16:
 189:.\main.c      ****              Servo_PWM_2(5070);
 503              		.loc 1 189 0
 504 01e2 1048     		ldr	r0, .L18+32
 505 01e4 FFF7FEFF 		bl	Servo_PWM_1
 506              	.LVL69:
 190:.\main.c      ****             LCD_Char_1_PrintString(" "); //ËæìÂÖ•ÂâçÊ∏ÖÂ±è
 507              		.loc 1 190 0
 508 01e8 0F48     		ldr	r0, .L18+36
 509 01ea FFF7FEFF 		bl	Servo_PWM_2
 510              	.LVL70:
 191:.\main.c      ****             LCD_Char_1_Position(1,13);
 511              		.loc 1 191 0
 512 01ee 0948     		ldr	r0, .L18+16
 513 01f0 FFF7FEFF 		bl	LCD_Char_1_PrintString
 514              	.LVL71:
 192:.\main.c      ****             LCD_Char_1_PrintString("5");
 515              		.loc 1 192 0
ARM GAS  C:\Users\Nick\AppData\Local\Temp\cctP0FUS.s 			page 15


 516 01f4 0120     		mov	r0, #1
 517 01f6 0D21     		mov	r1, #13
 518 01f8 FFF7FEFF 		bl	LCD_Char_1_Position
 519              	.LVL72:
 193:.\main.c      ****           }
 520              		.loc 1 193 0
 521 01fc 1948     		ldr	r0, .L18+96
 522 01fe FFF7FEFF 		bl	LCD_Char_1_PrintString
 523              	.LVL73:
 524 0202 13E7     		b	.L11
 525              	.L19:
 526              		.align	2
 527              	.L18:
 528 0204 00000000 		.word	LCD_Char_1_customFonts
 529 0208 00000000 		.word	ADCresult1
 530 020c 00000000 		.word	ADCresult2
 531 0210 00000000 		.word	ADCresult3
 532 0214 04000000 		.word	.LC10
 533 0218 00000000 		.word	outputStr
 534 021c 08000000 		.word	.LC13
 535 0220 19040000 		.word	1049
 536 0224 18100000 		.word	4120
 537 0228 CE130000 		.word	5070
 538 022c 0C000000 		.word	.LC15
 539 0230 14000000 		.word	.LC17
 540 0234 1A040000 		.word	1050
 541 0238 B5030000 		.word	949
 542 023c 3C0F0000 		.word	3900
 543 0240 94110000 		.word	4500
 544 0244 18000000 		.word	.LC19
 545 0248 AF040000 		.word	1199
 546 024c 26020000 		.word	550
 547 0250 CC100000 		.word	4300
 548 0254 C6160000 		.word	5830
 549 0258 1C000000 		.word	.LC21
 550 025c 88130000 		.word	5000
 551 0260 20000000 		.word	.LC23
 552 0264 24000000 		.word	.LC25
 553              	.LBE2:
 554              		.cfi_endproc
 555              	.LFE34:
 556              		.size	main, .-main
 557              		.comm	outputStr1,50,4
 558              		.comm	ADCresult3,2,2
 559              		.comm	ADCresult2,2,2
 560              		.comm	ADCresult1,2,2
 561              		.global	PWM_2
 562              		.global	PWM_1
 563              		.comm	Rotate_Dir,20,4
 564              		.comm	outputStr,30,4
 565              		.comm	tmp,20,4
 566              		.global	Angle
 567              		.global	angle
 568              		.data
 569              		.align	2
 570              		.set	.LANCHOR0,. + 0
 571              		.type	PWM_1, %object
ARM GAS  C:\Users\Nick\AppData\Local\Temp\cctP0FUS.s 			page 16


 572              		.size	PWM_1, 4
 573              	PWM_1:
 574 0000 CC100000 		.word	4300
 575              		.type	angle, %object
 576              		.size	angle, 4
 577              	angle:
 578 0004 0000B4C2 		.word	-1028390912
 579              		.type	PWM_2, %object
 580              		.size	PWM_2, 4
 581              	PWM_2:
 582 0008 56130000 		.word	4950
 583              		.section	.rodata.str1.4,"aMS",%progbits,1
 584              		.align	2
 585              	.LC0:
 586 0000 256400   		.ascii	"%d\000"
 587 0003 00       		.space	1
 588              	.LC10:
 589 0004 2000     		.ascii	" \000"
 590 0006 0000     		.space	2
 591              	.LC13:
 592 0008 25642000 		.ascii	"%d \000"
 593              	.LC15:
 594 000c 20202020 		.ascii	"      \000"
 594      202000
 595 0013 00       		.space	1
 596              	.LC17:
 597 0014 3100     		.ascii	"1\000"
 598 0016 0000     		.space	2
 599              	.LC19:
 600 0018 3200     		.ascii	"2\000"
 601 001a 0000     		.space	2
 602              	.LC21:
 603 001c 3300     		.ascii	"3\000"
 604 001e 0000     		.space	2
 605              	.LC23:
 606 0020 3400     		.ascii	"4\000"
 607 0022 0000     		.space	2
 608              	.LC25:
 609 0024 3500     		.ascii	"5\000"
 610 0026 0000     		.bss
 611              		.align	2
 612              		.set	.LANCHOR1,. + 0
 613              		.type	Angle, %object
 614              		.size	Angle, 4
 615              	Angle:
 616 0000 00000000 		.space	4
 617              		.text
 618              	.Letext0:
 619              		.file 2 "Generated_Source\\PSoC4/cytypes.h"
 620              		.file 3 "Generated_Source\\PSoC4/PWM_1.h"
 621              		.file 4 "Generated_Source\\PSoC4/PWM_2.h"
 622              		.file 5 "c:\\program files (x86)\\cypress\\psoc creator\\3.3\\psoc creator\\import\\gnu\\arm\\4.9.
 623              		.file 6 "Generated_Source\\PSoC4/ADC_SAR_Seq_1.h"
 624              		.file 7 "Generated_Source\\PSoC4/LCD_Char_1.h"
 625              		.file 8 "Generated_Source\\PSoC4/CyLib.h"
 626              		.file 9 "Generated_Source\\PSoC4/Clock_1.h"
 627              		.file 10 "Generated_Source\\PSoC4/Clock_2.h"
ARM GAS  C:\Users\Nick\AppData\Local\Temp\cctP0FUS.s 			page 17

