ARM GAS  C:\Users\ÑÏÍþºÀ\AppData\Local\Temp\ccgCcFYV.s 			page 1


   1              		.cpu cortex-m0
   2              		.fpu softvfp
   3              		.eabi_attribute 20, 1
   4              		.eabi_attribute 21, 1
   5              		.eabi_attribute 23, 3
   6              		.eabi_attribute 24, 1
   7              		.eabi_attribute 25, 1
   8              		.eabi_attribute 26, 1
   9              		.eabi_attribute 30, 1
  10              		.eabi_attribute 34, 0
  11              		.eabi_attribute 18, 4
  12              		.code	16
  13              		.file	"ADC_SAR_Seq.c"
  14              		.text
  15              	.Ltext0:
  16              		.cfi_sections	.debug_frame
  17              		.section	.text.ADC_SAR_Seq_Init,"ax",%progbits
  18              		.align	2
  19              		.global	ADC_SAR_Seq_Init
  20              		.code	16
  21              		.thumb_func
  22              		.type	ADC_SAR_Seq_Init, %function
  23              	ADC_SAR_Seq_Init:
  24              	.LFB1:
  25              		.file 1 ".\\Generated_Source\\PSoC4\\ADC_SAR_Seq.c"
   1:.\Generated_Source\PSoC4/ADC_SAR_Seq.c **** /*******************************************************************************
   2:.\Generated_Source\PSoC4/ADC_SAR_Seq.c **** * File Name: ADC_SAR_Seq.c
   3:.\Generated_Source\PSoC4/ADC_SAR_Seq.c **** * Version 2.20
   4:.\Generated_Source\PSoC4/ADC_SAR_Seq.c **** *
   5:.\Generated_Source\PSoC4/ADC_SAR_Seq.c **** * Description:
   6:.\Generated_Source\PSoC4/ADC_SAR_Seq.c **** *  This file provides the source code to the API for the Sequencing Successive
   7:.\Generated_Source\PSoC4/ADC_SAR_Seq.c **** *  Approximation ADC Component Component.
   8:.\Generated_Source\PSoC4/ADC_SAR_Seq.c **** *
   9:.\Generated_Source\PSoC4/ADC_SAR_Seq.c **** * Note:
  10:.\Generated_Source\PSoC4/ADC_SAR_Seq.c **** *
  11:.\Generated_Source\PSoC4/ADC_SAR_Seq.c **** ********************************************************************************
  12:.\Generated_Source\PSoC4/ADC_SAR_Seq.c **** * Copyright 2008-2015, Cypress Semiconductor Corporation.  All rights reserved.
  13:.\Generated_Source\PSoC4/ADC_SAR_Seq.c **** * You may use this file only in accordance with the license, terms, conditions,
  14:.\Generated_Source\PSoC4/ADC_SAR_Seq.c **** * disclaimers, and limitations in the end user license agreement accompanying
  15:.\Generated_Source\PSoC4/ADC_SAR_Seq.c **** * the software package with which this file was provided.
  16:.\Generated_Source\PSoC4/ADC_SAR_Seq.c **** *******************************************************************************/
  17:.\Generated_Source\PSoC4/ADC_SAR_Seq.c **** 
  18:.\Generated_Source\PSoC4/ADC_SAR_Seq.c **** #include "ADC_SAR_Seq.h"
  19:.\Generated_Source\PSoC4/ADC_SAR_Seq.c **** 
  20:.\Generated_Source\PSoC4/ADC_SAR_Seq.c **** 
  21:.\Generated_Source\PSoC4/ADC_SAR_Seq.c **** /***************************************
  22:.\Generated_Source\PSoC4/ADC_SAR_Seq.c **** * Global data allocation
  23:.\Generated_Source\PSoC4/ADC_SAR_Seq.c **** ***************************************/
  24:.\Generated_Source\PSoC4/ADC_SAR_Seq.c **** uint8 ADC_SAR_Seq_initVar = 0u;
  25:.\Generated_Source\PSoC4/ADC_SAR_Seq.c **** volatile int16 ADC_SAR_Seq_offset[ADC_SAR_Seq_TOTAL_CHANNELS_NUM];
  26:.\Generated_Source\PSoC4/ADC_SAR_Seq.c **** volatile int32 ADC_SAR_Seq_countsPer10Volt[ADC_SAR_Seq_TOTAL_CHANNELS_NUM];   /* Gain compensation 
  27:.\Generated_Source\PSoC4/ADC_SAR_Seq.c **** 
  28:.\Generated_Source\PSoC4/ADC_SAR_Seq.c **** 
  29:.\Generated_Source\PSoC4/ADC_SAR_Seq.c **** /***************************************
  30:.\Generated_Source\PSoC4/ADC_SAR_Seq.c **** * Local data allocation
  31:.\Generated_Source\PSoC4/ADC_SAR_Seq.c **** ***************************************/
  32:.\Generated_Source\PSoC4/ADC_SAR_Seq.c **** /* Channels configuration generated by customiser */
ARM GAS  C:\Users\ÑÏÍþºÀ\AppData\Local\Temp\ccgCcFYV.s 			page 2


  33:.\Generated_Source\PSoC4/ADC_SAR_Seq.c **** static const uint32 CYCODE ADC_SAR_Seq_channelsConfig[] = { 0x00000402u };
  34:.\Generated_Source\PSoC4/ADC_SAR_Seq.c **** 
  35:.\Generated_Source\PSoC4/ADC_SAR_Seq.c **** 
  36:.\Generated_Source\PSoC4/ADC_SAR_Seq.c **** /*******************************************************************************
  37:.\Generated_Source\PSoC4/ADC_SAR_Seq.c **** * Function Name: ADC_SAR_Seq_Start
  38:.\Generated_Source\PSoC4/ADC_SAR_Seq.c **** ********************************************************************************
  39:.\Generated_Source\PSoC4/ADC_SAR_Seq.c **** *
  40:.\Generated_Source\PSoC4/ADC_SAR_Seq.c **** * Summary:
  41:.\Generated_Source\PSoC4/ADC_SAR_Seq.c **** *  Performs all required initialization for this component
  42:.\Generated_Source\PSoC4/ADC_SAR_Seq.c **** *  and enables the power. The power will be set to the appropriate
  43:.\Generated_Source\PSoC4/ADC_SAR_Seq.c **** *  power based on the clock frequency.
  44:.\Generated_Source\PSoC4/ADC_SAR_Seq.c **** *
  45:.\Generated_Source\PSoC4/ADC_SAR_Seq.c **** * Parameters:
  46:.\Generated_Source\PSoC4/ADC_SAR_Seq.c **** *  None.
  47:.\Generated_Source\PSoC4/ADC_SAR_Seq.c **** *
  48:.\Generated_Source\PSoC4/ADC_SAR_Seq.c **** * Return:
  49:.\Generated_Source\PSoC4/ADC_SAR_Seq.c **** *  None.
  50:.\Generated_Source\PSoC4/ADC_SAR_Seq.c **** *
  51:.\Generated_Source\PSoC4/ADC_SAR_Seq.c **** * Global variables:
  52:.\Generated_Source\PSoC4/ADC_SAR_Seq.c **** *  The ADC_SAR_Seq_initVar variable is used to indicate when/if initial
  53:.\Generated_Source\PSoC4/ADC_SAR_Seq.c **** *  configuration of this component has happened. The variable is initialized to
  54:.\Generated_Source\PSoC4/ADC_SAR_Seq.c **** *  zero and set to 1 the first time ADC_Start() is called. This allows for
  55:.\Generated_Source\PSoC4/ADC_SAR_Seq.c **** *  component Re-Start without re-initialization in all subsequent calls to the
  56:.\Generated_Source\PSoC4/ADC_SAR_Seq.c **** *  ADC_SAR_Seq_Start() routine.
  57:.\Generated_Source\PSoC4/ADC_SAR_Seq.c **** *  If re-initialization of the component is required the variable should be set
  58:.\Generated_Source\PSoC4/ADC_SAR_Seq.c **** *  to zero before call of ADC_SAR_Seq_Start() routine, or the user may call
  59:.\Generated_Source\PSoC4/ADC_SAR_Seq.c **** *  ADC_SAR_Seq_Init() and ADC_SAR_Seq_Enable() as done in the
  60:.\Generated_Source\PSoC4/ADC_SAR_Seq.c **** *  ADC_SAR_Seq_Start() routine.
  61:.\Generated_Source\PSoC4/ADC_SAR_Seq.c **** *
  62:.\Generated_Source\PSoC4/ADC_SAR_Seq.c **** *******************************************************************************/
  63:.\Generated_Source\PSoC4/ADC_SAR_Seq.c **** void ADC_SAR_Seq_Start(void)
  64:.\Generated_Source\PSoC4/ADC_SAR_Seq.c **** {
  65:.\Generated_Source\PSoC4/ADC_SAR_Seq.c ****     /* If not Initialized then initialize all required hardware and software */
  66:.\Generated_Source\PSoC4/ADC_SAR_Seq.c ****     if(ADC_SAR_Seq_initVar == 0u)
  67:.\Generated_Source\PSoC4/ADC_SAR_Seq.c ****     {
  68:.\Generated_Source\PSoC4/ADC_SAR_Seq.c ****         ADC_SAR_Seq_Init();
  69:.\Generated_Source\PSoC4/ADC_SAR_Seq.c ****         ADC_SAR_Seq_initVar = 1u;
  70:.\Generated_Source\PSoC4/ADC_SAR_Seq.c ****     }
  71:.\Generated_Source\PSoC4/ADC_SAR_Seq.c ****     ADC_SAR_Seq_Enable();
  72:.\Generated_Source\PSoC4/ADC_SAR_Seq.c **** }
  73:.\Generated_Source\PSoC4/ADC_SAR_Seq.c **** 
  74:.\Generated_Source\PSoC4/ADC_SAR_Seq.c **** 
  75:.\Generated_Source\PSoC4/ADC_SAR_Seq.c **** /*******************************************************************************
  76:.\Generated_Source\PSoC4/ADC_SAR_Seq.c **** * Function Name: ADC_SAR_Seq_Init
  77:.\Generated_Source\PSoC4/ADC_SAR_Seq.c **** ********************************************************************************
  78:.\Generated_Source\PSoC4/ADC_SAR_Seq.c **** *
  79:.\Generated_Source\PSoC4/ADC_SAR_Seq.c **** * Summary:
  80:.\Generated_Source\PSoC4/ADC_SAR_Seq.c **** *  Initialize component's parameters to the parameters set by user in the
  81:.\Generated_Source\PSoC4/ADC_SAR_Seq.c **** *  customizer of the component placed onto schematic. Usually called in
  82:.\Generated_Source\PSoC4/ADC_SAR_Seq.c **** *  ADC_SAR_Seq_Start().
  83:.\Generated_Source\PSoC4/ADC_SAR_Seq.c **** *
  84:.\Generated_Source\PSoC4/ADC_SAR_Seq.c **** * Parameters:
  85:.\Generated_Source\PSoC4/ADC_SAR_Seq.c **** *  None.
  86:.\Generated_Source\PSoC4/ADC_SAR_Seq.c **** *
  87:.\Generated_Source\PSoC4/ADC_SAR_Seq.c **** * Return:
  88:.\Generated_Source\PSoC4/ADC_SAR_Seq.c **** *  None.
  89:.\Generated_Source\PSoC4/ADC_SAR_Seq.c **** *
ARM GAS  C:\Users\ÑÏÍþºÀ\AppData\Local\Temp\ccgCcFYV.s 			page 3


  90:.\Generated_Source\PSoC4/ADC_SAR_Seq.c **** * Global variables:
  91:.\Generated_Source\PSoC4/ADC_SAR_Seq.c **** *  The ADC_SAR_Seq_offset variable is initialized.
  92:.\Generated_Source\PSoC4/ADC_SAR_Seq.c **** *
  93:.\Generated_Source\PSoC4/ADC_SAR_Seq.c **** *******************************************************************************/
  94:.\Generated_Source\PSoC4/ADC_SAR_Seq.c **** void ADC_SAR_Seq_Init(void)
  95:.\Generated_Source\PSoC4/ADC_SAR_Seq.c **** {
  26              		.loc 1 95 0
  27              		.cfi_startproc
  28 0000 10B5     		push	{r4, lr}
  29              		.cfi_def_cfa_offset 8
  30              		.cfi_offset 4, -8
  31              		.cfi_offset 14, -4
  96:.\Generated_Source\PSoC4/ADC_SAR_Seq.c ****     uint32 chNum;
  97:.\Generated_Source\PSoC4/ADC_SAR_Seq.c ****     uint32 tmpRegVal;
  98:.\Generated_Source\PSoC4/ADC_SAR_Seq.c ****     int32 counts;
  99:.\Generated_Source\PSoC4/ADC_SAR_Seq.c **** 
 100:.\Generated_Source\PSoC4/ADC_SAR_Seq.c ****     #if(ADC_SAR_Seq_TOTAL_CHANNELS_NUM > 1u)
 101:.\Generated_Source\PSoC4/ADC_SAR_Seq.c ****         static const uint8 CYCODE ADC_SAR_Seq_InputsPlacement[] =
 102:.\Generated_Source\PSoC4/ADC_SAR_Seq.c ****         {
 103:.\Generated_Source\PSoC4/ADC_SAR_Seq.c ****             (uint8)(ADC_SAR_Seq_cy_psoc4_sarmux_8__CH_0_PORT << 4u) |
 104:.\Generated_Source\PSoC4/ADC_SAR_Seq.c ****             (uint8)ADC_SAR_Seq_cy_psoc4_sarmux_8__CH_0_PIN
 105:.\Generated_Source\PSoC4/ADC_SAR_Seq.c ****             ,(uint8)(ADC_SAR_Seq_cy_psoc4_sarmux_8__CH_1_PORT << 4u) |
 106:.\Generated_Source\PSoC4/ADC_SAR_Seq.c ****              (uint8)ADC_SAR_Seq_cy_psoc4_sarmux_8__CH_1_PIN
 107:.\Generated_Source\PSoC4/ADC_SAR_Seq.c ****             #if(ADC_SAR_Seq_TOTAL_CHANNELS_NUM > 2u)
 108:.\Generated_Source\PSoC4/ADC_SAR_Seq.c ****                 ,(uint8)(ADC_SAR_Seq_cy_psoc4_sarmux_8__CH_2_PORT << 4u) |
 109:.\Generated_Source\PSoC4/ADC_SAR_Seq.c ****                  (uint8)ADC_SAR_Seq_cy_psoc4_sarmux_8__CH_2_PIN
 110:.\Generated_Source\PSoC4/ADC_SAR_Seq.c ****             #endif /* End ADC_SAR_Seq_TOTAL_CHANNELS_NUM > 2u */
 111:.\Generated_Source\PSoC4/ADC_SAR_Seq.c ****             #if(ADC_SAR_Seq_TOTAL_CHANNELS_NUM > 3u)
 112:.\Generated_Source\PSoC4/ADC_SAR_Seq.c ****                 ,(uint8)(ADC_SAR_Seq_cy_psoc4_sarmux_8__CH_3_PORT << 4u) |
 113:.\Generated_Source\PSoC4/ADC_SAR_Seq.c ****                  (uint8)ADC_SAR_Seq_cy_psoc4_sarmux_8__CH_3_PIN
 114:.\Generated_Source\PSoC4/ADC_SAR_Seq.c ****             #endif /* End ADC_SAR_Seq_TOTAL_CHANNELS_NUM > 3u */
 115:.\Generated_Source\PSoC4/ADC_SAR_Seq.c ****             #if(ADC_SAR_Seq_TOTAL_CHANNELS_NUM > 4u)
 116:.\Generated_Source\PSoC4/ADC_SAR_Seq.c ****                 ,(uint8)(ADC_SAR_Seq_cy_psoc4_sarmux_8__CH_4_PORT << 4u) |
 117:.\Generated_Source\PSoC4/ADC_SAR_Seq.c ****                  (uint8)ADC_SAR_Seq_cy_psoc4_sarmux_8__CH_4_PIN
 118:.\Generated_Source\PSoC4/ADC_SAR_Seq.c ****             #endif /* End ADC_SAR_Seq_TOTAL_CHANNELS_NUM > 4u */
 119:.\Generated_Source\PSoC4/ADC_SAR_Seq.c ****             #if(ADC_SAR_Seq_TOTAL_CHANNELS_NUM > 5u)
 120:.\Generated_Source\PSoC4/ADC_SAR_Seq.c ****                 ,(uint8)(ADC_SAR_Seq_cy_psoc4_sarmux_8__CH_5_PORT << 4u) |
 121:.\Generated_Source\PSoC4/ADC_SAR_Seq.c ****                  (uint8)ADC_SAR_Seq_cy_psoc4_sarmux_8__CH_5_PIN
 122:.\Generated_Source\PSoC4/ADC_SAR_Seq.c ****             #endif /* End ADC_SAR_Seq_TOTAL_CHANNELS_NUM > 5u */
 123:.\Generated_Source\PSoC4/ADC_SAR_Seq.c ****             #if(ADC_SAR_Seq_TOTAL_CHANNELS_NUM > 6u)
 124:.\Generated_Source\PSoC4/ADC_SAR_Seq.c ****                 ,(uint8)(ADC_SAR_Seq_cy_psoc4_sarmux_8__CH_6_PORT << 4u) |
 125:.\Generated_Source\PSoC4/ADC_SAR_Seq.c ****                  (uint8)ADC_SAR_Seq_cy_psoc4_sarmux_8__CH_6_PIN
 126:.\Generated_Source\PSoC4/ADC_SAR_Seq.c ****             #endif /* End ADC_SAR_Seq_TOTAL_CHANNELS_NUM > 6u */
 127:.\Generated_Source\PSoC4/ADC_SAR_Seq.c ****             #if(ADC_SAR_Seq_TOTAL_CHANNELS_NUM > 7u)
 128:.\Generated_Source\PSoC4/ADC_SAR_Seq.c ****                 ,(uint8)(ADC_SAR_Seq_cy_psoc4_sarmux_8__CH_7_PORT << 4u) |
 129:.\Generated_Source\PSoC4/ADC_SAR_Seq.c ****                  (uint8)ADC_SAR_Seq_cy_psoc4_sarmux_8__CH_7_PIN
 130:.\Generated_Source\PSoC4/ADC_SAR_Seq.c ****             #endif /* End ADC_SAR_Seq_TOTAL_CHANNELS_NUM > 7u */
 131:.\Generated_Source\PSoC4/ADC_SAR_Seq.c ****             #if(ADC_SAR_Seq_TOTAL_CHANNELS_NUM > 8u)
 132:.\Generated_Source\PSoC4/ADC_SAR_Seq.c ****                 ,(uint8)(ADC_SAR_Seq_cy_psoc4_sarmux_8__CH_8_PORT << 4u) |
 133:.\Generated_Source\PSoC4/ADC_SAR_Seq.c ****                  (uint8)ADC_SAR_Seq_cy_psoc4_sarmux_8__CH_8_PIN
 134:.\Generated_Source\PSoC4/ADC_SAR_Seq.c ****             #endif /* End ADC_SAR_Seq_TOTAL_CHANNELS_NUM > 8u */
 135:.\Generated_Source\PSoC4/ADC_SAR_Seq.c ****             #if(ADC_SAR_Seq_TOTAL_CHANNELS_NUM > 9u)
 136:.\Generated_Source\PSoC4/ADC_SAR_Seq.c ****                 ,(uint8)(ADC_SAR_Seq_cy_psoc4_sarmux_8__CH_9_PORT << 4u) |
 137:.\Generated_Source\PSoC4/ADC_SAR_Seq.c ****                  (uint8)ADC_SAR_Seq_cy_psoc4_sarmux_8__CH_9_PIN
 138:.\Generated_Source\PSoC4/ADC_SAR_Seq.c ****             #endif /* End ADC_SAR_Seq_TOTAL_CHANNELS_NUM > 9u */
 139:.\Generated_Source\PSoC4/ADC_SAR_Seq.c ****             #if(ADC_SAR_Seq_TOTAL_CHANNELS_NUM > 10u)
 140:.\Generated_Source\PSoC4/ADC_SAR_Seq.c ****                 ,(uint8)(ADC_SAR_Seq_cy_psoc4_sarmux_8__CH_10_PORT << 4u) |
ARM GAS  C:\Users\ÑÏÍþºÀ\AppData\Local\Temp\ccgCcFYV.s 			page 4


 141:.\Generated_Source\PSoC4/ADC_SAR_Seq.c ****                  (uint8)ADC_SAR_Seq_cy_psoc4_sarmux_8__CH_10_PIN
 142:.\Generated_Source\PSoC4/ADC_SAR_Seq.c ****             #endif /* End ADC_SAR_Seq_TOTAL_CHANNELS_NUM > 10u */
 143:.\Generated_Source\PSoC4/ADC_SAR_Seq.c ****             #if(ADC_SAR_Seq_TOTAL_CHANNELS_NUM > 11u)
 144:.\Generated_Source\PSoC4/ADC_SAR_Seq.c ****                 ,(uint8)(ADC_SAR_Seq_cy_psoc4_sarmux_8__CH_11_PORT << 4u) |
 145:.\Generated_Source\PSoC4/ADC_SAR_Seq.c ****                  (uint8)ADC_SAR_Seq_cy_psoc4_sarmux_8__CH_11_PIN
 146:.\Generated_Source\PSoC4/ADC_SAR_Seq.c ****             #endif /* End ADC_SAR_Seq_TOTAL_CHANNELS_NUM > 11u */
 147:.\Generated_Source\PSoC4/ADC_SAR_Seq.c ****             #if(ADC_SAR_Seq_TOTAL_CHANNELS_NUM > 12u)
 148:.\Generated_Source\PSoC4/ADC_SAR_Seq.c ****                 ,(uint8)(ADC_SAR_Seq_cy_psoc4_sarmux_8__CH_12_PORT << 4u) |
 149:.\Generated_Source\PSoC4/ADC_SAR_Seq.c ****                  (uint8)ADC_SAR_Seq_cy_psoc4_sarmux_8__CH_12_PIN
 150:.\Generated_Source\PSoC4/ADC_SAR_Seq.c ****             #endif /* End ADC_SAR_Seq_TOTAL_CHANNELS_NUM > 12u */
 151:.\Generated_Source\PSoC4/ADC_SAR_Seq.c ****             #if(ADC_SAR_Seq_TOTAL_CHANNELS_NUM > 13u)
 152:.\Generated_Source\PSoC4/ADC_SAR_Seq.c ****                 ,(uint8)(ADC_SAR_Seq_cy_psoc4_sarmux_8__CH_13_PORT << 4u) |
 153:.\Generated_Source\PSoC4/ADC_SAR_Seq.c ****                  (uint8)ADC_SAR_Seq_cy_psoc4_sarmux_8__CH_13_PIN
 154:.\Generated_Source\PSoC4/ADC_SAR_Seq.c ****             #endif /* End ADC_SAR_Seq_TOTAL_CHANNELS_NUM > 13u */
 155:.\Generated_Source\PSoC4/ADC_SAR_Seq.c ****             #if(ADC_SAR_Seq_TOTAL_CHANNELS_NUM > 14u)
 156:.\Generated_Source\PSoC4/ADC_SAR_Seq.c ****                 ,(uint8)(ADC_SAR_Seq_cy_psoc4_sarmux_8__CH_14_PORT << 4u) |
 157:.\Generated_Source\PSoC4/ADC_SAR_Seq.c ****                  (uint8)ADC_SAR_Seq_cy_psoc4_sarmux_8__CH_14_PIN
 158:.\Generated_Source\PSoC4/ADC_SAR_Seq.c ****             #endif /* End ADC_SAR_Seq_TOTAL_CHANNELS_NUM > 14u */
 159:.\Generated_Source\PSoC4/ADC_SAR_Seq.c ****             #if(ADC_SAR_Seq_TOTAL_CHANNELS_NUM > 15u)
 160:.\Generated_Source\PSoC4/ADC_SAR_Seq.c ****                 ,(uint8)(ADC_SAR_Seq_cy_psoc4_sarmux_8__CH_15_PORT << 4u) |
 161:.\Generated_Source\PSoC4/ADC_SAR_Seq.c ****                  (uint8)ADC_SAR_Seq_cy_psoc4_sarmux_8__CH_15_PIN
 162:.\Generated_Source\PSoC4/ADC_SAR_Seq.c ****             #endif /* End ADC_SAR_Seq_TOTAL_CHANNELS_NUM > 15u */
 163:.\Generated_Source\PSoC4/ADC_SAR_Seq.c ****             #if(ADC_SAR_Seq_TOTAL_CHANNELS_NUM > 16u)
 164:.\Generated_Source\PSoC4/ADC_SAR_Seq.c ****                 ,(uint8)(ADC_SAR_Seq_cy_psoc4_sarmux_8__CH_16_PORT << 4u) |
 165:.\Generated_Source\PSoC4/ADC_SAR_Seq.c ****                  (uint8)ADC_SAR_Seq_cy_psoc4_sarmux_8__CH_16_PIN
 166:.\Generated_Source\PSoC4/ADC_SAR_Seq.c ****             #endif /* End ADC_SAR_Seq_TOTAL_CHANNELS_NUM > 16u */
 167:.\Generated_Source\PSoC4/ADC_SAR_Seq.c ****         };
 168:.\Generated_Source\PSoC4/ADC_SAR_Seq.c ****     #endif /* End ADC_SAR_Seq_TOTAL_CHANNELS_NUM > 1u */
 169:.\Generated_Source\PSoC4/ADC_SAR_Seq.c **** 
 170:.\Generated_Source\PSoC4/ADC_SAR_Seq.c ****     #if(ADC_SAR_Seq_IRQ_REMOVE == 0u)
 171:.\Generated_Source\PSoC4/ADC_SAR_Seq.c ****         /* Start and set interrupt vector */
 172:.\Generated_Source\PSoC4/ADC_SAR_Seq.c ****         CyIntSetPriority(ADC_SAR_Seq_INTC_NUMBER, ADC_SAR_Seq_INTC_PRIOR_NUMBER);
  32              		.loc 1 172 0
  33 0002 0E20     		mov	r0, #14
  34 0004 0321     		mov	r1, #3
  35 0006 FFF7FEFF 		bl	CyIntSetPriority
  36              	.LVL0:
 173:.\Generated_Source\PSoC4/ADC_SAR_Seq.c ****         (void)CyIntSetVector(ADC_SAR_Seq_INTC_NUMBER, &ADC_SAR_Seq_ISR);
  37              		.loc 1 173 0
  38 000a 0E20     		mov	r0, #14
  39 000c 2A49     		ldr	r1, .L6
  40 000e FFF7FEFF 		bl	CyIntSetVector
  41              	.LVL1:
 174:.\Generated_Source\PSoC4/ADC_SAR_Seq.c ****     #endif   /* End ADC_SAR_Seq_IRQ_REMOVE */
 175:.\Generated_Source\PSoC4/ADC_SAR_Seq.c **** 
 176:.\Generated_Source\PSoC4/ADC_SAR_Seq.c ****     /* Init SAR and MUX registers */
 177:.\Generated_Source\PSoC4/ADC_SAR_Seq.c ****     ADC_SAR_Seq_SAR_CHAN_EN_REG = ADC_SAR_Seq_DEFAULT_EN_CHANNELS;
  42              		.loc 1 177 0
  43 0012 0122     		mov	r2, #1
  44 0014 294B     		ldr	r3, .L6+4
  45 0016 1A60     		str	r2, [r3]
 178:.\Generated_Source\PSoC4/ADC_SAR_Seq.c ****     ADC_SAR_Seq_SAR_CTRL_REG |= ADC_SAR_Seq_DEFAULT_CTRL_REG_CFG | 
 179:.\Generated_Source\PSoC4/ADC_SAR_Seq.c ****         /* Enable the SAR internal pump when global pump is enabled */
 180:.\Generated_Source\PSoC4/ADC_SAR_Seq.c ****         (((ADC_SAR_Seq_PUMP_CTRL_REG & ADC_SAR_Seq_PUMP_CTRL_ENABLED) != 0u) ? 
  46              		.loc 1 180 0
  47 0018 294B     		ldr	r3, .L6+8
  48 001a 1B68     		ldr	r3, [r3]
ARM GAS  C:\Users\ÑÏÍþºÀ\AppData\Local\Temp\ccgCcFYV.s 			page 5


 178:.\Generated_Source\PSoC4/ADC_SAR_Seq.c ****     ADC_SAR_Seq_SAR_CTRL_REG |= ADC_SAR_Seq_DEFAULT_CTRL_REG_CFG | 
  49              		.loc 1 178 0
  50 001c 002B     		cmp	r3, #0
  51 001e 01DA     		bge	.L5
  52 0020 2849     		ldr	r1, .L6+12
  53 0022 00E0     		b	.L2
  54              	.L5:
  55 0024 2849     		ldr	r1, .L6+16
  56              	.L2:
 178:.\Generated_Source\PSoC4/ADC_SAR_Seq.c ****     ADC_SAR_Seq_SAR_CTRL_REG |= ADC_SAR_Seq_DEFAULT_CTRL_REG_CFG | 
  57              		.loc 1 178 0 is_stmt 0 discriminator 4
  58 0026 294A     		ldr	r2, .L6+20
  59 0028 1368     		ldr	r3, [r2]
  60 002a 0B43     		orr	r3, r1
  61 002c 1360     		str	r3, [r2]
 181:.\Generated_Source\PSoC4/ADC_SAR_Seq.c ****         ADC_SAR_Seq_BOOSTPUMP_EN : 0u);
 182:.\Generated_Source\PSoC4/ADC_SAR_Seq.c ****     ADC_SAR_Seq_SAR_SAMPLE_CTRL_REG = ADC_SAR_Seq_DEFAULT_SAMPLE_CTRL_REG_CFG;
  62              		.loc 1 182 0 is_stmt 1 discriminator 4
  63 002e 284A     		ldr	r2, .L6+24
  64 0030 284B     		ldr	r3, .L6+28
  65 0032 1A60     		str	r2, [r3]
 183:.\Generated_Source\PSoC4/ADC_SAR_Seq.c ****     ADC_SAR_Seq_SAR_RANGE_THRES_REG = ADC_SAR_Seq_DEFAULT_RANGE_THRES_REG_CFG;
  66              		.loc 1 183 0 discriminator 4
  67 0034 284A     		ldr	r2, .L6+32
  68 0036 294B     		ldr	r3, .L6+36
  69 0038 1A60     		str	r2, [r3]
 184:.\Generated_Source\PSoC4/ADC_SAR_Seq.c ****     ADC_SAR_Seq_SAR_RANGE_COND_REG  = ADC_SAR_Seq_COMPARE_MODE;
  70              		.loc 1 184 0 discriminator 4
  71 003a 8022     		mov	r2, #128
  72 003c D205     		lsl	r2, r2, #23
  73 003e 284B     		ldr	r3, .L6+40
  74 0040 1A60     		str	r2, [r3]
 185:.\Generated_Source\PSoC4/ADC_SAR_Seq.c ****     ADC_SAR_Seq_SAR_SAMPLE_TIME01_REG = ADC_SAR_Seq_DEFAULT_SAMPLE_TIME01_REG_CFG;
  75              		.loc 1 185 0 discriminator 4
  76 0042 284B     		ldr	r3, .L6+44
  77 0044 284A     		ldr	r2, .L6+48
  78 0046 1360     		str	r3, [r2]
 186:.\Generated_Source\PSoC4/ADC_SAR_Seq.c ****     ADC_SAR_Seq_SAR_SAMPLE_TIME23_REG = ADC_SAR_Seq_DEFAULT_SAMPLE_TIME23_REG_CFG;
  79              		.loc 1 186 0 discriminator 4
  80 0048 284A     		ldr	r2, .L6+52
  81 004a 1360     		str	r3, [r2]
 187:.\Generated_Source\PSoC4/ADC_SAR_Seq.c ****     
 188:.\Generated_Source\PSoC4/ADC_SAR_Seq.c ****     /* Connect Vm to VSSA when even one channel is single-ended or multiple channels configured */
 189:.\Generated_Source\PSoC4/ADC_SAR_Seq.c ****     #if(ADC_SAR_Seq_DEFAULT_MUX_SWITCH0 != 0u)
 190:.\Generated_Source\PSoC4/ADC_SAR_Seq.c ****         ADC_SAR_Seq_MUX_SWITCH0_REG |= ADC_SAR_Seq_DEFAULT_MUX_SWITCH0;
  82              		.loc 1 190 0 discriminator 4
  83 004c 284A     		ldr	r2, .L6+56
  84 004e 1368     		ldr	r3, [r2]
  85 0050 8021     		mov	r1, #128
  86 0052 4902     		lsl	r1, r1, #9
  87 0054 0B43     		orr	r3, r1
  88 0056 1360     		str	r3, [r2]
 191:.\Generated_Source\PSoC4/ADC_SAR_Seq.c ****         /* Set MUX_HW_CTRL_VSSA in MUX_SWITCH_HW_CTRL when multiple channels enabled */
 192:.\Generated_Source\PSoC4/ADC_SAR_Seq.c ****         #if(ADC_SAR_Seq_TOTAL_CHANNELS_NUM > 1u)
 193:.\Generated_Source\PSoC4/ADC_SAR_Seq.c ****             ADC_SAR_Seq_MUX_SWITCH_HW_CTRL_REG |= ADC_SAR_Seq_DEFAULT_MUX_SWITCH0;
 194:.\Generated_Source\PSoC4/ADC_SAR_Seq.c ****         #endif /* ADC_SAR_Seq_TOTAL_CHANNELS_NUM > 1u */
 195:.\Generated_Source\PSoC4/ADC_SAR_Seq.c ****     #endif /*ADC_SAR_Seq_CHANNELS_MODE !=0 */
ARM GAS  C:\Users\ÑÏÍþºÀ\AppData\Local\Temp\ccgCcFYV.s 			page 6


 196:.\Generated_Source\PSoC4/ADC_SAR_Seq.c **** 
 197:.\Generated_Source\PSoC4/ADC_SAR_Seq.c ****     ADC_SAR_Seq_SAR_SATURATE_INTR_MASK_REG = 0u;
  89              		.loc 1 197 0 discriminator 4
  90 0058 0023     		mov	r3, #0
  91 005a 264A     		ldr	r2, .L6+60
  92 005c 1360     		str	r3, [r2]
 198:.\Generated_Source\PSoC4/ADC_SAR_Seq.c ****     ADC_SAR_Seq_SAR_RANGE_INTR_MASK_REG = 0u;
  93              		.loc 1 198 0 discriminator 4
  94 005e 264A     		ldr	r2, .L6+64
  95 0060 1360     		str	r3, [r2]
 199:.\Generated_Source\PSoC4/ADC_SAR_Seq.c ****     ADC_SAR_Seq_SAR_INTR_MASK_REG = ADC_SAR_Seq_SAR_INTR_MASK;
  96              		.loc 1 199 0 discriminator 4
  97 0062 0133     		add	r3, r3, #1
  98 0064 254A     		ldr	r2, .L6+68
  99 0066 1360     		str	r3, [r2]
 200:.\Generated_Source\PSoC4/ADC_SAR_Seq.c **** 
 201:.\Generated_Source\PSoC4/ADC_SAR_Seq.c ****     #if(ADC_SAR_Seq_CY_SAR_IP_VER == ADC_SAR_Seq_CY_SAR_IP_VER0)
 202:.\Generated_Source\PSoC4/ADC_SAR_Seq.c ****         ADC_SAR_Seq_ANA_TRIM_REG = ADC_SAR_Seq_TRIM_COEF;
 100              		.loc 1 202 0 discriminator 4
 101 0068 0221     		mov	r1, #2
 102 006a 254A     		ldr	r2, .L6+72
 103 006c 1160     		str	r1, [r2]
 203:.\Generated_Source\PSoC4/ADC_SAR_Seq.c ****     #endif /* (ADC_SAR_Seq_CY_SAR_IP_VER == ADC_SAR_Seq_CY_SAR_IP_VER0) */
 204:.\Generated_Source\PSoC4/ADC_SAR_Seq.c **** 
 205:.\Generated_Source\PSoC4/ADC_SAR_Seq.c ****     /* Read and modify default configuration based on characterization */
 206:.\Generated_Source\PSoC4/ADC_SAR_Seq.c ****     tmpRegVal = ADC_SAR_Seq_SAR_DFT_CTRL_REG;
 104              		.loc 1 206 0 discriminator 4
 105 006e 2549     		ldr	r1, .L6+76
 106 0070 0868     		ldr	r0, [r1]
 107              	.LVL2:
 207:.\Generated_Source\PSoC4/ADC_SAR_Seq.c ****     tmpRegVal &= (uint32)~ADC_SAR_Seq_DCEN;
 108              		.loc 1 207 0 discriminator 4
 109 0072 254A     		ldr	r2, .L6+80
 110 0074 0240     		and	r2, r0
 111              	.LVL3:
 208:.\Generated_Source\PSoC4/ADC_SAR_Seq.c ****     
 209:.\Generated_Source\PSoC4/ADC_SAR_Seq.c ****     #if(ADC_SAR_Seq_CY_SAR_IP_VER == ADC_SAR_Seq_CY_SAR_IP_VER0)
 210:.\Generated_Source\PSoC4/ADC_SAR_Seq.c ****         #if(ADC_SAR_Seq_NOMINAL_CLOCK_FREQ > (ADC_SAR_Seq_MAX_FREQUENCY / 2))
 211:.\Generated_Source\PSoC4/ADC_SAR_Seq.c ****             tmpRegVal |= ADC_SAR_Seq_SEL_CSEL_DFT_CHAR;
 212:.\Generated_Source\PSoC4/ADC_SAR_Seq.c ****         #else  /* clock speed < 9 Mhz */
 213:.\Generated_Source\PSoC4/ADC_SAR_Seq.c ****             tmpRegVal |= ADC_SAR_Seq_DLY_INC;
 112              		.loc 1 213 0 discriminator 4
 113 0076 1343     		orr	r3, r2
 114              	.LVL4:
 214:.\Generated_Source\PSoC4/ADC_SAR_Seq.c ****         #endif /* clock speed > 9 Mhz */
 215:.\Generated_Source\PSoC4/ADC_SAR_Seq.c ****     #else
 216:.\Generated_Source\PSoC4/ADC_SAR_Seq.c ****         #if ((ADC_SAR_Seq_DEFAULT_VREF_SEL == ADC_SAR_Seq__INTERNAL1024) || \
 217:.\Generated_Source\PSoC4/ADC_SAR_Seq.c ****              (ADC_SAR_Seq_DEFAULT_VREF_SEL == ADC_SAR_Seq__INTERNALVREF))
 218:.\Generated_Source\PSoC4/ADC_SAR_Seq.c ****             tmpRegVal |= ADC_SAR_Seq_DLY_INC;
 219:.\Generated_Source\PSoC4/ADC_SAR_Seq.c ****         #else
 220:.\Generated_Source\PSoC4/ADC_SAR_Seq.c ****             tmpRegVal |= ADC_SAR_Seq_DCEN;
 221:.\Generated_Source\PSoC4/ADC_SAR_Seq.c ****             tmpRegVal &= (uint32)~ADC_SAR_Seq_DLY_INC;
 222:.\Generated_Source\PSoC4/ADC_SAR_Seq.c ****         #endif /* ((ADC_SAR_Seq_DEFAULT_VREF_SEL == ADC_SAR_Seq__INTERNAL1024) || \
 223:.\Generated_Source\PSoC4/ADC_SAR_Seq.c ****                    (ADC_SAR_Seq_DEFAULT_VREF_SEL == ADC_SAR_Seq__INTERNALVREF)) */
 224:.\Generated_Source\PSoC4/ADC_SAR_Seq.c ****     #endif /* (ADC_SAR_Seq_CY_SAR_IP_VER == ADC_SAR_Seq_CY_SAR_IP_VER0) */
 225:.\Generated_Source\PSoC4/ADC_SAR_Seq.c ****     
 226:.\Generated_Source\PSoC4/ADC_SAR_Seq.c ****     ADC_SAR_Seq_SAR_DFT_CTRL_REG = tmpRegVal;
ARM GAS  C:\Users\ÑÏÍþºÀ\AppData\Local\Temp\ccgCcFYV.s 			page 7


 115              		.loc 1 226 0 discriminator 4
 116 0078 0B60     		str	r3, [r1]
 117              	.LVL5:
 227:.\Generated_Source\PSoC4/ADC_SAR_Seq.c **** 
 228:.\Generated_Source\PSoC4/ADC_SAR_Seq.c ****     #if(ADC_SAR_Seq_MAX_RESOLUTION != ADC_SAR_Seq_RESOLUTION_12)
 229:.\Generated_Source\PSoC4/ADC_SAR_Seq.c ****         ADC_SAR_Seq_WOUNDING_REG = ADC_SAR_Seq_ALT_WOUNDING;
 230:.\Generated_Source\PSoC4/ADC_SAR_Seq.c ****     #endif /* ADC_SAR_Seq_MAX_RESOLUTION != ADC_SAR_Seq_RESOLUTION_12 */
 231:.\Generated_Source\PSoC4/ADC_SAR_Seq.c **** 
 232:.\Generated_Source\PSoC4/ADC_SAR_Seq.c ****     for(chNum = 0u; chNum < ADC_SAR_Seq_TOTAL_CHANNELS_NUM; chNum++)
 118              		.loc 1 232 0 discriminator 4
 119 007a 0023     		mov	r3, #0
 120              	.LVL6:
 121 007c 18E0     		b	.L3
 122              	.LVL7:
 123              	.L4:
 233:.\Generated_Source\PSoC4/ADC_SAR_Seq.c ****     {
 234:.\Generated_Source\PSoC4/ADC_SAR_Seq.c ****         tmpRegVal = (ADC_SAR_Seq_channelsConfig[chNum] & ADC_SAR_Seq_CHANNEL_CONFIG_MASK);
 235:.\Generated_Source\PSoC4/ADC_SAR_Seq.c ****         #if(ADC_SAR_Seq_TOTAL_CHANNELS_NUM > 1u)
 236:.\Generated_Source\PSoC4/ADC_SAR_Seq.c ****             tmpRegVal |= ADC_SAR_Seq_InputsPlacement[chNum];
 237:.\Generated_Source\PSoC4/ADC_SAR_Seq.c ****         #endif /* End ADC_SAR_Seq_TOTAL_CHANNELS_NUM > 1u */
 238:.\Generated_Source\PSoC4/ADC_SAR_Seq.c ****         
 239:.\Generated_Source\PSoC4/ADC_SAR_Seq.c ****         
 240:.\Generated_Source\PSoC4/ADC_SAR_Seq.c ****         /* When the part is limited to 10-bit then the SUB_RESOLUTION bit
 241:.\Generated_Source\PSoC4/ADC_SAR_Seq.c ****         *  will be ignored and the RESOLUTION bit selects between 10-bit
 242:.\Generated_Source\PSoC4/ADC_SAR_Seq.c ****         *  (0) and 8-bit (1) resolution.
 243:.\Generated_Source\PSoC4/ADC_SAR_Seq.c ****         */
 244:.\Generated_Source\PSoC4/ADC_SAR_Seq.c ****         #if((ADC_SAR_Seq_MAX_RESOLUTION != ADC_SAR_Seq_RESOLUTION_12) && \
 245:.\Generated_Source\PSoC4/ADC_SAR_Seq.c ****             (ADC_SAR_Seq_ALT_WOUNDING == ADC_SAR_Seq_WOUNDING_10BIT))
 246:.\Generated_Source\PSoC4/ADC_SAR_Seq.c ****             tmpRegVal &= (uint32)(~ADC_SAR_Seq_ALT_RESOLUTION_ON);
 247:.\Generated_Source\PSoC4/ADC_SAR_Seq.c ****         #endif /* ADC_SAR_Seq_MAX_RESOLUTION != ADC_SAR_Seq_RESOLUTION_12 */
 248:.\Generated_Source\PSoC4/ADC_SAR_Seq.c **** 
 249:.\Generated_Source\PSoC4/ADC_SAR_Seq.c ****         #if(ADC_SAR_Seq_INJ_CHANNEL_ENABLED)
 250:.\Generated_Source\PSoC4/ADC_SAR_Seq.c ****         if(chNum < ADC_SAR_Seq_SEQUENCED_CHANNELS_NUM)
 251:.\Generated_Source\PSoC4/ADC_SAR_Seq.c ****         #endif /* ADC_SAR_Seq_INJ_CHANNEL_ENABLED */
 252:.\Generated_Source\PSoC4/ADC_SAR_Seq.c ****         {
 253:.\Generated_Source\PSoC4/ADC_SAR_Seq.c ****             CY_SET_REG32((reg32 *)(ADC_SAR_Seq_SAR_CHAN_CONFIG_IND + (uint32)(chNum << 2)), tmpRegV
 124              		.loc 1 253 0
 125 007e 9A00     		lsl	r2, r3, #2
 126 0080 2249     		ldr	r1, .L6+84
 127 0082 8C46     		mov	ip, r1
 128 0084 6244     		add	r2, r2, ip
 129 0086 8021     		mov	r1, #128
 130 0088 C900     		lsl	r1, r1, #3
 131 008a 1160     		str	r1, [r2]
 254:.\Generated_Source\PSoC4/ADC_SAR_Seq.c **** 
 255:.\Generated_Source\PSoC4/ADC_SAR_Seq.c ****             if((ADC_SAR_Seq_channelsConfig[chNum] & ADC_SAR_Seq_IS_SATURATE_EN_MASK) != 0u)
 256:.\Generated_Source\PSoC4/ADC_SAR_Seq.c ****             {
 257:.\Generated_Source\PSoC4/ADC_SAR_Seq.c ****                 ADC_SAR_Seq_SAR_SATURATE_INTR_MASK_REG |= (uint16)((uint16)1 << chNum);
 258:.\Generated_Source\PSoC4/ADC_SAR_Seq.c ****             }
 259:.\Generated_Source\PSoC4/ADC_SAR_Seq.c **** 
 260:.\Generated_Source\PSoC4/ADC_SAR_Seq.c ****             if((ADC_SAR_Seq_channelsConfig[chNum] & ADC_SAR_Seq_IS_RANGE_CTRL_EN_MASK) != 0u)
 261:.\Generated_Source\PSoC4/ADC_SAR_Seq.c ****             {
 262:.\Generated_Source\PSoC4/ADC_SAR_Seq.c ****                 ADC_SAR_Seq_SAR_RANGE_INTR_MASK_REG |= (uint16)((uint16)1 << chNum);
 132              		.loc 1 262 0
 133 008c 1A48     		ldr	r0, .L6+64
 134 008e 0468     		ldr	r4, [r0]
 135 0090 8021     		mov	r1, #128
ARM GAS  C:\Users\ÑÏÍþºÀ\AppData\Local\Temp\ccgCcFYV.s 			page 8


 136 0092 4902     		lsl	r1, r1, #9
 137 0094 0A1C     		mov	r2, r1
 138 0096 9A40     		lsl	r2, r2, r3
 139 0098 120C     		lsr	r2, r2, #16
 140 009a 2243     		orr	r2, r4
 141 009c 0260     		str	r2, [r0]
 142              	.LVL8:
 263:.\Generated_Source\PSoC4/ADC_SAR_Seq.c ****             }
 264:.\Generated_Source\PSoC4/ADC_SAR_Seq.c ****         }
 265:.\Generated_Source\PSoC4/ADC_SAR_Seq.c ****         #if(ADC_SAR_Seq_INJ_CHANNEL_ENABLED)
 266:.\Generated_Source\PSoC4/ADC_SAR_Seq.c ****             else
 267:.\Generated_Source\PSoC4/ADC_SAR_Seq.c ****             {
 268:.\Generated_Source\PSoC4/ADC_SAR_Seq.c ****                 CY_SET_REG32(ADC_SAR_Seq_SAR_INJ_CHAN_CONFIG_PTR, tmpRegVal | ADC_SAR_Seq_INJ_TAILG
 269:.\Generated_Source\PSoC4/ADC_SAR_Seq.c **** 
 270:.\Generated_Source\PSoC4/ADC_SAR_Seq.c ****                 if((ADC_SAR_Seq_channelsConfig[chNum] & ADC_SAR_Seq_IS_SATURATE_EN_MASK) != 0u)
 271:.\Generated_Source\PSoC4/ADC_SAR_Seq.c ****                 {
 272:.\Generated_Source\PSoC4/ADC_SAR_Seq.c ****                     ADC_SAR_Seq_SAR_INTR_MASK_REG |= ADC_SAR_Seq_INJ_SATURATE_MASK;
 273:.\Generated_Source\PSoC4/ADC_SAR_Seq.c ****                 }
 274:.\Generated_Source\PSoC4/ADC_SAR_Seq.c **** 
 275:.\Generated_Source\PSoC4/ADC_SAR_Seq.c ****                 if((ADC_SAR_Seq_channelsConfig[chNum] & ADC_SAR_Seq_IS_RANGE_CTRL_EN_MASK) != 0u)
 276:.\Generated_Source\PSoC4/ADC_SAR_Seq.c ****                 {
 277:.\Generated_Source\PSoC4/ADC_SAR_Seq.c ****                     ADC_SAR_Seq_SAR_INTR_MASK_REG |= ADC_SAR_Seq_INJ_RANGE_MASK;
 278:.\Generated_Source\PSoC4/ADC_SAR_Seq.c ****                 }
 279:.\Generated_Source\PSoC4/ADC_SAR_Seq.c ****             }
 280:.\Generated_Source\PSoC4/ADC_SAR_Seq.c ****         #endif /* ADC_SAR_Seq_INJ_CHANNEL_ENABLED */
 281:.\Generated_Source\PSoC4/ADC_SAR_Seq.c **** 
 282:.\Generated_Source\PSoC4/ADC_SAR_Seq.c ****         if((ADC_SAR_Seq_channelsConfig[chNum] & ADC_SAR_Seq_ALT_RESOLUTION_ON) != 0u)
 283:.\Generated_Source\PSoC4/ADC_SAR_Seq.c ****         {
 284:.\Generated_Source\PSoC4/ADC_SAR_Seq.c ****                counts = (int32)ADC_SAR_Seq_DEFAULT_MAX_WRK_ALT;
 285:.\Generated_Source\PSoC4/ADC_SAR_Seq.c ****         }
 286:.\Generated_Source\PSoC4/ADC_SAR_Seq.c ****         else
 287:.\Generated_Source\PSoC4/ADC_SAR_Seq.c ****         {
 288:.\Generated_Source\PSoC4/ADC_SAR_Seq.c ****                counts = (int32)ADC_SAR_Seq_SAR_WRK_MAX_12BIT;
 289:.\Generated_Source\PSoC4/ADC_SAR_Seq.c ****         }
 290:.\Generated_Source\PSoC4/ADC_SAR_Seq.c **** 
 291:.\Generated_Source\PSoC4/ADC_SAR_Seq.c ****         if((ADC_SAR_Seq_channelsConfig[chNum] & ADC_SAR_Seq_DIFFERENTIAL_EN) == 0u)
 292:.\Generated_Source\PSoC4/ADC_SAR_Seq.c ****         {
 293:.\Generated_Source\PSoC4/ADC_SAR_Seq.c ****             #if((ADC_SAR_Seq_DEFAULT_SE_RESULT_FORMAT_SEL == ADC_SAR_Seq__FSIGNED) && \
 294:.\Generated_Source\PSoC4/ADC_SAR_Seq.c ****                 (ADC_SAR_Seq_DEFAULT_NEG_INPUT_SEL == ADC_SAR_Seq__VREF))
 295:.\Generated_Source\PSoC4/ADC_SAR_Seq.c ****                 /* Set offset to the minus half scale to convert results to unsigned format */
 296:.\Generated_Source\PSoC4/ADC_SAR_Seq.c ****                 ADC_SAR_Seq_offset[chNum] = (int16)(counts / -2);
 297:.\Generated_Source\PSoC4/ADC_SAR_Seq.c ****             #else
 298:.\Generated_Source\PSoC4/ADC_SAR_Seq.c ****                 ADC_SAR_Seq_offset[chNum] = 0;
 143              		.loc 1 298 0
 144 009e 5900     		lsl	r1, r3, #1
 145 00a0 0020     		mov	r0, #0
 146 00a2 1B4A     		ldr	r2, .L6+88
 147 00a4 8852     		strh	r0, [r1, r2]
 299:.\Generated_Source\PSoC4/ADC_SAR_Seq.c ****             #endif /* end DEFAULT_SE_RESULT_FORMAT_SEL == ADC_SAR_Seq__FSIGNED */
 300:.\Generated_Source\PSoC4/ADC_SAR_Seq.c ****         }
 301:.\Generated_Source\PSoC4/ADC_SAR_Seq.c ****         else    /* Differential channel */
 302:.\Generated_Source\PSoC4/ADC_SAR_Seq.c ****         {
 303:.\Generated_Source\PSoC4/ADC_SAR_Seq.c ****             #if(ADC_SAR_Seq_DEFAULT_DIFF_RESULT_FORMAT_SEL == ADC_SAR_Seq__FUNSIGNED)
 304:.\Generated_Source\PSoC4/ADC_SAR_Seq.c ****                 /* Set offset to the half scale to convert results to signed format */
 305:.\Generated_Source\PSoC4/ADC_SAR_Seq.c ****                 ADC_SAR_Seq_offset[chNum] = (int16)(counts / 2);
 306:.\Generated_Source\PSoC4/ADC_SAR_Seq.c ****             #else
 307:.\Generated_Source\PSoC4/ADC_SAR_Seq.c ****                 ADC_SAR_Seq_offset[chNum] = 0;
ARM GAS  C:\Users\ÑÏÍþºÀ\AppData\Local\Temp\ccgCcFYV.s 			page 9


 308:.\Generated_Source\PSoC4/ADC_SAR_Seq.c ****             #endif /* end ADC_SAR_Seq_DEFAULT_DIFF_RESULT_FORMAT_SEL == ADC_SAR_Seq__FUNSIGNED */
 309:.\Generated_Source\PSoC4/ADC_SAR_Seq.c ****         }
 310:.\Generated_Source\PSoC4/ADC_SAR_Seq.c ****         /* Calculate gain in counts per 10 volts with rounding */
 311:.\Generated_Source\PSoC4/ADC_SAR_Seq.c ****         ADC_SAR_Seq_countsPer10Volt[chNum] = (int16)(((counts * ADC_SAR_Seq_10MV_COUNTS) +
 148              		.loc 1 311 0
 149 00a6 9900     		lsl	r1, r3, #2
 150 00a8 1A48     		ldr	r0, .L6+92
 151 00aa 1B4A     		ldr	r2, .L6+96
 152 00ac 8850     		str	r0, [r1, r2]
 232:.\Generated_Source\PSoC4/ADC_SAR_Seq.c ****     {
 153              		.loc 1 232 0
 154 00ae 0133     		add	r3, r3, #1
 155              	.LVL9:
 156              	.L3:
 232:.\Generated_Source\PSoC4/ADC_SAR_Seq.c ****     {
 157              		.loc 1 232 0 is_stmt 0 discriminator 1
 158 00b0 002B     		cmp	r3, #0
 159 00b2 E4D0     		beq	.L4
 312:.\Generated_Source\PSoC4/ADC_SAR_Seq.c ****                             ADC_SAR_Seq_DEFAULT_VREF_MV_VALUE) / (ADC_SAR_Seq_DEFAULT_VREF_MV_VALUE
 313:.\Generated_Source\PSoC4/ADC_SAR_Seq.c ****     }
 314:.\Generated_Source\PSoC4/ADC_SAR_Seq.c **** }
 160              		.loc 1 314 0 is_stmt 1
 161              		@ sp needed
 162 00b4 10BD     		pop	{r4, pc}
 163              	.L7:
 164 00b6 C046     		.align	2
 165              	.L6:
 166 00b8 00000000 		.word	ADC_SAR_Seq_ISR
 167 00bc 20001A40 		.word	1075445792
 168 00c0 80031A40 		.word	1075446656
 169 00c4 70021053 		.word	1393558128
 170 00c8 70020053 		.word	1392509552
 171 00cc 00001A40 		.word	1075445760
 172 00d0 AD000080 		.word	-2147483475
 173 00d4 04001A40 		.word	1075445764
 174 00d8 0000FF07 		.word	134152192
 175 00dc 18001A40 		.word	1075445784
 176 00e0 1C001A40 		.word	1075445788
 177 00e4 02000200 		.word	131074
 178 00e8 10001A40 		.word	1075445776
 179 00ec 14001A40 		.word	1075445780
 180 00f0 00031A40 		.word	1075446528
 181 00f4 28021A40 		.word	1075446312
 182 00f8 38021A40 		.word	1075446328
 183 00fc 18021A40 		.word	1075446296
 184 0100 000F1A40 		.word	1075449600
 185 0104 30001A40 		.word	1075445808
 186 0108 FFFFFFDF 		.word	-536870913
 187 010c 80001A40 		.word	1075445888
 188 0110 00000000 		.word	ADC_SAR_Seq_offset
 189 0114 3E180000 		.word	6206
 190 0118 00000000 		.word	ADC_SAR_Seq_countsPer10Volt
 191              		.cfi_endproc
 192              	.LFE1:
 193              		.size	ADC_SAR_Seq_Init, .-ADC_SAR_Seq_Init
 194              		.section	.text.ADC_SAR_Seq_Enable,"ax",%progbits
 195              		.align	2
ARM GAS  C:\Users\ÑÏÍþºÀ\AppData\Local\Temp\ccgCcFYV.s 			page 10


 196              		.global	ADC_SAR_Seq_Enable
 197              		.code	16
 198              		.thumb_func
 199              		.type	ADC_SAR_Seq_Enable, %function
 200              	ADC_SAR_Seq_Enable:
 201              	.LFB2:
 315:.\Generated_Source\PSoC4/ADC_SAR_Seq.c **** 
 316:.\Generated_Source\PSoC4/ADC_SAR_Seq.c **** /*******************************************************************************
 317:.\Generated_Source\PSoC4/ADC_SAR_Seq.c **** * Function Name: ADC_SAR_1_Enable
 318:.\Generated_Source\PSoC4/ADC_SAR_Seq.c **** ********************************************************************************
 319:.\Generated_Source\PSoC4/ADC_SAR_Seq.c **** *
 320:.\Generated_Source\PSoC4/ADC_SAR_Seq.c **** * Summary:
 321:.\Generated_Source\PSoC4/ADC_SAR_Seq.c **** *  Enables the clock and analog power for SAR ADC.
 322:.\Generated_Source\PSoC4/ADC_SAR_Seq.c **** *
 323:.\Generated_Source\PSoC4/ADC_SAR_Seq.c **** * Parameters:
 324:.\Generated_Source\PSoC4/ADC_SAR_Seq.c **** *  None.
 325:.\Generated_Source\PSoC4/ADC_SAR_Seq.c **** *
 326:.\Generated_Source\PSoC4/ADC_SAR_Seq.c **** * Return:
 327:.\Generated_Source\PSoC4/ADC_SAR_Seq.c **** *  None.
 328:.\Generated_Source\PSoC4/ADC_SAR_Seq.c **** *
 329:.\Generated_Source\PSoC4/ADC_SAR_Seq.c **** *******************************************************************************/
 330:.\Generated_Source\PSoC4/ADC_SAR_Seq.c **** void ADC_SAR_Seq_Enable(void)
 331:.\Generated_Source\PSoC4/ADC_SAR_Seq.c **** {
 202              		.loc 1 331 0
 203              		.cfi_startproc
 204 0000 08B5     		push	{r3, lr}
 205              		.cfi_def_cfa_offset 8
 206              		.cfi_offset 3, -8
 207              		.cfi_offset 14, -4
 332:.\Generated_Source\PSoC4/ADC_SAR_Seq.c ****     if (0u == (ADC_SAR_Seq_SAR_CTRL_REG & ADC_SAR_Seq_ENABLE))
 208              		.loc 1 332 0
 209 0002 074B     		ldr	r3, .L10
 210 0004 1B68     		ldr	r3, [r3]
 211 0006 002B     		cmp	r3, #0
 212 0008 08DB     		blt	.L8
 333:.\Generated_Source\PSoC4/ADC_SAR_Seq.c ****     {
 334:.\Generated_Source\PSoC4/ADC_SAR_Seq.c ****         #if(ADC_SAR_Seq_CY_SAR_IP_VER != ADC_SAR_Seq_CY_SAR_IP_VER0)
 335:.\Generated_Source\PSoC4/ADC_SAR_Seq.c **** 
 336:.\Generated_Source\PSoC4/ADC_SAR_Seq.c ****             while (0u != (ADC_SAR_Seq_SAR_STATUS_REG & ADC_SAR_Seq_STATUS_BUSY))
 337:.\Generated_Source\PSoC4/ADC_SAR_Seq.c ****             {
 338:.\Generated_Source\PSoC4/ADC_SAR_Seq.c ****                 /* wait for SAR to go idle to avoid deadlock */
 339:.\Generated_Source\PSoC4/ADC_SAR_Seq.c ****             }
 340:.\Generated_Source\PSoC4/ADC_SAR_Seq.c ****         #endif /* (ADC_SAR_Seq_CY_SAR_IP_VER != ADC_SAR_Seq_CY_SAR_IP_VER0) */
 341:.\Generated_Source\PSoC4/ADC_SAR_Seq.c ****         
 342:.\Generated_Source\PSoC4/ADC_SAR_Seq.c ****         ADC_SAR_Seq_SAR_CTRL_REG |= ADC_SAR_Seq_ENABLE;
 213              		.loc 1 342 0
 214 000a 054A     		ldr	r2, .L10
 215 000c 1368     		ldr	r3, [r2]
 216 000e 8021     		mov	r1, #128
 217 0010 0906     		lsl	r1, r1, #24
 218 0012 0B43     		orr	r3, r1
 219 0014 1360     		str	r3, [r2]
 343:.\Generated_Source\PSoC4/ADC_SAR_Seq.c ****         
 344:.\Generated_Source\PSoC4/ADC_SAR_Seq.c ****         /* The block is ready to use 10 us after the enable signal is set high. */
 345:.\Generated_Source\PSoC4/ADC_SAR_Seq.c ****         CyDelayUs(ADC_SAR_Seq_10US_DELAY);         
 220              		.loc 1 345 0
 221 0016 0A20     		mov	r0, #10
ARM GAS  C:\Users\ÑÏÍþºÀ\AppData\Local\Temp\ccgCcFYV.s 			page 11


 222 0018 FFF7FEFF 		bl	CyDelayUs
 223              	.LVL10:
 224              	.L8:
 346:.\Generated_Source\PSoC4/ADC_SAR_Seq.c ****     }
 347:.\Generated_Source\PSoC4/ADC_SAR_Seq.c **** }
 225              		.loc 1 347 0
 226              		@ sp needed
 227 001c 08BD     		pop	{r3, pc}
 228              	.L11:
 229 001e C046     		.align	2
 230              	.L10:
 231 0020 00001A40 		.word	1075445760
 232              		.cfi_endproc
 233              	.LFE2:
 234              		.size	ADC_SAR_Seq_Enable, .-ADC_SAR_Seq_Enable
 235              		.section	.text.ADC_SAR_Seq_Start,"ax",%progbits
 236              		.align	2
 237              		.global	ADC_SAR_Seq_Start
 238              		.code	16
 239              		.thumb_func
 240              		.type	ADC_SAR_Seq_Start, %function
 241              	ADC_SAR_Seq_Start:
 242              	.LFB0:
  64:.\Generated_Source\PSoC4/ADC_SAR_Seq.c ****     /* If not Initialized then initialize all required hardware and software */
 243              		.loc 1 64 0
 244              		.cfi_startproc
 245 0000 08B5     		push	{r3, lr}
 246              		.cfi_def_cfa_offset 8
 247              		.cfi_offset 3, -8
 248              		.cfi_offset 14, -4
  66:.\Generated_Source\PSoC4/ADC_SAR_Seq.c ****     {
 249              		.loc 1 66 0
 250 0002 064B     		ldr	r3, .L14
 251 0004 1B78     		ldrb	r3, [r3]
 252 0006 002B     		cmp	r3, #0
 253 0008 04D1     		bne	.L13
  68:.\Generated_Source\PSoC4/ADC_SAR_Seq.c ****         ADC_SAR_Seq_initVar = 1u;
 254              		.loc 1 68 0
 255 000a FFF7FEFF 		bl	ADC_SAR_Seq_Init
 256              	.LVL11:
  69:.\Generated_Source\PSoC4/ADC_SAR_Seq.c ****     }
 257              		.loc 1 69 0
 258 000e 0122     		mov	r2, #1
 259 0010 024B     		ldr	r3, .L14
 260 0012 1A70     		strb	r2, [r3]
 261              	.L13:
  71:.\Generated_Source\PSoC4/ADC_SAR_Seq.c **** }
 262              		.loc 1 71 0
 263 0014 FFF7FEFF 		bl	ADC_SAR_Seq_Enable
 264              	.LVL12:
  72:.\Generated_Source\PSoC4/ADC_SAR_Seq.c **** 
 265              		.loc 1 72 0
 266              		@ sp needed
 267 0018 08BD     		pop	{r3, pc}
 268              	.L15:
 269 001a C046     		.align	2
 270              	.L14:
ARM GAS  C:\Users\ÑÏÍþºÀ\AppData\Local\Temp\ccgCcFYV.s 			page 12


 271 001c 00000000 		.word	.LANCHOR0
 272              		.cfi_endproc
 273              	.LFE0:
 274              		.size	ADC_SAR_Seq_Start, .-ADC_SAR_Seq_Start
 275              		.section	.text.ADC_SAR_Seq_Stop,"ax",%progbits
 276              		.align	2
 277              		.global	ADC_SAR_Seq_Stop
 278              		.code	16
 279              		.thumb_func
 280              		.type	ADC_SAR_Seq_Stop, %function
 281              	ADC_SAR_Seq_Stop:
 282              	.LFB3:
 348:.\Generated_Source\PSoC4/ADC_SAR_Seq.c **** 
 349:.\Generated_Source\PSoC4/ADC_SAR_Seq.c **** 
 350:.\Generated_Source\PSoC4/ADC_SAR_Seq.c **** /*******************************************************************************
 351:.\Generated_Source\PSoC4/ADC_SAR_Seq.c **** * Function Name: ADC_SAR_Seq_Stop
 352:.\Generated_Source\PSoC4/ADC_SAR_Seq.c **** ********************************************************************************
 353:.\Generated_Source\PSoC4/ADC_SAR_Seq.c **** *
 354:.\Generated_Source\PSoC4/ADC_SAR_Seq.c **** * Summary:
 355:.\Generated_Source\PSoC4/ADC_SAR_Seq.c **** *  This function stops ADC conversions and puts the ADC into its lowest power
 356:.\Generated_Source\PSoC4/ADC_SAR_Seq.c **** *  mode.
 357:.\Generated_Source\PSoC4/ADC_SAR_Seq.c **** *
 358:.\Generated_Source\PSoC4/ADC_SAR_Seq.c **** * Parameters:
 359:.\Generated_Source\PSoC4/ADC_SAR_Seq.c **** *  None.
 360:.\Generated_Source\PSoC4/ADC_SAR_Seq.c **** *
 361:.\Generated_Source\PSoC4/ADC_SAR_Seq.c **** * Return:
 362:.\Generated_Source\PSoC4/ADC_SAR_Seq.c **** *  None.
 363:.\Generated_Source\PSoC4/ADC_SAR_Seq.c **** *
 364:.\Generated_Source\PSoC4/ADC_SAR_Seq.c **** *******************************************************************************/
 365:.\Generated_Source\PSoC4/ADC_SAR_Seq.c **** void ADC_SAR_Seq_Stop(void)
 366:.\Generated_Source\PSoC4/ADC_SAR_Seq.c **** {
 283              		.loc 1 366 0
 284              		.cfi_startproc
 367:.\Generated_Source\PSoC4/ADC_SAR_Seq.c ****     ADC_SAR_Seq_SAR_CTRL_REG &= (uint32)~ADC_SAR_Seq_ENABLE;
 285              		.loc 1 367 0
 286 0000 024A     		ldr	r2, .L17
 287 0002 1368     		ldr	r3, [r2]
 288 0004 5B00     		lsl	r3, r3, #1
 289 0006 5B08     		lsr	r3, r3, #1
 290 0008 1360     		str	r3, [r2]
 368:.\Generated_Source\PSoC4/ADC_SAR_Seq.c **** }
 291              		.loc 1 368 0
 292              		@ sp needed
 293 000a 7047     		bx	lr
 294              	.L18:
 295              		.align	2
 296              	.L17:
 297 000c 00001A40 		.word	1075445760
 298              		.cfi_endproc
 299              	.LFE3:
 300              		.size	ADC_SAR_Seq_Stop, .-ADC_SAR_Seq_Stop
 301              		.section	.text.ADC_SAR_Seq_StartConvert,"ax",%progbits
 302              		.align	2
 303              		.global	ADC_SAR_Seq_StartConvert
 304              		.code	16
 305              		.thumb_func
 306              		.type	ADC_SAR_Seq_StartConvert, %function
ARM GAS  C:\Users\ÑÏÍþºÀ\AppData\Local\Temp\ccgCcFYV.s 			page 13


 307              	ADC_SAR_Seq_StartConvert:
 308              	.LFB4:
 369:.\Generated_Source\PSoC4/ADC_SAR_Seq.c **** 
 370:.\Generated_Source\PSoC4/ADC_SAR_Seq.c **** 
 371:.\Generated_Source\PSoC4/ADC_SAR_Seq.c **** /*******************************************************************************
 372:.\Generated_Source\PSoC4/ADC_SAR_Seq.c **** * Function Name: ADC_SAR_Seq_StartConvert
 373:.\Generated_Source\PSoC4/ADC_SAR_Seq.c **** ********************************************************************************
 374:.\Generated_Source\PSoC4/ADC_SAR_Seq.c **** *
 375:.\Generated_Source\PSoC4/ADC_SAR_Seq.c **** * Summary:
 376:.\Generated_Source\PSoC4/ADC_SAR_Seq.c **** *  Description:
 377:.\Generated_Source\PSoC4/ADC_SAR_Seq.c **** *  For free running mode, this API starts the conversion process and it
 378:.\Generated_Source\PSoC4/ADC_SAR_Seq.c **** *  runs continuously.
 379:.\Generated_Source\PSoC4/ADC_SAR_Seq.c **** *
 380:.\Generated_Source\PSoC4/ADC_SAR_Seq.c **** *  In a triggered mode, this routine triggers every conversion by
 381:.\Generated_Source\PSoC4/ADC_SAR_Seq.c **** *  writing into the FW_TRIGGER bit in SAR_START_CTRL reg. In triggered mode,
 382:.\Generated_Source\PSoC4/ADC_SAR_Seq.c **** *  every conversion has to start by this API.
 383:.\Generated_Source\PSoC4/ADC_SAR_Seq.c **** *
 384:.\Generated_Source\PSoC4/ADC_SAR_Seq.c **** * Parameters:
 385:.\Generated_Source\PSoC4/ADC_SAR_Seq.c **** *  None.
 386:.\Generated_Source\PSoC4/ADC_SAR_Seq.c **** *
 387:.\Generated_Source\PSoC4/ADC_SAR_Seq.c **** * Return:
 388:.\Generated_Source\PSoC4/ADC_SAR_Seq.c **** *  None.
 389:.\Generated_Source\PSoC4/ADC_SAR_Seq.c **** *
 390:.\Generated_Source\PSoC4/ADC_SAR_Seq.c **** *******************************************************************************/
 391:.\Generated_Source\PSoC4/ADC_SAR_Seq.c **** void ADC_SAR_Seq_StartConvert(void)
 392:.\Generated_Source\PSoC4/ADC_SAR_Seq.c **** {
 309              		.loc 1 392 0
 310              		.cfi_startproc
 393:.\Generated_Source\PSoC4/ADC_SAR_Seq.c ****     #if(ADC_SAR_Seq_DEFAULT_SAMPLE_MODE_SEL == ADC_SAR_Seq__FREERUNNING)
 394:.\Generated_Source\PSoC4/ADC_SAR_Seq.c ****         ADC_SAR_Seq_SAR_SAMPLE_CTRL_REG |= ADC_SAR_Seq_CONTINUOUS_EN;
 311              		.loc 1 394 0
 312 0000 034A     		ldr	r2, .L20
 313 0002 1368     		ldr	r3, [r2]
 314 0004 8021     		mov	r1, #128
 315 0006 4902     		lsl	r1, r1, #9
 316 0008 0B43     		orr	r3, r1
 317 000a 1360     		str	r3, [r2]
 395:.\Generated_Source\PSoC4/ADC_SAR_Seq.c ****     #else /* Firmware trigger */
 396:.\Generated_Source\PSoC4/ADC_SAR_Seq.c ****         ADC_SAR_Seq_SAR_START_CTRL_REG = ADC_SAR_Seq_FW_TRIGGER;
 397:.\Generated_Source\PSoC4/ADC_SAR_Seq.c ****     #endif /* End ADC_SAR_Seq_DEFAULT_SAMPLE_MODE == ADC_SAR_Seq__FREERUNNING */
 398:.\Generated_Source\PSoC4/ADC_SAR_Seq.c **** 
 399:.\Generated_Source\PSoC4/ADC_SAR_Seq.c **** }
 318              		.loc 1 399 0
 319              		@ sp needed
 320 000c 7047     		bx	lr
 321              	.L21:
 322 000e C046     		.align	2
 323              	.L20:
 324 0010 04001A40 		.word	1075445764
 325              		.cfi_endproc
 326              	.LFE4:
 327              		.size	ADC_SAR_Seq_StartConvert, .-ADC_SAR_Seq_StartConvert
 328              		.section	.text.ADC_SAR_Seq_StopConvert,"ax",%progbits
 329              		.align	2
 330              		.global	ADC_SAR_Seq_StopConvert
 331              		.code	16
 332              		.thumb_func
ARM GAS  C:\Users\ÑÏÍþºÀ\AppData\Local\Temp\ccgCcFYV.s 			page 14


 333              		.type	ADC_SAR_Seq_StopConvert, %function
 334              	ADC_SAR_Seq_StopConvert:
 335              	.LFB5:
 400:.\Generated_Source\PSoC4/ADC_SAR_Seq.c **** 
 401:.\Generated_Source\PSoC4/ADC_SAR_Seq.c **** 
 402:.\Generated_Source\PSoC4/ADC_SAR_Seq.c **** /*******************************************************************************
 403:.\Generated_Source\PSoC4/ADC_SAR_Seq.c **** * Function Name: ADC_SAR_Seq_StopConvert
 404:.\Generated_Source\PSoC4/ADC_SAR_Seq.c **** ********************************************************************************
 405:.\Generated_Source\PSoC4/ADC_SAR_Seq.c **** *
 406:.\Generated_Source\PSoC4/ADC_SAR_Seq.c **** * Summary:
 407:.\Generated_Source\PSoC4/ADC_SAR_Seq.c **** *  Forces the ADC to stop all conversions.
 408:.\Generated_Source\PSoC4/ADC_SAR_Seq.c **** *
 409:.\Generated_Source\PSoC4/ADC_SAR_Seq.c **** * Parameters:
 410:.\Generated_Source\PSoC4/ADC_SAR_Seq.c **** *  None.
 411:.\Generated_Source\PSoC4/ADC_SAR_Seq.c **** *
 412:.\Generated_Source\PSoC4/ADC_SAR_Seq.c **** * Return:
 413:.\Generated_Source\PSoC4/ADC_SAR_Seq.c **** *  None.
 414:.\Generated_Source\PSoC4/ADC_SAR_Seq.c **** *
 415:.\Generated_Source\PSoC4/ADC_SAR_Seq.c **** *******************************************************************************/
 416:.\Generated_Source\PSoC4/ADC_SAR_Seq.c **** void ADC_SAR_Seq_StopConvert(void)
 417:.\Generated_Source\PSoC4/ADC_SAR_Seq.c **** {
 336              		.loc 1 417 0
 337              		.cfi_startproc
 418:.\Generated_Source\PSoC4/ADC_SAR_Seq.c ****     #if(ADC_SAR_Seq_DEFAULT_SAMPLE_MODE_SEL == ADC_SAR_Seq__FREERUNNING)
 419:.\Generated_Source\PSoC4/ADC_SAR_Seq.c ****         ADC_SAR_Seq_SAR_SAMPLE_CTRL_REG &= (uint32)(~ADC_SAR_Seq_CONTINUOUS_EN);
 338              		.loc 1 419 0
 339 0000 024A     		ldr	r2, .L23
 340 0002 1168     		ldr	r1, [r2]
 341 0004 024B     		ldr	r3, .L23+4
 342 0006 0B40     		and	r3, r1
 343 0008 1360     		str	r3, [r2]
 420:.\Generated_Source\PSoC4/ADC_SAR_Seq.c ****     #endif /* ADC_SAR_Seq_DEFAULT_SAMPLE_MODE == ADC_SAR_Seq__FREERUNNING */
 421:.\Generated_Source\PSoC4/ADC_SAR_Seq.c **** }
 344              		.loc 1 421 0
 345              		@ sp needed
 346 000a 7047     		bx	lr
 347              	.L24:
 348              		.align	2
 349              	.L23:
 350 000c 04001A40 		.word	1075445764
 351 0010 FFFFFEFF 		.word	-65537
 352              		.cfi_endproc
 353              	.LFE5:
 354              		.size	ADC_SAR_Seq_StopConvert, .-ADC_SAR_Seq_StopConvert
 355              		.section	.text.ADC_SAR_Seq_IsEndConversion,"ax",%progbits
 356              		.align	2
 357              		.global	ADC_SAR_Seq_IsEndConversion
 358              		.code	16
 359              		.thumb_func
 360              		.type	ADC_SAR_Seq_IsEndConversion, %function
 361              	ADC_SAR_Seq_IsEndConversion:
 362              	.LFB6:
 422:.\Generated_Source\PSoC4/ADC_SAR_Seq.c **** 
 423:.\Generated_Source\PSoC4/ADC_SAR_Seq.c **** 
 424:.\Generated_Source\PSoC4/ADC_SAR_Seq.c **** /*******************************************************************************
 425:.\Generated_Source\PSoC4/ADC_SAR_Seq.c **** * Function Name: ADC_SAR_Seq_IsEndConversion
 426:.\Generated_Source\PSoC4/ADC_SAR_Seq.c **** ********************************************************************************
ARM GAS  C:\Users\ÑÏÍþºÀ\AppData\Local\Temp\ccgCcFYV.s 			page 15


 427:.\Generated_Source\PSoC4/ADC_SAR_Seq.c **** *
 428:.\Generated_Source\PSoC4/ADC_SAR_Seq.c **** * Summary:
 429:.\Generated_Source\PSoC4/ADC_SAR_Seq.c **** *  Description: Checks for ADC end of conversion for the case one
 430:.\Generated_Source\PSoC4/ADC_SAR_Seq.c **** *  channel and end of scan for the case of multiple channels. It acts
 431:.\Generated_Source\PSoC4/ADC_SAR_Seq.c **** *  as a software version of the EOC. This function provides the
 432:.\Generated_Source\PSoC4/ADC_SAR_Seq.c **** *  programmer with two options. In one mode this function
 433:.\Generated_Source\PSoC4/ADC_SAR_Seq.c **** *  immediately returns with the conversion status. In the other mode,
 434:.\Generated_Source\PSoC4/ADC_SAR_Seq.c **** *  the function does not return (blocking) until the conversion has
 435:.\Generated_Source\PSoC4/ADC_SAR_Seq.c **** *  completed.
 436:.\Generated_Source\PSoC4/ADC_SAR_Seq.c **** *
 437:.\Generated_Source\PSoC4/ADC_SAR_Seq.c **** * Parameters:
 438:.\Generated_Source\PSoC4/ADC_SAR_Seq.c **** *  ADC_RETURN_STATUS        -> Immediately returns conversion result status
 439:.\Generated_Source\PSoC4/ADC_SAR_Seq.c **** *  ADC_WAIT_FOR_RESULT      -> Does not return until ADC complete
 440:.\Generated_Source\PSoC4/ADC_SAR_Seq.c **** *  ADC_RETURN_STATUS_INJ    -> Immediately returns conversion result status
 441:.\Generated_Source\PSoC4/ADC_SAR_Seq.c **** *                              for injection channel
 442:.\Generated_Source\PSoC4/ADC_SAR_Seq.c **** *  ADC_WAIT_FOR_RESULT_INJ  -> Does not return until ADC completes injection
 443:.\Generated_Source\PSoC4/ADC_SAR_Seq.c **** *                              channel conversion
 444:.\Generated_Source\PSoC4/ADC_SAR_Seq.c **** *
 445:.\Generated_Source\PSoC4/ADC_SAR_Seq.c **** * Return:
 446:.\Generated_Source\PSoC4/ADC_SAR_Seq.c **** *  If a non-zero value is returned, the last conversion or scan has completed.
 447:.\Generated_Source\PSoC4/ADC_SAR_Seq.c **** *  If the returned value is zero, the ADC is still in the process of a scan.
 448:.\Generated_Source\PSoC4/ADC_SAR_Seq.c **** *
 449:.\Generated_Source\PSoC4/ADC_SAR_Seq.c **** *******************************************************************************/
 450:.\Generated_Source\PSoC4/ADC_SAR_Seq.c **** uint32 ADC_SAR_Seq_IsEndConversion(uint32 retMode)
 451:.\Generated_Source\PSoC4/ADC_SAR_Seq.c **** {
 363              		.loc 1 451 0
 364              		.cfi_startproc
 365              	.LVL13:
 366 0000 021C     		mov	r2, r0
 367              	.LVL14:
 452:.\Generated_Source\PSoC4/ADC_SAR_Seq.c ****     uint32 status = 0u;
 453:.\Generated_Source\PSoC4/ADC_SAR_Seq.c **** 
 454:.\Generated_Source\PSoC4/ADC_SAR_Seq.c ****     if((retMode & (ADC_SAR_Seq_RETURN_STATUS | ADC_SAR_Seq_WAIT_FOR_RESULT)) != 0u)
 368              		.loc 1 454 0
 369 0002 8307     		lsl	r3, r0, #30
 370 0004 0CD0     		beq	.L29
 371              	.LVL15:
 372              	.L28:
 455:.\Generated_Source\PSoC4/ADC_SAR_Seq.c ****     {
 456:.\Generated_Source\PSoC4/ADC_SAR_Seq.c ****         do
 457:.\Generated_Source\PSoC4/ADC_SAR_Seq.c ****         {
 458:.\Generated_Source\PSoC4/ADC_SAR_Seq.c ****             status = ADC_SAR_Seq_SAR_INTR_REG & ADC_SAR_Seq_EOS_MASK;
 373              		.loc 1 458 0 discriminator 2
 374 0006 074B     		ldr	r3, .L30
 375 0008 1B68     		ldr	r3, [r3]
 376 000a 0120     		mov	r0, #1
 377 000c 1840     		and	r0, r3
 378              	.LVL16:
 459:.\Generated_Source\PSoC4/ADC_SAR_Seq.c ****         }while((status == 0u) && ((retMode & ADC_SAR_Seq_WAIT_FOR_RESULT) != 0u));
 379              		.loc 1 459 0 discriminator 2
 380 000e 01D1     		bne	.L27
 381              		.loc 1 459 0 is_stmt 0 discriminator 1
 382 0010 9307     		lsl	r3, r2, #30
 383 0012 F8D4     		bmi	.L28
 384              	.L27:
 460:.\Generated_Source\PSoC4/ADC_SAR_Seq.c **** 
 461:.\Generated_Source\PSoC4/ADC_SAR_Seq.c ****         if(status != 0u)
ARM GAS  C:\Users\ÑÏÍþºÀ\AppData\Local\Temp\ccgCcFYV.s 			page 16


 385              		.loc 1 461 0 is_stmt 1
 386 0014 0028     		cmp	r0, #0
 387 0016 04D0     		beq	.L26
 462:.\Generated_Source\PSoC4/ADC_SAR_Seq.c ****         {
 463:.\Generated_Source\PSoC4/ADC_SAR_Seq.c ****             /* Clear EOS bit */
 464:.\Generated_Source\PSoC4/ADC_SAR_Seq.c ****             ADC_SAR_Seq_SAR_INTR_REG = ADC_SAR_Seq_EOS_MASK;
 388              		.loc 1 464 0
 389 0018 0122     		mov	r2, #1
 390              	.LVL17:
 391 001a 024B     		ldr	r3, .L30
 392 001c 1A60     		str	r2, [r3]
 393 001e 00E0     		b	.L26
 394              	.LVL18:
 395              	.L29:
 452:.\Generated_Source\PSoC4/ADC_SAR_Seq.c **** 
 396              		.loc 1 452 0
 397 0020 0020     		mov	r0, #0
 398              	.LVL19:
 399              	.L26:
 465:.\Generated_Source\PSoC4/ADC_SAR_Seq.c ****         }
 466:.\Generated_Source\PSoC4/ADC_SAR_Seq.c ****     }
 467:.\Generated_Source\PSoC4/ADC_SAR_Seq.c **** 
 468:.\Generated_Source\PSoC4/ADC_SAR_Seq.c ****     #if(ADC_SAR_Seq_INJ_CHANNEL_ENABLED)
 469:.\Generated_Source\PSoC4/ADC_SAR_Seq.c ****         if((retMode & (ADC_SAR_Seq_RETURN_STATUS_INJ | ADC_SAR_Seq_WAIT_FOR_RESULT_INJ)) != 0u)
 470:.\Generated_Source\PSoC4/ADC_SAR_Seq.c ****         {
 471:.\Generated_Source\PSoC4/ADC_SAR_Seq.c ****             do
 472:.\Generated_Source\PSoC4/ADC_SAR_Seq.c ****             {
 473:.\Generated_Source\PSoC4/ADC_SAR_Seq.c ****                 status |= ADC_SAR_Seq_SAR_INTR_REG & ADC_SAR_Seq_INJ_EOC_MASK;
 474:.\Generated_Source\PSoC4/ADC_SAR_Seq.c ****             }while(((status & ADC_SAR_Seq_INJ_EOC_MASK) == 0u) &&
 475:.\Generated_Source\PSoC4/ADC_SAR_Seq.c ****                    ((retMode & ADC_SAR_Seq_WAIT_FOR_RESULT_INJ) != 0u));
 476:.\Generated_Source\PSoC4/ADC_SAR_Seq.c **** 
 477:.\Generated_Source\PSoC4/ADC_SAR_Seq.c ****             if((status & ADC_SAR_Seq_INJ_EOC_MASK) != 0u)
 478:.\Generated_Source\PSoC4/ADC_SAR_Seq.c ****             {
 479:.\Generated_Source\PSoC4/ADC_SAR_Seq.c ****                 /* Clear Injection EOS bit */
 480:.\Generated_Source\PSoC4/ADC_SAR_Seq.c ****                 ADC_SAR_Seq_SAR_INTR_REG = ADC_SAR_Seq_INJ_EOC_MASK;
 481:.\Generated_Source\PSoC4/ADC_SAR_Seq.c ****             }
 482:.\Generated_Source\PSoC4/ADC_SAR_Seq.c ****         }
 483:.\Generated_Source\PSoC4/ADC_SAR_Seq.c ****     #endif /* ADC_SAR_Seq_INJ_CHANNEL_ENABLED */
 484:.\Generated_Source\PSoC4/ADC_SAR_Seq.c **** 
 485:.\Generated_Source\PSoC4/ADC_SAR_Seq.c ****     return (status);
 486:.\Generated_Source\PSoC4/ADC_SAR_Seq.c **** }
 400              		.loc 1 486 0
 401              		@ sp needed
 402 0022 7047     		bx	lr
 403              	.L31:
 404              		.align	2
 405              	.L30:
 406 0024 10021A40 		.word	1075446288
 407              		.cfi_endproc
 408              	.LFE6:
 409              		.size	ADC_SAR_Seq_IsEndConversion, .-ADC_SAR_Seq_IsEndConversion
 410              		.section	.text.ADC_SAR_Seq_GetResult16,"ax",%progbits
 411              		.align	2
 412              		.global	ADC_SAR_Seq_GetResult16
 413              		.code	16
 414              		.thumb_func
 415              		.type	ADC_SAR_Seq_GetResult16, %function
ARM GAS  C:\Users\ÑÏÍþºÀ\AppData\Local\Temp\ccgCcFYV.s 			page 17


 416              	ADC_SAR_Seq_GetResult16:
 417              	.LFB7:
 487:.\Generated_Source\PSoC4/ADC_SAR_Seq.c **** 
 488:.\Generated_Source\PSoC4/ADC_SAR_Seq.c **** 
 489:.\Generated_Source\PSoC4/ADC_SAR_Seq.c **** /*******************************************************************************
 490:.\Generated_Source\PSoC4/ADC_SAR_Seq.c **** * Function Name: ADC_SAR_Seq_GetResult16
 491:.\Generated_Source\PSoC4/ADC_SAR_Seq.c **** ********************************************************************************
 492:.\Generated_Source\PSoC4/ADC_SAR_Seq.c **** *
 493:.\Generated_Source\PSoC4/ADC_SAR_Seq.c **** * Summary:
 494:.\Generated_Source\PSoC4/ADC_SAR_Seq.c **** *  Gets the data available in the SAR DATA register.
 495:.\Generated_Source\PSoC4/ADC_SAR_Seq.c **** *
 496:.\Generated_Source\PSoC4/ADC_SAR_Seq.c **** * Parameters:
 497:.\Generated_Source\PSoC4/ADC_SAR_Seq.c **** *  chan: The ADC channel in which to return the result. The first channel
 498:.\Generated_Source\PSoC4/ADC_SAR_Seq.c **** *  is 0 and the injection channel if enabled is the number of valid channels.
 499:.\Generated_Source\PSoC4/ADC_SAR_Seq.c **** *
 500:.\Generated_Source\PSoC4/ADC_SAR_Seq.c **** * Return:
 501:.\Generated_Source\PSoC4/ADC_SAR_Seq.c **** *  Returns converted data as a signed 16-bit integer
 502:.\Generated_Source\PSoC4/ADC_SAR_Seq.c **** *
 503:.\Generated_Source\PSoC4/ADC_SAR_Seq.c **** *******************************************************************************/
 504:.\Generated_Source\PSoC4/ADC_SAR_Seq.c **** int16 ADC_SAR_Seq_GetResult16(uint32 chan)
 505:.\Generated_Source\PSoC4/ADC_SAR_Seq.c **** {
 418              		.loc 1 505 0
 419              		.cfi_startproc
 420              	.LVL20:
 421 0000 10B5     		push	{r4, lr}
 422              		.cfi_def_cfa_offset 8
 423              		.cfi_offset 4, -8
 424              		.cfi_offset 14, -4
 425 0002 041E     		sub	r4, r0, #0
 506:.\Generated_Source\PSoC4/ADC_SAR_Seq.c ****     uint32 result;
 507:.\Generated_Source\PSoC4/ADC_SAR_Seq.c **** 
 508:.\Generated_Source\PSoC4/ADC_SAR_Seq.c ****     /* Halt CPU in debug mode if channel is out of valid range */
 509:.\Generated_Source\PSoC4/ADC_SAR_Seq.c ****     CYASSERT(chan < ADC_SAR_Seq_TOTAL_CHANNELS_NUM);
 426              		.loc 1 509 0
 427 0004 02D0     		beq	.L33
 428              		.loc 1 509 0 is_stmt 0 discriminator 1
 429 0006 0020     		mov	r0, #0
 430              	.LVL21:
 431 0008 FFF7FEFF 		bl	CyHalt
 432              	.LVL22:
 433              	.L33:
 510:.\Generated_Source\PSoC4/ADC_SAR_Seq.c **** 
 511:.\Generated_Source\PSoC4/ADC_SAR_Seq.c ****     if(chan < ADC_SAR_Seq_SEQUENCED_CHANNELS_NUM)
 434              		.loc 1 511 0 is_stmt 1
 435 000c 002C     		cmp	r4, #0
 436 000e 07D1     		bne	.L35
 512:.\Generated_Source\PSoC4/ADC_SAR_Seq.c ****     {
 513:.\Generated_Source\PSoC4/ADC_SAR_Seq.c ****         result = CY_GET_REG32((reg32 *)(ADC_SAR_Seq_SAR_CHAN_RESULT_IND + (uint32)(chan << 2u))) &
 437              		.loc 1 513 0
 438 0010 A400     		lsl	r4, r4, #2
 439              	.LVL23:
 440 0012 054B     		ldr	r3, .L36
 441 0014 9C46     		mov	ip, r3
 442 0016 6444     		add	r4, r4, ip
 443 0018 2068     		ldr	r0, [r4]
 444 001a 0004     		lsl	r0, r0, #16
 445 001c 000C     		lsr	r0, r0, #16
ARM GAS  C:\Users\ÑÏÍþºÀ\AppData\Local\Temp\ccgCcFYV.s 			page 18


 446              	.LVL24:
 447 001e 00E0     		b	.L34
 448              	.LVL25:
 449              	.L35:
 514:.\Generated_Source\PSoC4/ADC_SAR_Seq.c ****                 ADC_SAR_Seq_RESULT_MASK;
 515:.\Generated_Source\PSoC4/ADC_SAR_Seq.c ****     }
 516:.\Generated_Source\PSoC4/ADC_SAR_Seq.c ****     else
 517:.\Generated_Source\PSoC4/ADC_SAR_Seq.c ****     {
 518:.\Generated_Source\PSoC4/ADC_SAR_Seq.c ****         #if(ADC_SAR_Seq_INJ_CHANNEL_ENABLED)
 519:.\Generated_Source\PSoC4/ADC_SAR_Seq.c ****             result = ADC_SAR_Seq_SAR_INJ_RESULT_REG & ADC_SAR_Seq_RESULT_MASK;
 520:.\Generated_Source\PSoC4/ADC_SAR_Seq.c ****         #else
 521:.\Generated_Source\PSoC4/ADC_SAR_Seq.c ****             result = 0u;
 450              		.loc 1 521 0
 451 0020 0020     		mov	r0, #0
 452              	.LVL26:
 453              	.L34:
 522:.\Generated_Source\PSoC4/ADC_SAR_Seq.c ****         #endif /* ADC_SAR_Seq_INJ_CHANNEL_ENABLED */
 523:.\Generated_Source\PSoC4/ADC_SAR_Seq.c ****     }
 524:.\Generated_Source\PSoC4/ADC_SAR_Seq.c **** 
 525:.\Generated_Source\PSoC4/ADC_SAR_Seq.c ****     return ( (int16)result );
 454              		.loc 1 525 0
 455 0022 00B2     		sxth	r0, r0
 456              	.LVL27:
 526:.\Generated_Source\PSoC4/ADC_SAR_Seq.c **** }
 457              		.loc 1 526 0
 458              		@ sp needed
 459 0024 10BD     		pop	{r4, pc}
 460              	.L37:
 461 0026 C046     		.align	2
 462              	.L36:
 463 0028 80011A40 		.word	1075446144
 464              		.cfi_endproc
 465              	.LFE7:
 466              		.size	ADC_SAR_Seq_GetResult16, .-ADC_SAR_Seq_GetResult16
 467              		.section	.text.ADC_SAR_Seq_SetChanMask,"ax",%progbits
 468              		.align	2
 469              		.global	ADC_SAR_Seq_SetChanMask
 470              		.code	16
 471              		.thumb_func
 472              		.type	ADC_SAR_Seq_SetChanMask, %function
 473              	ADC_SAR_Seq_SetChanMask:
 474              	.LFB8:
 527:.\Generated_Source\PSoC4/ADC_SAR_Seq.c **** 
 528:.\Generated_Source\PSoC4/ADC_SAR_Seq.c **** 
 529:.\Generated_Source\PSoC4/ADC_SAR_Seq.c **** /*******************************************************************************
 530:.\Generated_Source\PSoC4/ADC_SAR_Seq.c **** * Function Name: ADC_SAR_Seq_SetChanMask
 531:.\Generated_Source\PSoC4/ADC_SAR_Seq.c **** ********************************************************************************
 532:.\Generated_Source\PSoC4/ADC_SAR_Seq.c **** *
 533:.\Generated_Source\PSoC4/ADC_SAR_Seq.c **** * Summary:
 534:.\Generated_Source\PSoC4/ADC_SAR_Seq.c **** *  Sets the channel enable mask.
 535:.\Generated_Source\PSoC4/ADC_SAR_Seq.c **** *
 536:.\Generated_Source\PSoC4/ADC_SAR_Seq.c **** * Parameters:
 537:.\Generated_Source\PSoC4/ADC_SAR_Seq.c **** *  mask: Sets which channels that will be
 538:.\Generated_Source\PSoC4/ADC_SAR_Seq.c **** *  scanned. Setting bits for channels that do not exist will have no
 539:.\Generated_Source\PSoC4/ADC_SAR_Seq.c **** *  effect. For example, if only 6 channels were enabled, setting a
 540:.\Generated_Source\PSoC4/ADC_SAR_Seq.c **** *  mask of 0x0103 would only enable the last two channels (0 and 1).
 541:.\Generated_Source\PSoC4/ADC_SAR_Seq.c **** *  This API will not enable the injection channel.
ARM GAS  C:\Users\ÑÏÍþºÀ\AppData\Local\Temp\ccgCcFYV.s 			page 19


 542:.\Generated_Source\PSoC4/ADC_SAR_Seq.c **** *  Examples: If the component is setup to sequence through 8
 543:.\Generated_Source\PSoC4/ADC_SAR_Seq.c **** *  channels, a mask of 0x000F would enable channels 0, 1, 2, and 3.
 544:.\Generated_Source\PSoC4/ADC_SAR_Seq.c **** *
 545:.\Generated_Source\PSoC4/ADC_SAR_Seq.c **** * Return:
 546:.\Generated_Source\PSoC4/ADC_SAR_Seq.c **** *  None.
 547:.\Generated_Source\PSoC4/ADC_SAR_Seq.c **** *
 548:.\Generated_Source\PSoC4/ADC_SAR_Seq.c **** *******************************************************************************/
 549:.\Generated_Source\PSoC4/ADC_SAR_Seq.c **** void ADC_SAR_Seq_SetChanMask(uint32 mask)
 550:.\Generated_Source\PSoC4/ADC_SAR_Seq.c **** {
 475              		.loc 1 550 0
 476              		.cfi_startproc
 477              	.LVL28:
 551:.\Generated_Source\PSoC4/ADC_SAR_Seq.c ****     ADC_SAR_Seq_SAR_CHAN_EN_REG = mask & ADC_SAR_Seq_MAX_CHANNELS_EN_MASK;
 478              		.loc 1 551 0
 479 0000 0123     		mov	r3, #1
 480 0002 1840     		and	r0, r3
 481              	.LVL29:
 482 0004 014B     		ldr	r3, .L39
 483 0006 1860     		str	r0, [r3]
 552:.\Generated_Source\PSoC4/ADC_SAR_Seq.c **** }
 484              		.loc 1 552 0
 485              		@ sp needed
 486 0008 7047     		bx	lr
 487              	.L40:
 488 000a C046     		.align	2
 489              	.L39:
 490 000c 20001A40 		.word	1075445792
 491              		.cfi_endproc
 492              	.LFE8:
 493              		.size	ADC_SAR_Seq_SetChanMask, .-ADC_SAR_Seq_SetChanMask
 494              		.section	.text.ADC_SAR_Seq_SetLowLimit,"ax",%progbits
 495              		.align	2
 496              		.global	ADC_SAR_Seq_SetLowLimit
 497              		.code	16
 498              		.thumb_func
 499              		.type	ADC_SAR_Seq_SetLowLimit, %function
 500              	ADC_SAR_Seq_SetLowLimit:
 501              	.LFB9:
 553:.\Generated_Source\PSoC4/ADC_SAR_Seq.c **** 
 554:.\Generated_Source\PSoC4/ADC_SAR_Seq.c **** #if(ADC_SAR_Seq_INJ_CHANNEL_ENABLED)
 555:.\Generated_Source\PSoC4/ADC_SAR_Seq.c **** 
 556:.\Generated_Source\PSoC4/ADC_SAR_Seq.c **** 
 557:.\Generated_Source\PSoC4/ADC_SAR_Seq.c ****     /*******************************************************************************
 558:.\Generated_Source\PSoC4/ADC_SAR_Seq.c ****     * Function Name: ADC_SAR_Seq_EnableInjection
 559:.\Generated_Source\PSoC4/ADC_SAR_Seq.c ****     ********************************************************************************
 560:.\Generated_Source\PSoC4/ADC_SAR_Seq.c ****     *
 561:.\Generated_Source\PSoC4/ADC_SAR_Seq.c ****     * Summary:
 562:.\Generated_Source\PSoC4/ADC_SAR_Seq.c ****     *  Enables the injection channel for the next scan only.
 563:.\Generated_Source\PSoC4/ADC_SAR_Seq.c ****     *
 564:.\Generated_Source\PSoC4/ADC_SAR_Seq.c ****     * Parameters:
 565:.\Generated_Source\PSoC4/ADC_SAR_Seq.c ****     *  None.
 566:.\Generated_Source\PSoC4/ADC_SAR_Seq.c ****     *
 567:.\Generated_Source\PSoC4/ADC_SAR_Seq.c ****     * Return:
 568:.\Generated_Source\PSoC4/ADC_SAR_Seq.c ****     *  None.
 569:.\Generated_Source\PSoC4/ADC_SAR_Seq.c ****     *
 570:.\Generated_Source\PSoC4/ADC_SAR_Seq.c ****     *******************************************************************************/
 571:.\Generated_Source\PSoC4/ADC_SAR_Seq.c ****     void ADC_SAR_Seq_EnableInjection(void)
ARM GAS  C:\Users\ÑÏÍþºÀ\AppData\Local\Temp\ccgCcFYV.s 			page 20


 572:.\Generated_Source\PSoC4/ADC_SAR_Seq.c ****     {
 573:.\Generated_Source\PSoC4/ADC_SAR_Seq.c ****         ADC_SAR_Seq_SAR_INJ_CHAN_CONFIG_REG |= ADC_SAR_Seq_INJ_CHAN_EN;
 574:.\Generated_Source\PSoC4/ADC_SAR_Seq.c ****     }
 575:.\Generated_Source\PSoC4/ADC_SAR_Seq.c **** 
 576:.\Generated_Source\PSoC4/ADC_SAR_Seq.c **** #endif /* ADC_SAR_Seq_INJ_CHANNEL_ENABLED */
 577:.\Generated_Source\PSoC4/ADC_SAR_Seq.c **** 
 578:.\Generated_Source\PSoC4/ADC_SAR_Seq.c **** 
 579:.\Generated_Source\PSoC4/ADC_SAR_Seq.c **** /*******************************************************************************
 580:.\Generated_Source\PSoC4/ADC_SAR_Seq.c **** * Function Name: ADC_SAR_Seq_SetLowLimit
 581:.\Generated_Source\PSoC4/ADC_SAR_Seq.c **** ********************************************************************************
 582:.\Generated_Source\PSoC4/ADC_SAR_Seq.c **** *
 583:.\Generated_Source\PSoC4/ADC_SAR_Seq.c **** * Summary:
 584:.\Generated_Source\PSoC4/ADC_SAR_Seq.c **** *  Sets the low limit parameter for a limit condition.
 585:.\Generated_Source\PSoC4/ADC_SAR_Seq.c **** *
 586:.\Generated_Source\PSoC4/ADC_SAR_Seq.c **** * Parameters:
 587:.\Generated_Source\PSoC4/ADC_SAR_Seq.c **** *  lowLimit: The low limit for a limit condition.
 588:.\Generated_Source\PSoC4/ADC_SAR_Seq.c **** *
 589:.\Generated_Source\PSoC4/ADC_SAR_Seq.c **** * Return:
 590:.\Generated_Source\PSoC4/ADC_SAR_Seq.c **** *  None.
 591:.\Generated_Source\PSoC4/ADC_SAR_Seq.c **** *
 592:.\Generated_Source\PSoC4/ADC_SAR_Seq.c **** *******************************************************************************/
 593:.\Generated_Source\PSoC4/ADC_SAR_Seq.c **** void ADC_SAR_Seq_SetLowLimit(uint32 lowLimit)
 594:.\Generated_Source\PSoC4/ADC_SAR_Seq.c **** {
 502              		.loc 1 594 0
 503              		.cfi_startproc
 504              	.LVL30:
 595:.\Generated_Source\PSoC4/ADC_SAR_Seq.c ****     ADC_SAR_Seq_SAR_RANGE_THRES_REG &= (uint32)(~ADC_SAR_Seq_RANGE_LOW_MASK);
 505              		.loc 1 595 0
 506 0000 054A     		ldr	r2, .L42
 507 0002 1368     		ldr	r3, [r2]
 508 0004 1B0C     		lsr	r3, r3, #16
 509 0006 1B04     		lsl	r3, r3, #16
 510 0008 1360     		str	r3, [r2]
 596:.\Generated_Source\PSoC4/ADC_SAR_Seq.c ****     ADC_SAR_Seq_SAR_RANGE_THRES_REG |= lowLimit & ADC_SAR_Seq_RANGE_LOW_MASK;
 511              		.loc 1 596 0
 512 000a 1368     		ldr	r3, [r2]
 513 000c 0004     		lsl	r0, r0, #16
 514              	.LVL31:
 515 000e 000C     		lsr	r0, r0, #16
 516 0010 1843     		orr	r0, r3
 517 0012 1060     		str	r0, [r2]
 597:.\Generated_Source\PSoC4/ADC_SAR_Seq.c **** }
 518              		.loc 1 597 0
 519              		@ sp needed
 520 0014 7047     		bx	lr
 521              	.L43:
 522 0016 C046     		.align	2
 523              	.L42:
 524 0018 18001A40 		.word	1075445784
 525              		.cfi_endproc
 526              	.LFE9:
 527              		.size	ADC_SAR_Seq_SetLowLimit, .-ADC_SAR_Seq_SetLowLimit
 528              		.section	.text.ADC_SAR_Seq_SetHighLimit,"ax",%progbits
 529              		.align	2
 530              		.global	ADC_SAR_Seq_SetHighLimit
 531              		.code	16
 532              		.thumb_func
ARM GAS  C:\Users\ÑÏÍþºÀ\AppData\Local\Temp\ccgCcFYV.s 			page 21


 533              		.type	ADC_SAR_Seq_SetHighLimit, %function
 534              	ADC_SAR_Seq_SetHighLimit:
 535              	.LFB10:
 598:.\Generated_Source\PSoC4/ADC_SAR_Seq.c **** 
 599:.\Generated_Source\PSoC4/ADC_SAR_Seq.c **** 
 600:.\Generated_Source\PSoC4/ADC_SAR_Seq.c **** /*******************************************************************************
 601:.\Generated_Source\PSoC4/ADC_SAR_Seq.c **** * Function Name: ADC_SAR_Seq_SetHighLimit
 602:.\Generated_Source\PSoC4/ADC_SAR_Seq.c **** ********************************************************************************
 603:.\Generated_Source\PSoC4/ADC_SAR_Seq.c **** *
 604:.\Generated_Source\PSoC4/ADC_SAR_Seq.c **** * Summary:
 605:.\Generated_Source\PSoC4/ADC_SAR_Seq.c **** *  Sets the low limit parameter for a limit condition.
 606:.\Generated_Source\PSoC4/ADC_SAR_Seq.c **** *
 607:.\Generated_Source\PSoC4/ADC_SAR_Seq.c **** * Parameters:
 608:.\Generated_Source\PSoC4/ADC_SAR_Seq.c **** *  highLimit: The high limit for a limit condition.
 609:.\Generated_Source\PSoC4/ADC_SAR_Seq.c **** *
 610:.\Generated_Source\PSoC4/ADC_SAR_Seq.c **** * Return:
 611:.\Generated_Source\PSoC4/ADC_SAR_Seq.c **** *  None.
 612:.\Generated_Source\PSoC4/ADC_SAR_Seq.c **** *
 613:.\Generated_Source\PSoC4/ADC_SAR_Seq.c **** *******************************************************************************/
 614:.\Generated_Source\PSoC4/ADC_SAR_Seq.c **** void ADC_SAR_Seq_SetHighLimit(uint32 highLimit)
 615:.\Generated_Source\PSoC4/ADC_SAR_Seq.c **** {
 536              		.loc 1 615 0
 537              		.cfi_startproc
 538              	.LVL32:
 616:.\Generated_Source\PSoC4/ADC_SAR_Seq.c ****     ADC_SAR_Seq_SAR_RANGE_THRES_REG &= (uint32)(~ADC_SAR_Seq_RANGE_HIGH_MASK);
 539              		.loc 1 616 0
 540 0000 044A     		ldr	r2, .L45
 541 0002 1368     		ldr	r3, [r2]
 542 0004 1B04     		lsl	r3, r3, #16
 543 0006 1B0C     		lsr	r3, r3, #16
 544 0008 1360     		str	r3, [r2]
 617:.\Generated_Source\PSoC4/ADC_SAR_Seq.c ****     ADC_SAR_Seq_SAR_RANGE_THRES_REG |= (uint32)(highLimit << ADC_SAR_Seq_RANGE_HIGH_OFFSET);
 545              		.loc 1 617 0
 546 000a 1368     		ldr	r3, [r2]
 547 000c 0004     		lsl	r0, r0, #16
 548              	.LVL33:
 549 000e 1843     		orr	r0, r3
 550 0010 1060     		str	r0, [r2]
 618:.\Generated_Source\PSoC4/ADC_SAR_Seq.c **** }
 551              		.loc 1 618 0
 552              		@ sp needed
 553 0012 7047     		bx	lr
 554              	.L46:
 555              		.align	2
 556              	.L45:
 557 0014 18001A40 		.word	1075445784
 558              		.cfi_endproc
 559              	.LFE10:
 560              		.size	ADC_SAR_Seq_SetHighLimit, .-ADC_SAR_Seq_SetHighLimit
 561              		.section	.text.ADC_SAR_Seq_SetLimitMask,"ax",%progbits
 562              		.align	2
 563              		.global	ADC_SAR_Seq_SetLimitMask
 564              		.code	16
 565              		.thumb_func
 566              		.type	ADC_SAR_Seq_SetLimitMask, %function
 567              	ADC_SAR_Seq_SetLimitMask:
 568              	.LFB11:
ARM GAS  C:\Users\ÑÏÍþºÀ\AppData\Local\Temp\ccgCcFYV.s 			page 22


 619:.\Generated_Source\PSoC4/ADC_SAR_Seq.c **** 
 620:.\Generated_Source\PSoC4/ADC_SAR_Seq.c **** 
 621:.\Generated_Source\PSoC4/ADC_SAR_Seq.c **** /*******************************************************************************
 622:.\Generated_Source\PSoC4/ADC_SAR_Seq.c **** * Function Name: ADC_SAR_Seq_SetLimitMask
 623:.\Generated_Source\PSoC4/ADC_SAR_Seq.c **** ********************************************************************************
 624:.\Generated_Source\PSoC4/ADC_SAR_Seq.c **** *
 625:.\Generated_Source\PSoC4/ADC_SAR_Seq.c **** * Summary:
 626:.\Generated_Source\PSoC4/ADC_SAR_Seq.c **** *  Sets the channel limit condition mask.
 627:.\Generated_Source\PSoC4/ADC_SAR_Seq.c **** *
 628:.\Generated_Source\PSoC4/ADC_SAR_Seq.c **** * Parameters:
 629:.\Generated_Source\PSoC4/ADC_SAR_Seq.c **** *  mask: Sets which channels that may cause a
 630:.\Generated_Source\PSoC4/ADC_SAR_Seq.c **** *  limit condition interrupt. Setting bits for channels that do not exist
 631:.\Generated_Source\PSoC4/ADC_SAR_Seq.c **** *  will have no effect. For example, if only 6 channels were enabled,
 632:.\Generated_Source\PSoC4/ADC_SAR_Seq.c **** *  setting a mask of 0x0103 would only enable the last two channels (0 and 1).
 633:.\Generated_Source\PSoC4/ADC_SAR_Seq.c **** *
 634:.\Generated_Source\PSoC4/ADC_SAR_Seq.c **** * Return:
 635:.\Generated_Source\PSoC4/ADC_SAR_Seq.c **** *  None.
 636:.\Generated_Source\PSoC4/ADC_SAR_Seq.c **** *
 637:.\Generated_Source\PSoC4/ADC_SAR_Seq.c **** *******************************************************************************/
 638:.\Generated_Source\PSoC4/ADC_SAR_Seq.c **** void ADC_SAR_Seq_SetLimitMask(uint32 mask)
 639:.\Generated_Source\PSoC4/ADC_SAR_Seq.c **** {
 569              		.loc 1 639 0
 570              		.cfi_startproc
 571              	.LVL34:
 640:.\Generated_Source\PSoC4/ADC_SAR_Seq.c ****     ADC_SAR_Seq_SAR_RANGE_INTR_MASK_REG = mask & ADC_SAR_Seq_MAX_CHANNELS_EN_MASK;
 572              		.loc 1 640 0
 573 0000 0123     		mov	r3, #1
 574 0002 1840     		and	r0, r3
 575              	.LVL35:
 576 0004 014B     		ldr	r3, .L48
 577 0006 1860     		str	r0, [r3]
 641:.\Generated_Source\PSoC4/ADC_SAR_Seq.c **** }
 578              		.loc 1 641 0
 579              		@ sp needed
 580 0008 7047     		bx	lr
 581              	.L49:
 582 000a C046     		.align	2
 583              	.L48:
 584 000c 38021A40 		.word	1075446328
 585              		.cfi_endproc
 586              	.LFE11:
 587              		.size	ADC_SAR_Seq_SetLimitMask, .-ADC_SAR_Seq_SetLimitMask
 588              		.section	.text.ADC_SAR_Seq_SetSatMask,"ax",%progbits
 589              		.align	2
 590              		.global	ADC_SAR_Seq_SetSatMask
 591              		.code	16
 592              		.thumb_func
 593              		.type	ADC_SAR_Seq_SetSatMask, %function
 594              	ADC_SAR_Seq_SetSatMask:
 595              	.LFB12:
 642:.\Generated_Source\PSoC4/ADC_SAR_Seq.c **** 
 643:.\Generated_Source\PSoC4/ADC_SAR_Seq.c **** 
 644:.\Generated_Source\PSoC4/ADC_SAR_Seq.c **** /*******************************************************************************
 645:.\Generated_Source\PSoC4/ADC_SAR_Seq.c **** * Function Name: ADC_SAR_Seq_SetSatMask
 646:.\Generated_Source\PSoC4/ADC_SAR_Seq.c **** ********************************************************************************
 647:.\Generated_Source\PSoC4/ADC_SAR_Seq.c **** *
 648:.\Generated_Source\PSoC4/ADC_SAR_Seq.c **** * Summary:
ARM GAS  C:\Users\ÑÏÍþºÀ\AppData\Local\Temp\ccgCcFYV.s 			page 23


 649:.\Generated_Source\PSoC4/ADC_SAR_Seq.c **** *  Sets the channel saturation event mask.
 650:.\Generated_Source\PSoC4/ADC_SAR_Seq.c **** *
 651:.\Generated_Source\PSoC4/ADC_SAR_Seq.c **** * Parameters:
 652:.\Generated_Source\PSoC4/ADC_SAR_Seq.c **** *  mask: Sets which channels that may cause a
 653:.\Generated_Source\PSoC4/ADC_SAR_Seq.c **** *  saturation event interrupt. Setting bits for channels that do not exist
 654:.\Generated_Source\PSoC4/ADC_SAR_Seq.c **** *  will have no effect. For example, if only 8 channels were enabled,
 655:.\Generated_Source\PSoC4/ADC_SAR_Seq.c **** *  setting a mask of 0x01C0 would only enable two channels (6 and 7).
 656:.\Generated_Source\PSoC4/ADC_SAR_Seq.c **** *
 657:.\Generated_Source\PSoC4/ADC_SAR_Seq.c **** * Return:
 658:.\Generated_Source\PSoC4/ADC_SAR_Seq.c **** *  None.
 659:.\Generated_Source\PSoC4/ADC_SAR_Seq.c **** *
 660:.\Generated_Source\PSoC4/ADC_SAR_Seq.c **** *******************************************************************************/
 661:.\Generated_Source\PSoC4/ADC_SAR_Seq.c **** void ADC_SAR_Seq_SetSatMask(uint32 mask)
 662:.\Generated_Source\PSoC4/ADC_SAR_Seq.c **** {
 596              		.loc 1 662 0
 597              		.cfi_startproc
 598              	.LVL36:
 663:.\Generated_Source\PSoC4/ADC_SAR_Seq.c ****     ADC_SAR_Seq_SAR_SATURATE_INTR_MASK_REG = mask & ADC_SAR_Seq_MAX_CHANNELS_EN_MASK;
 599              		.loc 1 663 0
 600 0000 0123     		mov	r3, #1
 601 0002 1840     		and	r0, r3
 602              	.LVL37:
 603 0004 014B     		ldr	r3, .L51
 604 0006 1860     		str	r0, [r3]
 664:.\Generated_Source\PSoC4/ADC_SAR_Seq.c **** }
 605              		.loc 1 664 0
 606              		@ sp needed
 607 0008 7047     		bx	lr
 608              	.L52:
 609 000a C046     		.align	2
 610              	.L51:
 611 000c 28021A40 		.word	1075446312
 612              		.cfi_endproc
 613              	.LFE12:
 614              		.size	ADC_SAR_Seq_SetSatMask, .-ADC_SAR_Seq_SetSatMask
 615              		.section	.text.ADC_SAR_Seq_SetOffset,"ax",%progbits
 616              		.align	2
 617              		.global	ADC_SAR_Seq_SetOffset
 618              		.code	16
 619              		.thumb_func
 620              		.type	ADC_SAR_Seq_SetOffset, %function
 621              	ADC_SAR_Seq_SetOffset:
 622              	.LFB13:
 665:.\Generated_Source\PSoC4/ADC_SAR_Seq.c **** 
 666:.\Generated_Source\PSoC4/ADC_SAR_Seq.c **** 
 667:.\Generated_Source\PSoC4/ADC_SAR_Seq.c **** /*******************************************************************************
 668:.\Generated_Source\PSoC4/ADC_SAR_Seq.c **** * Function Name: ADC_SAR_Seq_SetOffset
 669:.\Generated_Source\PSoC4/ADC_SAR_Seq.c **** ********************************************************************************
 670:.\Generated_Source\PSoC4/ADC_SAR_Seq.c **** *
 671:.\Generated_Source\PSoC4/ADC_SAR_Seq.c **** * Summary:
 672:.\Generated_Source\PSoC4/ADC_SAR_Seq.c **** *   Description: Sets the ADC offset which is used by the functions
 673:.\Generated_Source\PSoC4/ADC_SAR_Seq.c **** *   ADC_CountsTo_uVolts, ADC_CountsTo_mVolts and ADC_CountsTo_Volts
 674:.\Generated_Source\PSoC4/ADC_SAR_Seq.c **** *   to substract the offset from the given reading
 675:.\Generated_Source\PSoC4/ADC_SAR_Seq.c **** *   before calculating the voltage conversion.
 676:.\Generated_Source\PSoC4/ADC_SAR_Seq.c **** *
 677:.\Generated_Source\PSoC4/ADC_SAR_Seq.c **** * Parameters:
 678:.\Generated_Source\PSoC4/ADC_SAR_Seq.c **** *  chan: ADC channel number.
ARM GAS  C:\Users\ÑÏÍþºÀ\AppData\Local\Temp\ccgCcFYV.s 			page 24


 679:.\Generated_Source\PSoC4/ADC_SAR_Seq.c **** *  offset: This value is a measured value when the
 680:.\Generated_Source\PSoC4/ADC_SAR_Seq.c **** *          inputs are shorted or connected to the same input voltage.
 681:.\Generated_Source\PSoC4/ADC_SAR_Seq.c **** *
 682:.\Generated_Source\PSoC4/ADC_SAR_Seq.c **** * Return:
 683:.\Generated_Source\PSoC4/ADC_SAR_Seq.c **** *  None.
 684:.\Generated_Source\PSoC4/ADC_SAR_Seq.c **** *
 685:.\Generated_Source\PSoC4/ADC_SAR_Seq.c **** * Global variables:
 686:.\Generated_Source\PSoC4/ADC_SAR_Seq.c **** *  ADC_SAR_Seq_Offset:  Modified to set the user provided offset.
 687:.\Generated_Source\PSoC4/ADC_SAR_Seq.c **** *
 688:.\Generated_Source\PSoC4/ADC_SAR_Seq.c **** *******************************************************************************/
 689:.\Generated_Source\PSoC4/ADC_SAR_Seq.c **** void ADC_SAR_Seq_SetOffset(uint32 chan, int16 offset)
 690:.\Generated_Source\PSoC4/ADC_SAR_Seq.c **** {
 623              		.loc 1 690 0
 624              		.cfi_startproc
 625              	.LVL38:
 626 0000 38B5     		push	{r3, r4, r5, lr}
 627              		.cfi_def_cfa_offset 16
 628              		.cfi_offset 3, -16
 629              		.cfi_offset 4, -12
 630              		.cfi_offset 5, -8
 631              		.cfi_offset 14, -4
 632 0002 041C     		mov	r4, r0
 633 0004 0D1C     		mov	r5, r1
 691:.\Generated_Source\PSoC4/ADC_SAR_Seq.c ****     /* Halt CPU in debug mode if channel is out of valid range */
 692:.\Generated_Source\PSoC4/ADC_SAR_Seq.c ****     CYASSERT(chan < ADC_SAR_Seq_TOTAL_CHANNELS_NUM);
 634              		.loc 1 692 0
 635 0006 0028     		cmp	r0, #0
 636 0008 02D0     		beq	.L54
 637              		.loc 1 692 0 is_stmt 0 discriminator 1
 638 000a 0020     		mov	r0, #0
 639              	.LVL39:
 640 000c FFF7FEFF 		bl	CyHalt
 641              	.LVL40:
 642              	.L54:
 693:.\Generated_Source\PSoC4/ADC_SAR_Seq.c **** 
 694:.\Generated_Source\PSoC4/ADC_SAR_Seq.c ****     ADC_SAR_Seq_offset[chan] = offset;
 643              		.loc 1 694 0 is_stmt 1
 644 0010 6400     		lsl	r4, r4, #1
 645              	.LVL41:
 646 0012 014B     		ldr	r3, .L55
 647 0014 E552     		strh	r5, [r4, r3]
 695:.\Generated_Source\PSoC4/ADC_SAR_Seq.c **** }
 648              		.loc 1 695 0
 649              		@ sp needed
 650 0016 38BD     		pop	{r3, r4, r5, pc}
 651              	.L56:
 652              		.align	2
 653              	.L55:
 654 0018 00000000 		.word	ADC_SAR_Seq_offset
 655              		.cfi_endproc
 656              	.LFE13:
 657              		.size	ADC_SAR_Seq_SetOffset, .-ADC_SAR_Seq_SetOffset
 658              		.section	.text.ADC_SAR_Seq_SetGain,"ax",%progbits
 659              		.align	2
 660              		.global	ADC_SAR_Seq_SetGain
 661              		.code	16
 662              		.thumb_func
ARM GAS  C:\Users\ÑÏÍþºÀ\AppData\Local\Temp\ccgCcFYV.s 			page 25


 663              		.type	ADC_SAR_Seq_SetGain, %function
 664              	ADC_SAR_Seq_SetGain:
 665              	.LFB14:
 696:.\Generated_Source\PSoC4/ADC_SAR_Seq.c **** 
 697:.\Generated_Source\PSoC4/ADC_SAR_Seq.c **** 
 698:.\Generated_Source\PSoC4/ADC_SAR_Seq.c **** /*******************************************************************************
 699:.\Generated_Source\PSoC4/ADC_SAR_Seq.c **** * Function Name: ADC_SAR_Seq_SetGain
 700:.\Generated_Source\PSoC4/ADC_SAR_Seq.c **** ********************************************************************************
 701:.\Generated_Source\PSoC4/ADC_SAR_Seq.c **** *
 702:.\Generated_Source\PSoC4/ADC_SAR_Seq.c **** * Summary:
 703:.\Generated_Source\PSoC4/ADC_SAR_Seq.c **** *  Description: Sets the ADC gain in counts per 10 volt for the voltage
 704:.\Generated_Source\PSoC4/ADC_SAR_Seq.c **** *  conversion functions below. This value is set by default by the
 705:.\Generated_Source\PSoC4/ADC_SAR_Seq.c **** *  reference and input range settings. It should only be used to further
 706:.\Generated_Source\PSoC4/ADC_SAR_Seq.c **** *  calibrate the ADC with a known input or if an external reference is
 707:.\Generated_Source\PSoC4/ADC_SAR_Seq.c **** *  used. Affects the ADC_CountsTo_uVolts, ADC_CountsTo_mVolts
 708:.\Generated_Source\PSoC4/ADC_SAR_Seq.c **** *  and ADC_CountsTo_Volts functions by supplying the correct
 709:.\Generated_Source\PSoC4/ADC_SAR_Seq.c **** *  conversion between ADC counts and voltage.
 710:.\Generated_Source\PSoC4/ADC_SAR_Seq.c **** *
 711:.\Generated_Source\PSoC4/ADC_SAR_Seq.c **** * Parameters:
 712:.\Generated_Source\PSoC4/ADC_SAR_Seq.c **** *  chan: ADC channel number.
 713:.\Generated_Source\PSoC4/ADC_SAR_Seq.c **** *  adcGain: ADC gain in counts per 10 volts.
 714:.\Generated_Source\PSoC4/ADC_SAR_Seq.c **** *
 715:.\Generated_Source\PSoC4/ADC_SAR_Seq.c **** * Return:
 716:.\Generated_Source\PSoC4/ADC_SAR_Seq.c **** *  None.
 717:.\Generated_Source\PSoC4/ADC_SAR_Seq.c **** *
 718:.\Generated_Source\PSoC4/ADC_SAR_Seq.c **** * Global variables:
 719:.\Generated_Source\PSoC4/ADC_SAR_Seq.c **** *  ADC_SAR_Seq_CountsPer10Volt:  modified to set the ADC gain in counts
 720:.\Generated_Source\PSoC4/ADC_SAR_Seq.c **** *   per 10 volt.
 721:.\Generated_Source\PSoC4/ADC_SAR_Seq.c **** *
 722:.\Generated_Source\PSoC4/ADC_SAR_Seq.c **** *******************************************************************************/
 723:.\Generated_Source\PSoC4/ADC_SAR_Seq.c **** void ADC_SAR_Seq_SetGain(uint32 chan, int32 adcGain)
 724:.\Generated_Source\PSoC4/ADC_SAR_Seq.c **** {
 666              		.loc 1 724 0
 667              		.cfi_startproc
 668              	.LVL42:
 669 0000 38B5     		push	{r3, r4, r5, lr}
 670              		.cfi_def_cfa_offset 16
 671              		.cfi_offset 3, -16
 672              		.cfi_offset 4, -12
 673              		.cfi_offset 5, -8
 674              		.cfi_offset 14, -4
 675 0002 041C     		mov	r4, r0
 676 0004 0D1C     		mov	r5, r1
 725:.\Generated_Source\PSoC4/ADC_SAR_Seq.c ****     /* Halt CPU in debug mode if channel is out of valid range */
 726:.\Generated_Source\PSoC4/ADC_SAR_Seq.c ****     CYASSERT(chan < ADC_SAR_Seq_TOTAL_CHANNELS_NUM);
 677              		.loc 1 726 0
 678 0006 0028     		cmp	r0, #0
 679 0008 02D0     		beq	.L58
 680              		.loc 1 726 0 is_stmt 0 discriminator 1
 681 000a 0020     		mov	r0, #0
 682              	.LVL43:
 683 000c FFF7FEFF 		bl	CyHalt
 684              	.LVL44:
 685              	.L58:
 727:.\Generated_Source\PSoC4/ADC_SAR_Seq.c **** 
 728:.\Generated_Source\PSoC4/ADC_SAR_Seq.c ****     ADC_SAR_Seq_countsPer10Volt[chan] = adcGain;
 686              		.loc 1 728 0 is_stmt 1
ARM GAS  C:\Users\ÑÏÍþºÀ\AppData\Local\Temp\ccgCcFYV.s 			page 26


 687 0010 A400     		lsl	r4, r4, #2
 688              	.LVL45:
 689 0012 014B     		ldr	r3, .L59
 690 0014 E550     		str	r5, [r4, r3]
 729:.\Generated_Source\PSoC4/ADC_SAR_Seq.c **** }
 691              		.loc 1 729 0
 692              		@ sp needed
 693              	.LVL46:
 694 0016 38BD     		pop	{r3, r4, r5, pc}
 695              	.L60:
 696              		.align	2
 697              	.L59:
 698 0018 00000000 		.word	ADC_SAR_Seq_countsPer10Volt
 699              		.cfi_endproc
 700              	.LFE14:
 701              		.size	ADC_SAR_Seq_SetGain, .-ADC_SAR_Seq_SetGain
 702              		.global	__aeabi_idiv
 703              		.section	.text.ADC_SAR_Seq_CountsTo_mVolts,"ax",%progbits
 704              		.align	2
 705              		.global	ADC_SAR_Seq_CountsTo_mVolts
 706              		.code	16
 707              		.thumb_func
 708              		.type	ADC_SAR_Seq_CountsTo_mVolts, %function
 709              	ADC_SAR_Seq_CountsTo_mVolts:
 710              	.LFB15:
 730:.\Generated_Source\PSoC4/ADC_SAR_Seq.c **** 
 731:.\Generated_Source\PSoC4/ADC_SAR_Seq.c **** 
 732:.\Generated_Source\PSoC4/ADC_SAR_Seq.c **** #if(ADC_SAR_Seq_DEFAULT_JUSTIFICATION_SEL == ADC_SAR_Seq__RIGHT)
 733:.\Generated_Source\PSoC4/ADC_SAR_Seq.c **** 
 734:.\Generated_Source\PSoC4/ADC_SAR_Seq.c **** 
 735:.\Generated_Source\PSoC4/ADC_SAR_Seq.c ****     /*******************************************************************************
 736:.\Generated_Source\PSoC4/ADC_SAR_Seq.c ****     * Function Name: ADC_SAR_Seq_CountsTo_mVolts
 737:.\Generated_Source\PSoC4/ADC_SAR_Seq.c ****     ********************************************************************************
 738:.\Generated_Source\PSoC4/ADC_SAR_Seq.c ****     *
 739:.\Generated_Source\PSoC4/ADC_SAR_Seq.c ****     * Summary:
 740:.\Generated_Source\PSoC4/ADC_SAR_Seq.c ****     *  This function converts ADC counts to mVolts
 741:.\Generated_Source\PSoC4/ADC_SAR_Seq.c ****     *  This function is not available when left data format justification selected.
 742:.\Generated_Source\PSoC4/ADC_SAR_Seq.c ****     *
 743:.\Generated_Source\PSoC4/ADC_SAR_Seq.c ****     * Parameters:
 744:.\Generated_Source\PSoC4/ADC_SAR_Seq.c ****     *  chan: The ADC channel number.
 745:.\Generated_Source\PSoC4/ADC_SAR_Seq.c ****     *  adcCounts: Result from the ADC conversion
 746:.\Generated_Source\PSoC4/ADC_SAR_Seq.c ****     *
 747:.\Generated_Source\PSoC4/ADC_SAR_Seq.c ****     * Return:
 748:.\Generated_Source\PSoC4/ADC_SAR_Seq.c ****     *  Results in mVolts
 749:.\Generated_Source\PSoC4/ADC_SAR_Seq.c ****     *
 750:.\Generated_Source\PSoC4/ADC_SAR_Seq.c ****     * Global variables:
 751:.\Generated_Source\PSoC4/ADC_SAR_Seq.c ****     *  ADC_SAR_Seq_countsPer10Volt:  used to convert ADC counts to mVolts.
 752:.\Generated_Source\PSoC4/ADC_SAR_Seq.c ****     *  ADC_SAR_Seq_Offset:  Used as the offset while converting ADC counts
 753:.\Generated_Source\PSoC4/ADC_SAR_Seq.c ****     *   to mVolts.
 754:.\Generated_Source\PSoC4/ADC_SAR_Seq.c ****     *
 755:.\Generated_Source\PSoC4/ADC_SAR_Seq.c ****     *******************************************************************************/
 756:.\Generated_Source\PSoC4/ADC_SAR_Seq.c ****     int16 ADC_SAR_Seq_CountsTo_mVolts(uint32 chan, int16 adcCounts)
 757:.\Generated_Source\PSoC4/ADC_SAR_Seq.c ****     {
 711              		.loc 1 757 0
 712              		.cfi_startproc
 713              	.LVL47:
 714 0000 38B5     		push	{r3, r4, r5, lr}
ARM GAS  C:\Users\ÑÏÍþºÀ\AppData\Local\Temp\ccgCcFYV.s 			page 27


 715              		.cfi_def_cfa_offset 16
 716              		.cfi_offset 3, -16
 717              		.cfi_offset 4, -12
 718              		.cfi_offset 5, -8
 719              		.cfi_offset 14, -4
 720 0002 041C     		mov	r4, r0
 721 0004 0D1C     		mov	r5, r1
 758:.\Generated_Source\PSoC4/ADC_SAR_Seq.c ****         int16 mVolts;
 759:.\Generated_Source\PSoC4/ADC_SAR_Seq.c **** 
 760:.\Generated_Source\PSoC4/ADC_SAR_Seq.c ****         /* Halt CPU in debug mode if channel is out of valid range */
 761:.\Generated_Source\PSoC4/ADC_SAR_Seq.c ****         CYASSERT(chan < ADC_SAR_Seq_TOTAL_CHANNELS_NUM);
 722              		.loc 1 761 0
 723 0006 0028     		cmp	r0, #0
 724 0008 02D0     		beq	.L62
 725              		.loc 1 761 0 is_stmt 0 discriminator 1
 726 000a 0020     		mov	r0, #0
 727              	.LVL48:
 728 000c FFF7FEFF 		bl	CyHalt
 729              	.LVL49:
 730              	.L62:
 762:.\Generated_Source\PSoC4/ADC_SAR_Seq.c **** 
 763:.\Generated_Source\PSoC4/ADC_SAR_Seq.c ****         /* Divide the adcCount when accumulate averaging mode selected */
 764:.\Generated_Source\PSoC4/ADC_SAR_Seq.c ****         #if(ADC_SAR_Seq_DEFAULT_AVG_MODE == ADC_SAR_Seq__ACCUMULATE)
 765:.\Generated_Source\PSoC4/ADC_SAR_Seq.c ****             if((ADC_SAR_Seq_channelsConfig[chan] & ADC_SAR_Seq_AVERAGING_EN) != 0u)
 766:.\Generated_Source\PSoC4/ADC_SAR_Seq.c ****             {
 767:.\Generated_Source\PSoC4/ADC_SAR_Seq.c ****                 adcCounts /= ADC_SAR_Seq_DEFAULT_AVG_SAMPLES_DIV;
 768:.\Generated_Source\PSoC4/ADC_SAR_Seq.c ****             }
 769:.\Generated_Source\PSoC4/ADC_SAR_Seq.c ****         #endif /* ADC_SAR_Seq_DEFAULT_AVG_MODE == ADC_SAR_Seq__ACCUMULATE */
 770:.\Generated_Source\PSoC4/ADC_SAR_Seq.c **** 
 771:.\Generated_Source\PSoC4/ADC_SAR_Seq.c ****         /* Subtract ADC offset */
 772:.\Generated_Source\PSoC4/ADC_SAR_Seq.c ****         adcCounts -= ADC_SAR_Seq_offset[chan];
 731              		.loc 1 772 0 is_stmt 1
 732 0010 6300     		lsl	r3, r4, #1
 733 0012 0F4A     		ldr	r2, .L65
 734 0014 995A     		ldrh	r1, [r3, r2]
 735 0016 691A     		sub	r1, r5, r1
 736 0018 09B2     		sxth	r1, r1
 737              	.LVL50:
 773:.\Generated_Source\PSoC4/ADC_SAR_Seq.c **** 
 774:.\Generated_Source\PSoC4/ADC_SAR_Seq.c ****         mVolts = (int16)((((int32)adcCounts * ADC_SAR_Seq_10MV_COUNTS) + ( (adcCounts > 0) ?
 738              		.loc 1 774 0
 739 001a 0E48     		ldr	r0, .L65+4
 740 001c 021C     		mov	r2, r0
 741 001e 4A43     		mul	r2, r1
 775:.\Generated_Source\PSoC4/ADC_SAR_Seq.c ****                  (ADC_SAR_Seq_countsPer10Volt[chan] / 2) : (-(ADC_SAR_Seq_countsPer10Volt[chan] / 2
 742              		.loc 1 775 0
 743 0020 0029     		cmp	r1, #0
 744 0022 06DD     		ble	.L63
 745              		.loc 1 775 0 is_stmt 0 discriminator 1
 746 0024 A300     		lsl	r3, r4, #2
 747 0026 0C49     		ldr	r1, .L65+8
 748              	.LVL51:
 749 0028 5B58     		ldr	r3, [r3, r1]
 750 002a D80F     		lsr	r0, r3, #31
 751 002c C018     		add	r0, r0, r3
 752 002e 4310     		asr	r3, r0, #1
 753 0030 06E0     		b	.L64
ARM GAS  C:\Users\ÑÏÍþºÀ\AppData\Local\Temp\ccgCcFYV.s 			page 28


 754              	.LVL52:
 755              	.L63:
 756              		.loc 1 775 0 discriminator 2
 757 0032 A300     		lsl	r3, r4, #2
 758 0034 0849     		ldr	r1, .L65+8
 759              	.LVL53:
 760 0036 5B58     		ldr	r3, [r3, r1]
 761 0038 D80F     		lsr	r0, r3, #31
 762 003a C318     		add	r3, r0, r3
 763 003c 5B10     		asr	r3, r3, #1
 764 003e 5B42     		neg	r3, r3
 765              	.L64:
 774:.\Generated_Source\PSoC4/ADC_SAR_Seq.c ****                  (ADC_SAR_Seq_countsPer10Volt[chan] / 2) : (-(ADC_SAR_Seq_countsPer10Volt[chan] / 2
 766              		.loc 1 774 0 is_stmt 1
 767 0040 D018     		add	r0, r2, r3
 776:.\Generated_Source\PSoC4/ADC_SAR_Seq.c ****                  / ADC_SAR_Seq_countsPer10Volt[chan]);
 768              		.loc 1 776 0
 769 0042 A400     		lsl	r4, r4, #2
 770              	.LVL54:
 771 0044 044B     		ldr	r3, .L65+8
 772 0046 E158     		ldr	r1, [r4, r3]
 773 0048 FFF7FEFF 		bl	__aeabi_idiv
 774              	.LVL55:
 777:.\Generated_Source\PSoC4/ADC_SAR_Seq.c **** 
 778:.\Generated_Source\PSoC4/ADC_SAR_Seq.c ****         return( mVolts );
 775              		.loc 1 778 0
 776 004c 00B2     		sxth	r0, r0
 779:.\Generated_Source\PSoC4/ADC_SAR_Seq.c ****     }
 777              		.loc 1 779 0
 778              		@ sp needed
 779 004e 38BD     		pop	{r3, r4, r5, pc}
 780              	.L66:
 781              		.align	2
 782              	.L65:
 783 0050 00000000 		.word	ADC_SAR_Seq_offset
 784 0054 10270000 		.word	10000
 785 0058 00000000 		.word	ADC_SAR_Seq_countsPer10Volt
 786              		.cfi_endproc
 787              	.LFE15:
 788              		.size	ADC_SAR_Seq_CountsTo_mVolts, .-ADC_SAR_Seq_CountsTo_mVolts
 789              		.global	__aeabi_lmul
 790              		.global	__aeabi_ldivmod
 791              		.section	.text.ADC_SAR_Seq_CountsTo_uVolts,"ax",%progbits
 792              		.align	2
 793              		.global	ADC_SAR_Seq_CountsTo_uVolts
 794              		.code	16
 795              		.thumb_func
 796              		.type	ADC_SAR_Seq_CountsTo_uVolts, %function
 797              	ADC_SAR_Seq_CountsTo_uVolts:
 798              	.LFB16:
 780:.\Generated_Source\PSoC4/ADC_SAR_Seq.c **** 
 781:.\Generated_Source\PSoC4/ADC_SAR_Seq.c **** 
 782:.\Generated_Source\PSoC4/ADC_SAR_Seq.c ****     /*******************************************************************************
 783:.\Generated_Source\PSoC4/ADC_SAR_Seq.c ****     * Function Name: ADC_SAR_Seq_CountsTo_uVolts
 784:.\Generated_Source\PSoC4/ADC_SAR_Seq.c ****     ********************************************************************************
 785:.\Generated_Source\PSoC4/ADC_SAR_Seq.c ****     *
 786:.\Generated_Source\PSoC4/ADC_SAR_Seq.c ****     * Summary:
ARM GAS  C:\Users\ÑÏÍþºÀ\AppData\Local\Temp\ccgCcFYV.s 			page 29


 787:.\Generated_Source\PSoC4/ADC_SAR_Seq.c ****     *  This function converts ADC counts to micro Volts
 788:.\Generated_Source\PSoC4/ADC_SAR_Seq.c ****     *  This function is not available when left data format justification selected.
 789:.\Generated_Source\PSoC4/ADC_SAR_Seq.c ****     *
 790:.\Generated_Source\PSoC4/ADC_SAR_Seq.c ****     * Parameters:
 791:.\Generated_Source\PSoC4/ADC_SAR_Seq.c ****     *  chan: The ADC channel number.
 792:.\Generated_Source\PSoC4/ADC_SAR_Seq.c ****     *  adcCounts: Result from the ADC conversion
 793:.\Generated_Source\PSoC4/ADC_SAR_Seq.c ****     *
 794:.\Generated_Source\PSoC4/ADC_SAR_Seq.c ****     * Return:
 795:.\Generated_Source\PSoC4/ADC_SAR_Seq.c ****     *  Results in uVolts
 796:.\Generated_Source\PSoC4/ADC_SAR_Seq.c ****     *
 797:.\Generated_Source\PSoC4/ADC_SAR_Seq.c ****     * Global variables:
 798:.\Generated_Source\PSoC4/ADC_SAR_Seq.c ****     *  ADC_SAR_Seq_countsPer10Volt:  used to convert ADC counts to uVolts.
 799:.\Generated_Source\PSoC4/ADC_SAR_Seq.c ****     *  ADC_SAR_Seq_Offset:  Used as the offset while converting ADC counts
 800:.\Generated_Source\PSoC4/ADC_SAR_Seq.c ****     *   to mVolts.
 801:.\Generated_Source\PSoC4/ADC_SAR_Seq.c ****     *
 802:.\Generated_Source\PSoC4/ADC_SAR_Seq.c ****     * Theory:
 803:.\Generated_Source\PSoC4/ADC_SAR_Seq.c ****     *  Care must be taken to not exceed the maximum value for a 31 bit signed
 804:.\Generated_Source\PSoC4/ADC_SAR_Seq.c ****     *  number in the conversion to uVolts and at the same time not loose
 805:.\Generated_Source\PSoC4/ADC_SAR_Seq.c ****     *  resolution.
 806:.\Generated_Source\PSoC4/ADC_SAR_Seq.c ****     *  To convert adcCounts to microVolts it is required to be multiplied
 807:.\Generated_Source\PSoC4/ADC_SAR_Seq.c ****     *  on 10 million and later divide on gain in counts per 10V.
 808:.\Generated_Source\PSoC4/ADC_SAR_Seq.c ****     *
 809:.\Generated_Source\PSoC4/ADC_SAR_Seq.c ****     *******************************************************************************/
 810:.\Generated_Source\PSoC4/ADC_SAR_Seq.c ****     int32 ADC_SAR_Seq_CountsTo_uVolts(uint32 chan, int16 adcCounts)
 811:.\Generated_Source\PSoC4/ADC_SAR_Seq.c ****     {
 799              		.loc 1 811 0
 800              		.cfi_startproc
 801              	.LVL56:
 802 0000 38B5     		push	{r3, r4, r5, lr}
 803              		.cfi_def_cfa_offset 16
 804              		.cfi_offset 3, -16
 805              		.cfi_offset 4, -12
 806              		.cfi_offset 5, -8
 807              		.cfi_offset 14, -4
 808 0002 051C     		mov	r5, r0
 809 0004 0C1C     		mov	r4, r1
 812:.\Generated_Source\PSoC4/ADC_SAR_Seq.c ****         int64 uVolts;
 813:.\Generated_Source\PSoC4/ADC_SAR_Seq.c **** 
 814:.\Generated_Source\PSoC4/ADC_SAR_Seq.c ****         /* Halt CPU in debug mode if channel is out of valid range */
 815:.\Generated_Source\PSoC4/ADC_SAR_Seq.c ****         CYASSERT(chan < ADC_SAR_Seq_TOTAL_CHANNELS_NUM);
 810              		.loc 1 815 0
 811 0006 0028     		cmp	r0, #0
 812 0008 02D0     		beq	.L68
 813              		.loc 1 815 0 is_stmt 0 discriminator 1
 814 000a 0020     		mov	r0, #0
 815              	.LVL57:
 816 000c FFF7FEFF 		bl	CyHalt
 817              	.LVL58:
 818              	.L68:
 816:.\Generated_Source\PSoC4/ADC_SAR_Seq.c **** 
 817:.\Generated_Source\PSoC4/ADC_SAR_Seq.c ****         /* Divide the adcCount when accumulate averaging mode selected */
 818:.\Generated_Source\PSoC4/ADC_SAR_Seq.c ****         #if(ADC_SAR_Seq_DEFAULT_AVG_MODE == ADC_SAR_Seq__ACCUMULATE)
 819:.\Generated_Source\PSoC4/ADC_SAR_Seq.c ****             if((ADC_SAR_Seq_channelsConfig[chan] & ADC_SAR_Seq_AVERAGING_EN) != 0u)
 820:.\Generated_Source\PSoC4/ADC_SAR_Seq.c ****             {
 821:.\Generated_Source\PSoC4/ADC_SAR_Seq.c ****                 adcCounts /= ADC_SAR_Seq_DEFAULT_AVG_SAMPLES_DIV;
 822:.\Generated_Source\PSoC4/ADC_SAR_Seq.c ****             }
 823:.\Generated_Source\PSoC4/ADC_SAR_Seq.c ****         #endif /* ADC_SAR_Seq_DEFAULT_AVG_MODE == ADC_SAR_Seq__ACCUMULATE */
ARM GAS  C:\Users\ÑÏÍþºÀ\AppData\Local\Temp\ccgCcFYV.s 			page 30


 824:.\Generated_Source\PSoC4/ADC_SAR_Seq.c **** 
 825:.\Generated_Source\PSoC4/ADC_SAR_Seq.c ****         /* Subtract ADC offset */
 826:.\Generated_Source\PSoC4/ADC_SAR_Seq.c ****         adcCounts -= ADC_SAR_Seq_offset[chan];
 819              		.loc 1 826 0 is_stmt 1
 820 0010 6A00     		lsl	r2, r5, #1
 821 0012 084B     		ldr	r3, .L69
 822 0014 D05A     		ldrh	r0, [r2, r3]
 823 0016 201A     		sub	r0, r4, r0
 824 0018 00B2     		sxth	r0, r0
 825              	.LVL59:
 827:.\Generated_Source\PSoC4/ADC_SAR_Seq.c **** 
 828:.\Generated_Source\PSoC4/ADC_SAR_Seq.c ****         uVolts = ((int64)adcCounts * ADC_SAR_Seq_10UV_COUNTS) / ADC_SAR_Seq_countsPer10Volt[chan];
 826              		.loc 1 828 0
 827 001a C117     		asr	r1, r0, #31
 828 001c 064A     		ldr	r2, .L69+4
 829 001e 0023     		mov	r3, #0
 830 0020 FFF7FEFF 		bl	__aeabi_lmul
 831              	.LVL60:
 832 0024 AD00     		lsl	r5, r5, #2
 833              	.LVL61:
 834 0026 054B     		ldr	r3, .L69+8
 835 0028 EA58     		ldr	r2, [r5, r3]
 836 002a D317     		asr	r3, r2, #31
 837 002c FFF7FEFF 		bl	__aeabi_ldivmod
 838              	.LVL62:
 829:.\Generated_Source\PSoC4/ADC_SAR_Seq.c **** 
 830:.\Generated_Source\PSoC4/ADC_SAR_Seq.c ****         return( (int32)uVolts );
 831:.\Generated_Source\PSoC4/ADC_SAR_Seq.c ****     }
 839              		.loc 1 831 0
 840              		@ sp needed
 841 0030 38BD     		pop	{r3, r4, r5, pc}
 842              	.L70:
 843 0032 C046     		.align	2
 844              	.L69:
 845 0034 00000000 		.word	ADC_SAR_Seq_offset
 846 0038 80969800 		.word	10000000
 847 003c 00000000 		.word	ADC_SAR_Seq_countsPer10Volt
 848              		.cfi_endproc
 849              	.LFE16:
 850              		.size	ADC_SAR_Seq_CountsTo_uVolts, .-ADC_SAR_Seq_CountsTo_uVolts
 851              		.global	__aeabi_i2f
 852              		.global	__aeabi_fmul
 853              		.global	__aeabi_fdiv
 854              		.section	.text.ADC_SAR_Seq_CountsTo_Volts,"ax",%progbits
 855              		.align	2
 856              		.global	ADC_SAR_Seq_CountsTo_Volts
 857              		.code	16
 858              		.thumb_func
 859              		.type	ADC_SAR_Seq_CountsTo_Volts, %function
 860              	ADC_SAR_Seq_CountsTo_Volts:
 861              	.LFB17:
 832:.\Generated_Source\PSoC4/ADC_SAR_Seq.c **** 
 833:.\Generated_Source\PSoC4/ADC_SAR_Seq.c **** 
 834:.\Generated_Source\PSoC4/ADC_SAR_Seq.c ****     /*******************************************************************************
 835:.\Generated_Source\PSoC4/ADC_SAR_Seq.c ****     * Function Name: ADC_SAR_Seq_CountsTo_Volts
 836:.\Generated_Source\PSoC4/ADC_SAR_Seq.c ****     ********************************************************************************
 837:.\Generated_Source\PSoC4/ADC_SAR_Seq.c ****     *
ARM GAS  C:\Users\ÑÏÍþºÀ\AppData\Local\Temp\ccgCcFYV.s 			page 31


 838:.\Generated_Source\PSoC4/ADC_SAR_Seq.c ****     * Summary:
 839:.\Generated_Source\PSoC4/ADC_SAR_Seq.c ****     *  Converts the ADC output to Volts as a floating point number.
 840:.\Generated_Source\PSoC4/ADC_SAR_Seq.c ****     *  This function is not available when left data format justification selected.
 841:.\Generated_Source\PSoC4/ADC_SAR_Seq.c ****     *
 842:.\Generated_Source\PSoC4/ADC_SAR_Seq.c ****     * Parameters:
 843:.\Generated_Source\PSoC4/ADC_SAR_Seq.c ****     *  chan: The ADC channel number.
 844:.\Generated_Source\PSoC4/ADC_SAR_Seq.c ****     *  Result from the ADC conversion
 845:.\Generated_Source\PSoC4/ADC_SAR_Seq.c ****     *
 846:.\Generated_Source\PSoC4/ADC_SAR_Seq.c ****     * Return:
 847:.\Generated_Source\PSoC4/ADC_SAR_Seq.c ****     *  Results in Volts
 848:.\Generated_Source\PSoC4/ADC_SAR_Seq.c ****     *
 849:.\Generated_Source\PSoC4/ADC_SAR_Seq.c ****     * Global variables:
 850:.\Generated_Source\PSoC4/ADC_SAR_Seq.c ****     *  ADC_SAR_Seq_countsPer10Volt:  used to convert ADC counts to Volts.
 851:.\Generated_Source\PSoC4/ADC_SAR_Seq.c ****     *  ADC_SAR_Seq_Offset:  Used as the offset while converting ADC counts
 852:.\Generated_Source\PSoC4/ADC_SAR_Seq.c ****     *   to mVolts.
 853:.\Generated_Source\PSoC4/ADC_SAR_Seq.c ****     *
 854:.\Generated_Source\PSoC4/ADC_SAR_Seq.c ****     *******************************************************************************/
 855:.\Generated_Source\PSoC4/ADC_SAR_Seq.c ****     float32 ADC_SAR_Seq_CountsTo_Volts(uint32 chan, int16 adcCounts)
 856:.\Generated_Source\PSoC4/ADC_SAR_Seq.c ****     {
 862              		.loc 1 856 0
 863              		.cfi_startproc
 864              	.LVL63:
 865 0000 38B5     		push	{r3, r4, r5, lr}
 866              		.cfi_def_cfa_offset 16
 867              		.cfi_offset 3, -16
 868              		.cfi_offset 4, -12
 869              		.cfi_offset 5, -8
 870              		.cfi_offset 14, -4
 871 0002 041C     		mov	r4, r0
 872 0004 0D1C     		mov	r5, r1
 857:.\Generated_Source\PSoC4/ADC_SAR_Seq.c ****         float32 volts;
 858:.\Generated_Source\PSoC4/ADC_SAR_Seq.c **** 
 859:.\Generated_Source\PSoC4/ADC_SAR_Seq.c ****         /* Halt CPU in debug mode if channel is out of valid range */
 860:.\Generated_Source\PSoC4/ADC_SAR_Seq.c ****         CYASSERT(chan < ADC_SAR_Seq_TOTAL_CHANNELS_NUM);
 873              		.loc 1 860 0
 874 0006 0028     		cmp	r0, #0
 875 0008 02D0     		beq	.L72
 876              		.loc 1 860 0 is_stmt 0 discriminator 1
 877 000a 0020     		mov	r0, #0
 878              	.LVL64:
 879 000c FFF7FEFF 		bl	CyHalt
 880              	.LVL65:
 881              	.L72:
 861:.\Generated_Source\PSoC4/ADC_SAR_Seq.c **** 
 862:.\Generated_Source\PSoC4/ADC_SAR_Seq.c ****         /* Divide the adcCount when accumulate averaging mode selected */
 863:.\Generated_Source\PSoC4/ADC_SAR_Seq.c ****         #if(ADC_SAR_Seq_DEFAULT_AVG_MODE == ADC_SAR_Seq__ACCUMULATE)
 864:.\Generated_Source\PSoC4/ADC_SAR_Seq.c ****             if((ADC_SAR_Seq_channelsConfig[chan] & ADC_SAR_Seq_AVERAGING_EN) != 0u)
 865:.\Generated_Source\PSoC4/ADC_SAR_Seq.c ****             {
 866:.\Generated_Source\PSoC4/ADC_SAR_Seq.c ****                 adcCounts /= ADC_SAR_Seq_DEFAULT_AVG_SAMPLES_DIV;
 867:.\Generated_Source\PSoC4/ADC_SAR_Seq.c ****             }
 868:.\Generated_Source\PSoC4/ADC_SAR_Seq.c ****         #endif /* ADC_SAR_Seq_DEFAULT_AVG_MODE == ADC_SAR_Seq__ACCUMULATE */
 869:.\Generated_Source\PSoC4/ADC_SAR_Seq.c **** 
 870:.\Generated_Source\PSoC4/ADC_SAR_Seq.c ****         /* Subtract ADC offset */
 871:.\Generated_Source\PSoC4/ADC_SAR_Seq.c ****         adcCounts -= ADC_SAR_Seq_offset[chan];
 882              		.loc 1 871 0 is_stmt 1
 883 0010 6200     		lsl	r2, r4, #1
 884 0012 0A4B     		ldr	r3, .L73
ARM GAS  C:\Users\ÑÏÍþºÀ\AppData\Local\Temp\ccgCcFYV.s 			page 32


 885 0014 D05A     		ldrh	r0, [r2, r3]
 886 0016 281A     		sub	r0, r5, r0
 887 0018 00B2     		sxth	r0, r0
 888              	.LVL66:
 872:.\Generated_Source\PSoC4/ADC_SAR_Seq.c **** 
 873:.\Generated_Source\PSoC4/ADC_SAR_Seq.c ****         volts = ((float32)adcCounts * ADC_SAR_Seq_10V_COUNTS) / (float32)ADC_SAR_Seq_countsPer10Vol
 889              		.loc 1 873 0
 890 001a FFF7FEFF 		bl	__aeabi_i2f
 891              	.LVL67:
 892 001e 0849     		ldr	r1, .L73+4
 893 0020 FFF7FEFF 		bl	__aeabi_fmul
 894              	.LVL68:
 895 0024 051C     		add	r5, r0, #0
 896 0026 A400     		lsl	r4, r4, #2
 897              	.LVL69:
 898 0028 064B     		ldr	r3, .L73+8
 899 002a E058     		ldr	r0, [r4, r3]
 900 002c FFF7FEFF 		bl	__aeabi_i2f
 901              	.LVL70:
 902 0030 011C     		add	r1, r0, #0
 903 0032 281C     		add	r0, r5, #0
 904 0034 FFF7FEFF 		bl	__aeabi_fdiv
 905              	.LVL71:
 874:.\Generated_Source\PSoC4/ADC_SAR_Seq.c **** 
 875:.\Generated_Source\PSoC4/ADC_SAR_Seq.c ****         return( volts );
 876:.\Generated_Source\PSoC4/ADC_SAR_Seq.c ****     }
 906              		.loc 1 876 0
 907              		@ sp needed
 908 0038 38BD     		pop	{r3, r4, r5, pc}
 909              	.L74:
 910 003a C046     		.align	2
 911              	.L73:
 912 003c 00000000 		.word	ADC_SAR_Seq_offset
 913 0040 00002041 		.word	1092616192
 914 0044 00000000 		.word	ADC_SAR_Seq_countsPer10Volt
 915              		.cfi_endproc
 916              	.LFE17:
 917              		.size	ADC_SAR_Seq_CountsTo_Volts, .-ADC_SAR_Seq_CountsTo_Volts
 918              		.comm	ADC_SAR_Seq_countsPer10Volt,4,4
 919              		.comm	ADC_SAR_Seq_offset,2,4
 920              		.global	ADC_SAR_Seq_initVar
 921              		.bss
 922              		.set	.LANCHOR0,. + 0
 923              		.type	ADC_SAR_Seq_initVar, %object
 924              		.size	ADC_SAR_Seq_initVar, 1
 925              	ADC_SAR_Seq_initVar:
 926 0000 00       		.space	1
 927              		.text
 928              	.Letext0:
 929              		.file 2 ".\\Generated_Source\\PSoC4\\cytypes.h"
 930              		.file 3 ".\\Generated_Source\\PSoC4\\CyLib.h"