ARM GAS  C:\Users\ÑÏÍþºÀ\AppData\Local\Temp\ccV92stp.s 			page 1


   1              		.cpu cortex-m0
   2              		.fpu softvfp
   3              		.eabi_attribute 20, 1
   4              		.eabi_attribute 21, 1
   5              		.eabi_attribute 23, 3
   6              		.eabi_attribute 24, 1
   7              		.eabi_attribute 25, 1
   8              		.eabi_attribute 26, 1
   9              		.eabi_attribute 30, 1
  10              		.eabi_attribute 34, 0
  11              		.eabi_attribute 18, 4
  12              		.code	16
  13              		.file	"isr_1.c"
  14              		.text
  15              	.Ltext0:
  16              		.cfi_sections	.debug_frame
  17              		.section	.text.isr_1_Interrupt,"ax",%progbits
  18              		.align	2
  19              		.global	isr_1_Interrupt
  20              		.code	16
  21              		.thumb_func
  22              		.type	isr_1_Interrupt, %function
  23              	isr_1_Interrupt:
  24              	.LFB3:
  25              		.file 1 ".\\Generated_Source\\PSoC4\\isr_1.c"
   1:.\Generated_Source\PSoC4/isr_1.c **** /*******************************************************************************
   2:.\Generated_Source\PSoC4/isr_1.c **** * File Name: isr_1.c  
   3:.\Generated_Source\PSoC4/isr_1.c **** * Version 1.70
   4:.\Generated_Source\PSoC4/isr_1.c **** *
   5:.\Generated_Source\PSoC4/isr_1.c **** *  Description:
   6:.\Generated_Source\PSoC4/isr_1.c **** *   API for controlling the state of an interrupt.
   7:.\Generated_Source\PSoC4/isr_1.c **** *
   8:.\Generated_Source\PSoC4/isr_1.c **** *
   9:.\Generated_Source\PSoC4/isr_1.c **** *  Note:
  10:.\Generated_Source\PSoC4/isr_1.c **** *
  11:.\Generated_Source\PSoC4/isr_1.c **** ********************************************************************************
  12:.\Generated_Source\PSoC4/isr_1.c **** * Copyright 2008-2015, Cypress Semiconductor Corporation.  All rights reserved.
  13:.\Generated_Source\PSoC4/isr_1.c **** * You may use this file only in accordance with the license, terms, conditions, 
  14:.\Generated_Source\PSoC4/isr_1.c **** * disclaimers, and limitations in the end user license agreement accompanying 
  15:.\Generated_Source\PSoC4/isr_1.c **** * the software package with which this file was provided.
  16:.\Generated_Source\PSoC4/isr_1.c **** *******************************************************************************/
  17:.\Generated_Source\PSoC4/isr_1.c **** 
  18:.\Generated_Source\PSoC4/isr_1.c **** 
  19:.\Generated_Source\PSoC4/isr_1.c **** #include <cydevice_trm.h>
  20:.\Generated_Source\PSoC4/isr_1.c **** #include <CyLib.h>
  21:.\Generated_Source\PSoC4/isr_1.c **** #include <isr_1.h>
  22:.\Generated_Source\PSoC4/isr_1.c **** #include "cyapicallbacks.h"
  23:.\Generated_Source\PSoC4/isr_1.c **** 
  24:.\Generated_Source\PSoC4/isr_1.c **** #if !defined(isr_1__REMOVED) /* Check for removal by optimization */
  25:.\Generated_Source\PSoC4/isr_1.c **** 
  26:.\Generated_Source\PSoC4/isr_1.c **** /*******************************************************************************
  27:.\Generated_Source\PSoC4/isr_1.c **** *  Place your includes, defines and code here 
  28:.\Generated_Source\PSoC4/isr_1.c **** ********************************************************************************/
  29:.\Generated_Source\PSoC4/isr_1.c **** /* `#START isr_1_intc` */
  30:.\Generated_Source\PSoC4/isr_1.c **** 
  31:.\Generated_Source\PSoC4/isr_1.c **** /* `#END` */
  32:.\Generated_Source\PSoC4/isr_1.c **** 
ARM GAS  C:\Users\ÑÏÍþºÀ\AppData\Local\Temp\ccV92stp.s 			page 2


  33:.\Generated_Source\PSoC4/isr_1.c **** extern cyisraddress CyRamVectors[CYINT_IRQ_BASE + CY_NUM_INTERRUPTS];
  34:.\Generated_Source\PSoC4/isr_1.c **** 
  35:.\Generated_Source\PSoC4/isr_1.c **** /* Declared in startup, used to set unused interrupts to. */
  36:.\Generated_Source\PSoC4/isr_1.c **** CY_ISR_PROTO(IntDefaultHandler);
  37:.\Generated_Source\PSoC4/isr_1.c **** 
  38:.\Generated_Source\PSoC4/isr_1.c **** 
  39:.\Generated_Source\PSoC4/isr_1.c **** /*******************************************************************************
  40:.\Generated_Source\PSoC4/isr_1.c **** * Function Name: isr_1_Start
  41:.\Generated_Source\PSoC4/isr_1.c **** ********************************************************************************
  42:.\Generated_Source\PSoC4/isr_1.c **** *
  43:.\Generated_Source\PSoC4/isr_1.c **** * Summary:
  44:.\Generated_Source\PSoC4/isr_1.c **** *  Set up the interrupt and enable it. This function disables the interrupt, 
  45:.\Generated_Source\PSoC4/isr_1.c **** *  sets the default interrupt vector, sets the priority from the value in the
  46:.\Generated_Source\PSoC4/isr_1.c **** *  Design Wide Resources Interrupt Editor, then enables the interrupt to the 
  47:.\Generated_Source\PSoC4/isr_1.c **** *  interrupt controller.
  48:.\Generated_Source\PSoC4/isr_1.c **** *
  49:.\Generated_Source\PSoC4/isr_1.c **** * Parameters:  
  50:.\Generated_Source\PSoC4/isr_1.c **** *   None
  51:.\Generated_Source\PSoC4/isr_1.c **** *
  52:.\Generated_Source\PSoC4/isr_1.c **** * Return:
  53:.\Generated_Source\PSoC4/isr_1.c **** *   None
  54:.\Generated_Source\PSoC4/isr_1.c **** *
  55:.\Generated_Source\PSoC4/isr_1.c **** *******************************************************************************/
  56:.\Generated_Source\PSoC4/isr_1.c **** void isr_1_Start(void)
  57:.\Generated_Source\PSoC4/isr_1.c **** {
  58:.\Generated_Source\PSoC4/isr_1.c ****     /* For all we know the interrupt is active. */
  59:.\Generated_Source\PSoC4/isr_1.c ****     isr_1_Disable();
  60:.\Generated_Source\PSoC4/isr_1.c **** 
  61:.\Generated_Source\PSoC4/isr_1.c ****     /* Set the ISR to point to the isr_1 Interrupt. */
  62:.\Generated_Source\PSoC4/isr_1.c ****     isr_1_SetVector(&isr_1_Interrupt);
  63:.\Generated_Source\PSoC4/isr_1.c **** 
  64:.\Generated_Source\PSoC4/isr_1.c ****     /* Set the priority. */
  65:.\Generated_Source\PSoC4/isr_1.c ****     isr_1_SetPriority((uint8)isr_1_INTC_PRIOR_NUMBER);
  66:.\Generated_Source\PSoC4/isr_1.c **** 
  67:.\Generated_Source\PSoC4/isr_1.c ****     /* Enable it. */
  68:.\Generated_Source\PSoC4/isr_1.c ****     isr_1_Enable();
  69:.\Generated_Source\PSoC4/isr_1.c **** }
  70:.\Generated_Source\PSoC4/isr_1.c **** 
  71:.\Generated_Source\PSoC4/isr_1.c **** 
  72:.\Generated_Source\PSoC4/isr_1.c **** /*******************************************************************************
  73:.\Generated_Source\PSoC4/isr_1.c **** * Function Name: isr_1_StartEx
  74:.\Generated_Source\PSoC4/isr_1.c **** ********************************************************************************
  75:.\Generated_Source\PSoC4/isr_1.c **** *
  76:.\Generated_Source\PSoC4/isr_1.c **** * Summary:
  77:.\Generated_Source\PSoC4/isr_1.c **** *  Sets up the interrupt and enables it. This function disables the interrupt,
  78:.\Generated_Source\PSoC4/isr_1.c **** *  sets the interrupt vector based on the address passed in, sets the priority 
  79:.\Generated_Source\PSoC4/isr_1.c **** *  from the value in the Design Wide Resources Interrupt Editor, then enables 
  80:.\Generated_Source\PSoC4/isr_1.c **** *  the interrupt to the interrupt controller.
  81:.\Generated_Source\PSoC4/isr_1.c **** *  
  82:.\Generated_Source\PSoC4/isr_1.c **** *  When defining ISR functions, the CY_ISR and CY_ISR_PROTO macros should be 
  83:.\Generated_Source\PSoC4/isr_1.c **** *  used to provide consistent definition across compilers:
  84:.\Generated_Source\PSoC4/isr_1.c **** *  
  85:.\Generated_Source\PSoC4/isr_1.c **** *  Function definition example:
  86:.\Generated_Source\PSoC4/isr_1.c **** *   CY_ISR(MyISR)
  87:.\Generated_Source\PSoC4/isr_1.c **** *   {
  88:.\Generated_Source\PSoC4/isr_1.c **** *   }
  89:.\Generated_Source\PSoC4/isr_1.c **** *   Function prototype example:
ARM GAS  C:\Users\ÑÏÍþºÀ\AppData\Local\Temp\ccV92stp.s 			page 3


  90:.\Generated_Source\PSoC4/isr_1.c **** *   CY_ISR_PROTO(MyISR);
  91:.\Generated_Source\PSoC4/isr_1.c **** *
  92:.\Generated_Source\PSoC4/isr_1.c **** * Parameters:  
  93:.\Generated_Source\PSoC4/isr_1.c **** *   address: Address of the ISR to set in the interrupt vector table.
  94:.\Generated_Source\PSoC4/isr_1.c **** *
  95:.\Generated_Source\PSoC4/isr_1.c **** * Return:
  96:.\Generated_Source\PSoC4/isr_1.c **** *   None
  97:.\Generated_Source\PSoC4/isr_1.c **** *
  98:.\Generated_Source\PSoC4/isr_1.c **** *******************************************************************************/
  99:.\Generated_Source\PSoC4/isr_1.c **** void isr_1_StartEx(cyisraddress address)
 100:.\Generated_Source\PSoC4/isr_1.c **** {
 101:.\Generated_Source\PSoC4/isr_1.c ****     /* For all we know the interrupt is active. */
 102:.\Generated_Source\PSoC4/isr_1.c ****     isr_1_Disable();
 103:.\Generated_Source\PSoC4/isr_1.c **** 
 104:.\Generated_Source\PSoC4/isr_1.c ****     /* Set the ISR to point to the isr_1 Interrupt. */
 105:.\Generated_Source\PSoC4/isr_1.c ****     isr_1_SetVector(address);
 106:.\Generated_Source\PSoC4/isr_1.c **** 
 107:.\Generated_Source\PSoC4/isr_1.c ****     /* Set the priority. */
 108:.\Generated_Source\PSoC4/isr_1.c ****     isr_1_SetPriority((uint8)isr_1_INTC_PRIOR_NUMBER);
 109:.\Generated_Source\PSoC4/isr_1.c **** 
 110:.\Generated_Source\PSoC4/isr_1.c ****     /* Enable it. */
 111:.\Generated_Source\PSoC4/isr_1.c ****     isr_1_Enable();
 112:.\Generated_Source\PSoC4/isr_1.c **** }
 113:.\Generated_Source\PSoC4/isr_1.c **** 
 114:.\Generated_Source\PSoC4/isr_1.c **** 
 115:.\Generated_Source\PSoC4/isr_1.c **** /*******************************************************************************
 116:.\Generated_Source\PSoC4/isr_1.c **** * Function Name: isr_1_Stop
 117:.\Generated_Source\PSoC4/isr_1.c **** ********************************************************************************
 118:.\Generated_Source\PSoC4/isr_1.c **** *
 119:.\Generated_Source\PSoC4/isr_1.c **** * Summary:
 120:.\Generated_Source\PSoC4/isr_1.c **** *   Disables and removes the interrupt.
 121:.\Generated_Source\PSoC4/isr_1.c **** *
 122:.\Generated_Source\PSoC4/isr_1.c **** * Parameters:  
 123:.\Generated_Source\PSoC4/isr_1.c **** *   None
 124:.\Generated_Source\PSoC4/isr_1.c **** *
 125:.\Generated_Source\PSoC4/isr_1.c **** * Return:
 126:.\Generated_Source\PSoC4/isr_1.c **** *   None
 127:.\Generated_Source\PSoC4/isr_1.c **** *
 128:.\Generated_Source\PSoC4/isr_1.c **** *******************************************************************************/
 129:.\Generated_Source\PSoC4/isr_1.c **** void isr_1_Stop(void)
 130:.\Generated_Source\PSoC4/isr_1.c **** {
 131:.\Generated_Source\PSoC4/isr_1.c ****     /* Disable this interrupt. */
 132:.\Generated_Source\PSoC4/isr_1.c ****     isr_1_Disable();
 133:.\Generated_Source\PSoC4/isr_1.c **** 
 134:.\Generated_Source\PSoC4/isr_1.c ****     /* Set the ISR to point to the passive one. */
 135:.\Generated_Source\PSoC4/isr_1.c ****     isr_1_SetVector(&IntDefaultHandler);
 136:.\Generated_Source\PSoC4/isr_1.c **** }
 137:.\Generated_Source\PSoC4/isr_1.c **** 
 138:.\Generated_Source\PSoC4/isr_1.c **** 
 139:.\Generated_Source\PSoC4/isr_1.c **** /*******************************************************************************
 140:.\Generated_Source\PSoC4/isr_1.c **** * Function Name: isr_1_Interrupt
 141:.\Generated_Source\PSoC4/isr_1.c **** ********************************************************************************
 142:.\Generated_Source\PSoC4/isr_1.c **** *
 143:.\Generated_Source\PSoC4/isr_1.c **** * Summary:
 144:.\Generated_Source\PSoC4/isr_1.c **** *   The default Interrupt Service Routine for isr_1.
 145:.\Generated_Source\PSoC4/isr_1.c **** *
 146:.\Generated_Source\PSoC4/isr_1.c **** *   Add custom code between the START and END comments to keep the next version
ARM GAS  C:\Users\ÑÏÍþºÀ\AppData\Local\Temp\ccV92stp.s 			page 4


 147:.\Generated_Source\PSoC4/isr_1.c **** *   of this file from over-writing your code.
 148:.\Generated_Source\PSoC4/isr_1.c **** *
 149:.\Generated_Source\PSoC4/isr_1.c **** *   Note You may use either the default ISR by using this API, or you may define
 150:.\Generated_Source\PSoC4/isr_1.c **** *   your own separate ISR through ISR_StartEx().
 151:.\Generated_Source\PSoC4/isr_1.c **** *
 152:.\Generated_Source\PSoC4/isr_1.c **** * Parameters:  
 153:.\Generated_Source\PSoC4/isr_1.c **** *   None
 154:.\Generated_Source\PSoC4/isr_1.c **** *
 155:.\Generated_Source\PSoC4/isr_1.c **** * Return:
 156:.\Generated_Source\PSoC4/isr_1.c **** *   None
 157:.\Generated_Source\PSoC4/isr_1.c **** *
 158:.\Generated_Source\PSoC4/isr_1.c **** *******************************************************************************/
 159:.\Generated_Source\PSoC4/isr_1.c **** CY_ISR(isr_1_Interrupt)
 160:.\Generated_Source\PSoC4/isr_1.c **** {
  26              		.loc 1 160 0
  27              		.cfi_startproc
 161:.\Generated_Source\PSoC4/isr_1.c ****     #ifdef isr_1_INTERRUPT_INTERRUPT_CALLBACK
 162:.\Generated_Source\PSoC4/isr_1.c ****         isr_1_Interrupt_InterruptCallback();
 163:.\Generated_Source\PSoC4/isr_1.c ****     #endif /* isr_1_INTERRUPT_INTERRUPT_CALLBACK */ 
 164:.\Generated_Source\PSoC4/isr_1.c **** 
 165:.\Generated_Source\PSoC4/isr_1.c ****     /*  Place your Interrupt code here. */
 166:.\Generated_Source\PSoC4/isr_1.c ****     /* `#START isr_1_Interrupt` */
 167:.\Generated_Source\PSoC4/isr_1.c **** 
 168:.\Generated_Source\PSoC4/isr_1.c ****     /* `#END` */
 169:.\Generated_Source\PSoC4/isr_1.c **** }
  28              		.loc 1 169 0
  29              		@ sp needed
  30 0000 7047     		bx	lr
  31              		.cfi_endproc
  32              	.LFE3:
  33              		.size	isr_1_Interrupt, .-isr_1_Interrupt
  34 0002 C046     		.section	.text.isr_1_SetVector,"ax",%progbits
  35              		.align	2
  36              		.global	isr_1_SetVector
  37              		.code	16
  38              		.thumb_func
  39              		.type	isr_1_SetVector, %function
  40              	isr_1_SetVector:
  41              	.LFB4:
 170:.\Generated_Source\PSoC4/isr_1.c **** 
 171:.\Generated_Source\PSoC4/isr_1.c **** 
 172:.\Generated_Source\PSoC4/isr_1.c **** /*******************************************************************************
 173:.\Generated_Source\PSoC4/isr_1.c **** * Function Name: isr_1_SetVector
 174:.\Generated_Source\PSoC4/isr_1.c **** ********************************************************************************
 175:.\Generated_Source\PSoC4/isr_1.c **** *
 176:.\Generated_Source\PSoC4/isr_1.c **** * Summary:
 177:.\Generated_Source\PSoC4/isr_1.c **** *   Change the ISR vector for the Interrupt. Note calling isr_1_Start
 178:.\Generated_Source\PSoC4/isr_1.c **** *   will override any effect this method would have had. To set the vector 
 179:.\Generated_Source\PSoC4/isr_1.c **** *   before the component has been started use isr_1_StartEx instead.
 180:.\Generated_Source\PSoC4/isr_1.c **** * 
 181:.\Generated_Source\PSoC4/isr_1.c **** *   When defining ISR functions, the CY_ISR and CY_ISR_PROTO macros should be 
 182:.\Generated_Source\PSoC4/isr_1.c **** *   used to provide consistent definition across compilers:
 183:.\Generated_Source\PSoC4/isr_1.c **** *
 184:.\Generated_Source\PSoC4/isr_1.c **** *   Function definition example:
 185:.\Generated_Source\PSoC4/isr_1.c **** *   CY_ISR(MyISR)
 186:.\Generated_Source\PSoC4/isr_1.c **** *   {
 187:.\Generated_Source\PSoC4/isr_1.c **** *   }
ARM GAS  C:\Users\ÑÏÍþºÀ\AppData\Local\Temp\ccV92stp.s 			page 5


 188:.\Generated_Source\PSoC4/isr_1.c **** *
 189:.\Generated_Source\PSoC4/isr_1.c **** *   Function prototype example:
 190:.\Generated_Source\PSoC4/isr_1.c **** *     CY_ISR_PROTO(MyISR);
 191:.\Generated_Source\PSoC4/isr_1.c **** *
 192:.\Generated_Source\PSoC4/isr_1.c **** * Parameters:
 193:.\Generated_Source\PSoC4/isr_1.c **** *   address: Address of the ISR to set in the interrupt vector table.
 194:.\Generated_Source\PSoC4/isr_1.c **** *
 195:.\Generated_Source\PSoC4/isr_1.c **** * Return:
 196:.\Generated_Source\PSoC4/isr_1.c **** *   None
 197:.\Generated_Source\PSoC4/isr_1.c **** *
 198:.\Generated_Source\PSoC4/isr_1.c **** *******************************************************************************/
 199:.\Generated_Source\PSoC4/isr_1.c **** void isr_1_SetVector(cyisraddress address)
 200:.\Generated_Source\PSoC4/isr_1.c **** {
  42              		.loc 1 200 0
  43              		.cfi_startproc
  44              	.LVL0:
 201:.\Generated_Source\PSoC4/isr_1.c ****     CyRamVectors[CYINT_IRQ_BASE + isr_1__INTC_NUMBER] = address;
  45              		.loc 1 201 0
  46 0000 014B     		ldr	r3, .L3
  47 0002 1864     		str	r0, [r3, #64]
 202:.\Generated_Source\PSoC4/isr_1.c **** }
  48              		.loc 1 202 0
  49              		@ sp needed
  50 0004 7047     		bx	lr
  51              	.L4:
  52 0006 C046     		.align	2
  53              	.L3:
  54 0008 00000000 		.word	CyRamVectors
  55              		.cfi_endproc
  56              	.LFE4:
  57              		.size	isr_1_SetVector, .-isr_1_SetVector
  58              		.section	.text.isr_1_GetVector,"ax",%progbits
  59              		.align	2
  60              		.global	isr_1_GetVector
  61              		.code	16
  62              		.thumb_func
  63              		.type	isr_1_GetVector, %function
  64              	isr_1_GetVector:
  65              	.LFB5:
 203:.\Generated_Source\PSoC4/isr_1.c **** 
 204:.\Generated_Source\PSoC4/isr_1.c **** 
 205:.\Generated_Source\PSoC4/isr_1.c **** /*******************************************************************************
 206:.\Generated_Source\PSoC4/isr_1.c **** * Function Name: isr_1_GetVector
 207:.\Generated_Source\PSoC4/isr_1.c **** ********************************************************************************
 208:.\Generated_Source\PSoC4/isr_1.c **** *
 209:.\Generated_Source\PSoC4/isr_1.c **** * Summary:
 210:.\Generated_Source\PSoC4/isr_1.c **** *   Gets the "address" of the current ISR vector for the Interrupt.
 211:.\Generated_Source\PSoC4/isr_1.c **** *
 212:.\Generated_Source\PSoC4/isr_1.c **** * Parameters:
 213:.\Generated_Source\PSoC4/isr_1.c **** *   None
 214:.\Generated_Source\PSoC4/isr_1.c **** *
 215:.\Generated_Source\PSoC4/isr_1.c **** * Return:
 216:.\Generated_Source\PSoC4/isr_1.c **** *   Address of the ISR in the interrupt vector table.
 217:.\Generated_Source\PSoC4/isr_1.c **** *
 218:.\Generated_Source\PSoC4/isr_1.c **** *******************************************************************************/
 219:.\Generated_Source\PSoC4/isr_1.c **** cyisraddress isr_1_GetVector(void)
 220:.\Generated_Source\PSoC4/isr_1.c **** {
ARM GAS  C:\Users\ÑÏÍþºÀ\AppData\Local\Temp\ccV92stp.s 			page 6


  66              		.loc 1 220 0
  67              		.cfi_startproc
 221:.\Generated_Source\PSoC4/isr_1.c ****     return CyRamVectors[CYINT_IRQ_BASE + isr_1__INTC_NUMBER];
  68              		.loc 1 221 0
  69 0000 014B     		ldr	r3, .L6
  70 0002 186C     		ldr	r0, [r3, #64]
 222:.\Generated_Source\PSoC4/isr_1.c **** }
  71              		.loc 1 222 0
  72              		@ sp needed
  73 0004 7047     		bx	lr
  74              	.L7:
  75 0006 C046     		.align	2
  76              	.L6:
  77 0008 00000000 		.word	CyRamVectors
  78              		.cfi_endproc
  79              	.LFE5:
  80              		.size	isr_1_GetVector, .-isr_1_GetVector
  81              		.section	.text.isr_1_SetPriority,"ax",%progbits
  82              		.align	2
  83              		.global	isr_1_SetPriority
  84              		.code	16
  85              		.thumb_func
  86              		.type	isr_1_SetPriority, %function
  87              	isr_1_SetPriority:
  88              	.LFB6:
 223:.\Generated_Source\PSoC4/isr_1.c **** 
 224:.\Generated_Source\PSoC4/isr_1.c **** 
 225:.\Generated_Source\PSoC4/isr_1.c **** /*******************************************************************************
 226:.\Generated_Source\PSoC4/isr_1.c **** * Function Name: isr_1_SetPriority
 227:.\Generated_Source\PSoC4/isr_1.c **** ********************************************************************************
 228:.\Generated_Source\PSoC4/isr_1.c **** *
 229:.\Generated_Source\PSoC4/isr_1.c **** * Summary:
 230:.\Generated_Source\PSoC4/isr_1.c **** *   Sets the Priority of the Interrupt. 
 231:.\Generated_Source\PSoC4/isr_1.c **** *
 232:.\Generated_Source\PSoC4/isr_1.c **** *   Note calling isr_1_Start or isr_1_StartEx will 
 233:.\Generated_Source\PSoC4/isr_1.c **** *   override any effect this API would have had. This API should only be called
 234:.\Generated_Source\PSoC4/isr_1.c **** *   after isr_1_Start or isr_1_StartEx has been called. 
 235:.\Generated_Source\PSoC4/isr_1.c **** *   To set the initial priority for the component, use the Design-Wide Resources
 236:.\Generated_Source\PSoC4/isr_1.c **** *   Interrupt Editor.
 237:.\Generated_Source\PSoC4/isr_1.c **** *
 238:.\Generated_Source\PSoC4/isr_1.c **** *   Note This API has no effect on Non-maskable interrupt NMI).
 239:.\Generated_Source\PSoC4/isr_1.c **** *
 240:.\Generated_Source\PSoC4/isr_1.c **** * Parameters:
 241:.\Generated_Source\PSoC4/isr_1.c **** *   priority: Priority of the interrupt, 0 being the highest priority
 242:.\Generated_Source\PSoC4/isr_1.c **** *             PSoC 3 and PSoC 5LP: Priority is from 0 to 7.
 243:.\Generated_Source\PSoC4/isr_1.c **** *             PSoC 4: Priority is from 0 to 3.
 244:.\Generated_Source\PSoC4/isr_1.c **** *
 245:.\Generated_Source\PSoC4/isr_1.c **** * Return:
 246:.\Generated_Source\PSoC4/isr_1.c **** *   None
 247:.\Generated_Source\PSoC4/isr_1.c **** *
 248:.\Generated_Source\PSoC4/isr_1.c **** *******************************************************************************/
 249:.\Generated_Source\PSoC4/isr_1.c **** void isr_1_SetPriority(uint8 priority)
 250:.\Generated_Source\PSoC4/isr_1.c **** {
  89              		.loc 1 250 0
  90              		.cfi_startproc
  91              	.LVL1:
  92 0000 10B5     		push	{r4, lr}
ARM GAS  C:\Users\ÑÏÍþºÀ\AppData\Local\Temp\ccV92stp.s 			page 7


  93              		.cfi_def_cfa_offset 8
  94              		.cfi_offset 4, -8
  95              		.cfi_offset 14, -4
  96 0002 041C     		mov	r4, r0
  97              	.LVL2:
 251:.\Generated_Source\PSoC4/isr_1.c **** 	uint8 interruptState;
 252:.\Generated_Source\PSoC4/isr_1.c ****     uint32 priorityOffset = ((isr_1__INTC_NUMBER % 4u) * 8u) + 6u;
 253:.\Generated_Source\PSoC4/isr_1.c ****     
 254:.\Generated_Source\PSoC4/isr_1.c **** 	interruptState = CyEnterCriticalSection();
  98              		.loc 1 254 0
  99 0004 FFF7FEFF 		bl	CyEnterCriticalSection
 100              	.LVL3:
 255:.\Generated_Source\PSoC4/isr_1.c ****     *isr_1_INTC_PRIOR = (*isr_1_INTC_PRIOR & (uint32)(~isr_1__INTC_PRIOR_MASK)) |
 101              		.loc 1 255 0
 102 0008 044A     		ldr	r2, .L9
 103 000a 1368     		ldr	r3, [r2]
 104 000c C021     		mov	r1, #192
 105 000e 8B43     		bic	r3, r1
 256:.\Generated_Source\PSoC4/isr_1.c ****                                     ((uint32)priority << priorityOffset);
 106              		.loc 1 256 0
 107 0010 A401     		lsl	r4, r4, #6
 255:.\Generated_Source\PSoC4/isr_1.c ****     *isr_1_INTC_PRIOR = (*isr_1_INTC_PRIOR & (uint32)(~isr_1__INTC_PRIOR_MASK)) |
 108              		.loc 1 255 0
 109 0012 1C43     		orr	r4, r3
 110 0014 1460     		str	r4, [r2]
 257:.\Generated_Source\PSoC4/isr_1.c **** 	CyExitCriticalSection(interruptState);
 111              		.loc 1 257 0
 112 0016 FFF7FEFF 		bl	CyExitCriticalSection
 113              	.LVL4:
 258:.\Generated_Source\PSoC4/isr_1.c **** }
 114              		.loc 1 258 0
 115              		@ sp needed
 116 001a 10BD     		pop	{r4, pc}
 117              	.L10:
 118              		.align	2
 119              	.L9:
 120 001c 00E400E0 		.word	-536812544
 121              		.cfi_endproc
 122              	.LFE6:
 123              		.size	isr_1_SetPriority, .-isr_1_SetPriority
 124              		.section	.text.isr_1_GetPriority,"ax",%progbits
 125              		.align	2
 126              		.global	isr_1_GetPriority
 127              		.code	16
 128              		.thumb_func
 129              		.type	isr_1_GetPriority, %function
 130              	isr_1_GetPriority:
 131              	.LFB7:
 259:.\Generated_Source\PSoC4/isr_1.c **** 
 260:.\Generated_Source\PSoC4/isr_1.c **** 
 261:.\Generated_Source\PSoC4/isr_1.c **** /*******************************************************************************
 262:.\Generated_Source\PSoC4/isr_1.c **** * Function Name: isr_1_GetPriority
 263:.\Generated_Source\PSoC4/isr_1.c **** ********************************************************************************
 264:.\Generated_Source\PSoC4/isr_1.c **** *
 265:.\Generated_Source\PSoC4/isr_1.c **** * Summary:
 266:.\Generated_Source\PSoC4/isr_1.c **** *   Gets the Priority of the Interrupt.
 267:.\Generated_Source\PSoC4/isr_1.c **** *
ARM GAS  C:\Users\ÑÏÍþºÀ\AppData\Local\Temp\ccV92stp.s 			page 8


 268:.\Generated_Source\PSoC4/isr_1.c **** * Parameters:
 269:.\Generated_Source\PSoC4/isr_1.c **** *   None
 270:.\Generated_Source\PSoC4/isr_1.c **** *
 271:.\Generated_Source\PSoC4/isr_1.c **** * Return:
 272:.\Generated_Source\PSoC4/isr_1.c **** *   Priority of the interrupt, 0 being the highest priority
 273:.\Generated_Source\PSoC4/isr_1.c **** *    PSoC 3 and PSoC 5LP: Priority is from 0 to 7.
 274:.\Generated_Source\PSoC4/isr_1.c **** *    PSoC 4: Priority is from 0 to 3.
 275:.\Generated_Source\PSoC4/isr_1.c **** *
 276:.\Generated_Source\PSoC4/isr_1.c **** *******************************************************************************/
 277:.\Generated_Source\PSoC4/isr_1.c **** uint8 isr_1_GetPriority(void)
 278:.\Generated_Source\PSoC4/isr_1.c **** {
 132              		.loc 1 278 0
 133              		.cfi_startproc
 134              	.LVL5:
 279:.\Generated_Source\PSoC4/isr_1.c ****     uint32 priority;
 280:.\Generated_Source\PSoC4/isr_1.c **** 	uint32 priorityOffset = ((isr_1__INTC_NUMBER % 4u) * 8u) + 6u;
 281:.\Generated_Source\PSoC4/isr_1.c **** 
 282:.\Generated_Source\PSoC4/isr_1.c ****     priority = (*isr_1_INTC_PRIOR & isr_1__INTC_PRIOR_MASK) >> priorityOffset;
 135              		.loc 1 282 0
 136 0000 024B     		ldr	r3, .L12
 137 0002 1868     		ldr	r0, [r3]
 138 0004 0006     		lsl	r0, r0, #24
 139              	.LVL6:
 283:.\Generated_Source\PSoC4/isr_1.c **** 
 284:.\Generated_Source\PSoC4/isr_1.c ****     return (uint8)priority;
 140              		.loc 1 284 0
 141 0006 800F     		lsr	r0, r0, #30
 142              	.LVL7:
 285:.\Generated_Source\PSoC4/isr_1.c **** }
 143              		.loc 1 285 0
 144              		@ sp needed
 145 0008 7047     		bx	lr
 146              	.L13:
 147 000a C046     		.align	2
 148              	.L12:
 149 000c 00E400E0 		.word	-536812544
 150              		.cfi_endproc
 151              	.LFE7:
 152              		.size	isr_1_GetPriority, .-isr_1_GetPriority
 153              		.section	.text.isr_1_Enable,"ax",%progbits
 154              		.align	2
 155              		.global	isr_1_Enable
 156              		.code	16
 157              		.thumb_func
 158              		.type	isr_1_Enable, %function
 159              	isr_1_Enable:
 160              	.LFB8:
 286:.\Generated_Source\PSoC4/isr_1.c **** 
 287:.\Generated_Source\PSoC4/isr_1.c **** 
 288:.\Generated_Source\PSoC4/isr_1.c **** /*******************************************************************************
 289:.\Generated_Source\PSoC4/isr_1.c **** * Function Name: isr_1_Enable
 290:.\Generated_Source\PSoC4/isr_1.c **** ********************************************************************************
 291:.\Generated_Source\PSoC4/isr_1.c **** *
 292:.\Generated_Source\PSoC4/isr_1.c **** * Summary:
 293:.\Generated_Source\PSoC4/isr_1.c **** *   Enables the interrupt to the interrupt controller. Do not call this function
 294:.\Generated_Source\PSoC4/isr_1.c **** *   unless ISR_Start() has been called or the functionality of the ISR_Start() 
 295:.\Generated_Source\PSoC4/isr_1.c **** *   function, which sets the vector and the priority, has been called.
ARM GAS  C:\Users\ÑÏÍþºÀ\AppData\Local\Temp\ccV92stp.s 			page 9


 296:.\Generated_Source\PSoC4/isr_1.c **** *
 297:.\Generated_Source\PSoC4/isr_1.c **** * Parameters:
 298:.\Generated_Source\PSoC4/isr_1.c **** *   None
 299:.\Generated_Source\PSoC4/isr_1.c **** *
 300:.\Generated_Source\PSoC4/isr_1.c **** * Return:
 301:.\Generated_Source\PSoC4/isr_1.c **** *   None
 302:.\Generated_Source\PSoC4/isr_1.c **** *
 303:.\Generated_Source\PSoC4/isr_1.c **** *******************************************************************************/
 304:.\Generated_Source\PSoC4/isr_1.c **** void isr_1_Enable(void)
 305:.\Generated_Source\PSoC4/isr_1.c **** {
 161              		.loc 1 305 0
 162              		.cfi_startproc
 306:.\Generated_Source\PSoC4/isr_1.c ****     /* Enable the general interrupt. */
 307:.\Generated_Source\PSoC4/isr_1.c ****     *isr_1_INTC_SET_EN = isr_1__INTC_MASK;
 163              		.loc 1 307 0
 164 0000 0122     		mov	r2, #1
 165 0002 014B     		ldr	r3, .L15
 166 0004 1A60     		str	r2, [r3]
 308:.\Generated_Source\PSoC4/isr_1.c **** }
 167              		.loc 1 308 0
 168              		@ sp needed
 169 0006 7047     		bx	lr
 170              	.L16:
 171              		.align	2
 172              	.L15:
 173 0008 00E100E0 		.word	-536813312
 174              		.cfi_endproc
 175              	.LFE8:
 176              		.size	isr_1_Enable, .-isr_1_Enable
 177              		.section	.text.isr_1_GetState,"ax",%progbits
 178              		.align	2
 179              		.global	isr_1_GetState
 180              		.code	16
 181              		.thumb_func
 182              		.type	isr_1_GetState, %function
 183              	isr_1_GetState:
 184              	.LFB9:
 309:.\Generated_Source\PSoC4/isr_1.c **** 
 310:.\Generated_Source\PSoC4/isr_1.c **** 
 311:.\Generated_Source\PSoC4/isr_1.c **** /*******************************************************************************
 312:.\Generated_Source\PSoC4/isr_1.c **** * Function Name: isr_1_GetState
 313:.\Generated_Source\PSoC4/isr_1.c **** ********************************************************************************
 314:.\Generated_Source\PSoC4/isr_1.c **** *
 315:.\Generated_Source\PSoC4/isr_1.c **** * Summary:
 316:.\Generated_Source\PSoC4/isr_1.c **** *   Gets the state (enabled, disabled) of the Interrupt.
 317:.\Generated_Source\PSoC4/isr_1.c **** *
 318:.\Generated_Source\PSoC4/isr_1.c **** * Parameters:
 319:.\Generated_Source\PSoC4/isr_1.c **** *   None
 320:.\Generated_Source\PSoC4/isr_1.c **** *
 321:.\Generated_Source\PSoC4/isr_1.c **** * Return:
 322:.\Generated_Source\PSoC4/isr_1.c **** *   1 if enabled, 0 if disabled.
 323:.\Generated_Source\PSoC4/isr_1.c **** *
 324:.\Generated_Source\PSoC4/isr_1.c **** *******************************************************************************/
 325:.\Generated_Source\PSoC4/isr_1.c **** uint8 isr_1_GetState(void)
 326:.\Generated_Source\PSoC4/isr_1.c **** {
 185              		.loc 1 326 0
 186              		.cfi_startproc
ARM GAS  C:\Users\ÑÏÍþºÀ\AppData\Local\Temp\ccV92stp.s 			page 10


 327:.\Generated_Source\PSoC4/isr_1.c ****     /* Get the state of the general interrupt. */
 328:.\Generated_Source\PSoC4/isr_1.c ****     return ((*isr_1_INTC_SET_EN & (uint32)isr_1__INTC_MASK) != 0u) ? 1u:0u;
 187              		.loc 1 328 0
 188 0000 024B     		ldr	r3, .L18
 189 0002 1B68     		ldr	r3, [r3]
 190 0004 0120     		mov	r0, #1
 191 0006 1840     		and	r0, r3
 329:.\Generated_Source\PSoC4/isr_1.c **** }
 192              		.loc 1 329 0
 193              		@ sp needed
 194 0008 7047     		bx	lr
 195              	.L19:
 196 000a C046     		.align	2
 197              	.L18:
 198 000c 00E100E0 		.word	-536813312
 199              		.cfi_endproc
 200              	.LFE9:
 201              		.size	isr_1_GetState, .-isr_1_GetState
 202              		.section	.text.isr_1_Disable,"ax",%progbits
 203              		.align	2
 204              		.global	isr_1_Disable
 205              		.code	16
 206              		.thumb_func
 207              		.type	isr_1_Disable, %function
 208              	isr_1_Disable:
 209              	.LFB10:
 330:.\Generated_Source\PSoC4/isr_1.c **** 
 331:.\Generated_Source\PSoC4/isr_1.c **** 
 332:.\Generated_Source\PSoC4/isr_1.c **** /*******************************************************************************
 333:.\Generated_Source\PSoC4/isr_1.c **** * Function Name: isr_1_Disable
 334:.\Generated_Source\PSoC4/isr_1.c **** ********************************************************************************
 335:.\Generated_Source\PSoC4/isr_1.c **** *
 336:.\Generated_Source\PSoC4/isr_1.c **** * Summary:
 337:.\Generated_Source\PSoC4/isr_1.c **** *   Disables the Interrupt in the interrupt controller.
 338:.\Generated_Source\PSoC4/isr_1.c **** *
 339:.\Generated_Source\PSoC4/isr_1.c **** * Parameters:
 340:.\Generated_Source\PSoC4/isr_1.c **** *   None
 341:.\Generated_Source\PSoC4/isr_1.c **** *
 342:.\Generated_Source\PSoC4/isr_1.c **** * Return:
 343:.\Generated_Source\PSoC4/isr_1.c **** *   None
 344:.\Generated_Source\PSoC4/isr_1.c **** *
 345:.\Generated_Source\PSoC4/isr_1.c **** *******************************************************************************/
 346:.\Generated_Source\PSoC4/isr_1.c **** void isr_1_Disable(void)
 347:.\Generated_Source\PSoC4/isr_1.c **** {
 210              		.loc 1 347 0
 211              		.cfi_startproc
 348:.\Generated_Source\PSoC4/isr_1.c ****     /* Disable the general interrupt. */
 349:.\Generated_Source\PSoC4/isr_1.c ****     *isr_1_INTC_CLR_EN = isr_1__INTC_MASK;
 212              		.loc 1 349 0
 213 0000 0122     		mov	r2, #1
 214 0002 014B     		ldr	r3, .L21
 215 0004 1A60     		str	r2, [r3]
 350:.\Generated_Source\PSoC4/isr_1.c **** }
 216              		.loc 1 350 0
 217              		@ sp needed
 218 0006 7047     		bx	lr
 219              	.L22:
ARM GAS  C:\Users\ÑÏÍþºÀ\AppData\Local\Temp\ccV92stp.s 			page 11


 220              		.align	2
 221              	.L21:
 222 0008 80E100E0 		.word	-536813184
 223              		.cfi_endproc
 224              	.LFE10:
 225              		.size	isr_1_Disable, .-isr_1_Disable
 226              		.section	.text.isr_1_Start,"ax",%progbits
 227              		.align	2
 228              		.global	isr_1_Start
 229              		.code	16
 230              		.thumb_func
 231              		.type	isr_1_Start, %function
 232              	isr_1_Start:
 233              	.LFB0:
  57:.\Generated_Source\PSoC4/isr_1.c ****     /* For all we know the interrupt is active. */
 234              		.loc 1 57 0
 235              		.cfi_startproc
 236 0000 08B5     		push	{r3, lr}
 237              		.cfi_def_cfa_offset 8
 238              		.cfi_offset 3, -8
 239              		.cfi_offset 14, -4
  59:.\Generated_Source\PSoC4/isr_1.c **** 
 240              		.loc 1 59 0
 241 0002 FFF7FEFF 		bl	isr_1_Disable
 242              	.LVL8:
  62:.\Generated_Source\PSoC4/isr_1.c **** 
 243              		.loc 1 62 0
 244 0006 0448     		ldr	r0, .L24
 245 0008 FFF7FEFF 		bl	isr_1_SetVector
 246              	.LVL9:
  65:.\Generated_Source\PSoC4/isr_1.c **** 
 247              		.loc 1 65 0
 248 000c 0320     		mov	r0, #3
 249 000e FFF7FEFF 		bl	isr_1_SetPriority
 250              	.LVL10:
  68:.\Generated_Source\PSoC4/isr_1.c **** }
 251              		.loc 1 68 0
 252 0012 FFF7FEFF 		bl	isr_1_Enable
 253              	.LVL11:
  69:.\Generated_Source\PSoC4/isr_1.c **** 
 254              		.loc 1 69 0
 255              		@ sp needed
 256 0016 08BD     		pop	{r3, pc}
 257              	.L25:
 258              		.align	2
 259              	.L24:
 260 0018 00000000 		.word	isr_1_Interrupt
 261              		.cfi_endproc
 262              	.LFE0:
 263              		.size	isr_1_Start, .-isr_1_Start
 264              		.section	.text.isr_1_StartEx,"ax",%progbits
 265              		.align	2
 266              		.global	isr_1_StartEx
 267              		.code	16
 268              		.thumb_func
 269              		.type	isr_1_StartEx, %function
 270              	isr_1_StartEx:
ARM GAS  C:\Users\ÑÏÍþºÀ\AppData\Local\Temp\ccV92stp.s 			page 12


 271              	.LFB1:
 100:.\Generated_Source\PSoC4/isr_1.c ****     /* For all we know the interrupt is active. */
 272              		.loc 1 100 0
 273              		.cfi_startproc
 274              	.LVL12:
 275 0000 10B5     		push	{r4, lr}
 276              		.cfi_def_cfa_offset 8
 277              		.cfi_offset 4, -8
 278              		.cfi_offset 14, -4
 279 0002 041C     		mov	r4, r0
 102:.\Generated_Source\PSoC4/isr_1.c **** 
 280              		.loc 1 102 0
 281 0004 FFF7FEFF 		bl	isr_1_Disable
 282              	.LVL13:
 105:.\Generated_Source\PSoC4/isr_1.c **** 
 283              		.loc 1 105 0
 284 0008 201C     		mov	r0, r4
 285 000a FFF7FEFF 		bl	isr_1_SetVector
 286              	.LVL14:
 108:.\Generated_Source\PSoC4/isr_1.c **** 
 287              		.loc 1 108 0
 288 000e 0320     		mov	r0, #3
 289 0010 FFF7FEFF 		bl	isr_1_SetPriority
 290              	.LVL15:
 111:.\Generated_Source\PSoC4/isr_1.c **** }
 291              		.loc 1 111 0
 292 0014 FFF7FEFF 		bl	isr_1_Enable
 293              	.LVL16:
 112:.\Generated_Source\PSoC4/isr_1.c **** 
 294              		.loc 1 112 0
 295              		@ sp needed
 296              	.LVL17:
 297 0018 10BD     		pop	{r4, pc}
 298              		.cfi_endproc
 299              	.LFE1:
 300              		.size	isr_1_StartEx, .-isr_1_StartEx
 301 001a C046     		.section	.text.isr_1_Stop,"ax",%progbits
 302              		.align	2
 303              		.global	isr_1_Stop
 304              		.code	16
 305              		.thumb_func
 306              		.type	isr_1_Stop, %function
 307              	isr_1_Stop:
 308              	.LFB2:
 130:.\Generated_Source\PSoC4/isr_1.c ****     /* Disable this interrupt. */
 309              		.loc 1 130 0
 310              		.cfi_startproc
 311 0000 08B5     		push	{r3, lr}
 312              		.cfi_def_cfa_offset 8
 313              		.cfi_offset 3, -8
 314              		.cfi_offset 14, -4
 132:.\Generated_Source\PSoC4/isr_1.c **** 
 315              		.loc 1 132 0
 316 0002 FFF7FEFF 		bl	isr_1_Disable
 317              	.LVL18:
 135:.\Generated_Source\PSoC4/isr_1.c **** }
 318              		.loc 1 135 0
ARM GAS  C:\Users\ÑÏÍþºÀ\AppData\Local\Temp\ccV92stp.s 			page 13


 319 0006 0248     		ldr	r0, .L28
 320 0008 FFF7FEFF 		bl	isr_1_SetVector
 321              	.LVL19:
 136:.\Generated_Source\PSoC4/isr_1.c **** 
 322              		.loc 1 136 0
 323              		@ sp needed
 324 000c 08BD     		pop	{r3, pc}
 325              	.L29:
 326 000e C046     		.align	2
 327              	.L28:
 328 0010 00000000 		.word	IntDefaultHandler
 329              		.cfi_endproc
 330              	.LFE2:
 331              		.size	isr_1_Stop, .-isr_1_Stop
 332              		.section	.text.isr_1_SetPending,"ax",%progbits
 333              		.align	2
 334              		.global	isr_1_SetPending
 335              		.code	16
 336              		.thumb_func
 337              		.type	isr_1_SetPending, %function
 338              	isr_1_SetPending:
 339              	.LFB11:
 351:.\Generated_Source\PSoC4/isr_1.c **** 
 352:.\Generated_Source\PSoC4/isr_1.c **** 
 353:.\Generated_Source\PSoC4/isr_1.c **** /*******************************************************************************
 354:.\Generated_Source\PSoC4/isr_1.c **** * Function Name: isr_1_SetPending
 355:.\Generated_Source\PSoC4/isr_1.c **** ********************************************************************************
 356:.\Generated_Source\PSoC4/isr_1.c **** *
 357:.\Generated_Source\PSoC4/isr_1.c **** * Summary:
 358:.\Generated_Source\PSoC4/isr_1.c **** *   Causes the Interrupt to enter the pending state, a software method of
 359:.\Generated_Source\PSoC4/isr_1.c **** *   generating the interrupt.
 360:.\Generated_Source\PSoC4/isr_1.c **** *
 361:.\Generated_Source\PSoC4/isr_1.c **** * Parameters:
 362:.\Generated_Source\PSoC4/isr_1.c **** *   None
 363:.\Generated_Source\PSoC4/isr_1.c **** *
 364:.\Generated_Source\PSoC4/isr_1.c **** * Return:
 365:.\Generated_Source\PSoC4/isr_1.c **** *   None
 366:.\Generated_Source\PSoC4/isr_1.c **** *
 367:.\Generated_Source\PSoC4/isr_1.c **** * Side Effects:
 368:.\Generated_Source\PSoC4/isr_1.c **** *   If interrupts are enabled and the interrupt is set up properly, the ISR is
 369:.\Generated_Source\PSoC4/isr_1.c **** *   entered (depending on the priority of this interrupt and other pending 
 370:.\Generated_Source\PSoC4/isr_1.c **** *   interrupts).
 371:.\Generated_Source\PSoC4/isr_1.c **** *
 372:.\Generated_Source\PSoC4/isr_1.c **** *******************************************************************************/
 373:.\Generated_Source\PSoC4/isr_1.c **** void isr_1_SetPending(void)
 374:.\Generated_Source\PSoC4/isr_1.c **** {
 340              		.loc 1 374 0
 341              		.cfi_startproc
 375:.\Generated_Source\PSoC4/isr_1.c ****     *isr_1_INTC_SET_PD = isr_1__INTC_MASK;
 342              		.loc 1 375 0
 343 0000 0122     		mov	r2, #1
 344 0002 014B     		ldr	r3, .L31
 345 0004 1A60     		str	r2, [r3]
 376:.\Generated_Source\PSoC4/isr_1.c **** }
 346              		.loc 1 376 0
 347              		@ sp needed
 348 0006 7047     		bx	lr
ARM GAS  C:\Users\ÑÏÍþºÀ\AppData\Local\Temp\ccV92stp.s 			page 14


 349              	.L32:
 350              		.align	2
 351              	.L31:
 352 0008 00E200E0 		.word	-536813056
 353              		.cfi_endproc
 354              	.LFE11:
 355              		.size	isr_1_SetPending, .-isr_1_SetPending
 356              		.section	.text.isr_1_ClearPending,"ax",%progbits
 357              		.align	2
 358              		.global	isr_1_ClearPending
 359              		.code	16
 360              		.thumb_func
 361              		.type	isr_1_ClearPending, %function
 362              	isr_1_ClearPending:
 363              	.LFB12:
 377:.\Generated_Source\PSoC4/isr_1.c **** 
 378:.\Generated_Source\PSoC4/isr_1.c **** 
 379:.\Generated_Source\PSoC4/isr_1.c **** /*******************************************************************************
 380:.\Generated_Source\PSoC4/isr_1.c **** * Function Name: isr_1_ClearPending
 381:.\Generated_Source\PSoC4/isr_1.c **** ********************************************************************************
 382:.\Generated_Source\PSoC4/isr_1.c **** *
 383:.\Generated_Source\PSoC4/isr_1.c **** * Summary:
 384:.\Generated_Source\PSoC4/isr_1.c **** *   Clears a pending interrupt in the interrupt controller.
 385:.\Generated_Source\PSoC4/isr_1.c **** *
 386:.\Generated_Source\PSoC4/isr_1.c **** *   Note Some interrupt sources are clear-on-read and require the block 
 387:.\Generated_Source\PSoC4/isr_1.c **** *   interrupt/status register to be read/cleared with the appropriate block API 
 388:.\Generated_Source\PSoC4/isr_1.c **** *   (GPIO, UART, and so on). Otherwise the ISR will continue to remain in 
 389:.\Generated_Source\PSoC4/isr_1.c **** *   pending state even though the interrupt itself is cleared using this API.
 390:.\Generated_Source\PSoC4/isr_1.c **** *
 391:.\Generated_Source\PSoC4/isr_1.c **** * Parameters:
 392:.\Generated_Source\PSoC4/isr_1.c **** *   None
 393:.\Generated_Source\PSoC4/isr_1.c **** *
 394:.\Generated_Source\PSoC4/isr_1.c **** * Return:
 395:.\Generated_Source\PSoC4/isr_1.c **** *   None
 396:.\Generated_Source\PSoC4/isr_1.c **** *
 397:.\Generated_Source\PSoC4/isr_1.c **** *******************************************************************************/
 398:.\Generated_Source\PSoC4/isr_1.c **** void isr_1_ClearPending(void)
 399:.\Generated_Source\PSoC4/isr_1.c **** {
 364              		.loc 1 399 0
 365              		.cfi_startproc
 400:.\Generated_Source\PSoC4/isr_1.c ****     *isr_1_INTC_CLR_PD = isr_1__INTC_MASK;
 366              		.loc 1 400 0
 367 0000 0122     		mov	r2, #1
 368 0002 014B     		ldr	r3, .L34
 369 0004 1A60     		str	r2, [r3]
 401:.\Generated_Source\PSoC4/isr_1.c **** }
 370              		.loc 1 401 0
 371              		@ sp needed
 372 0006 7047     		bx	lr
 373              	.L35:
 374              		.align	2
 375              	.L34:
 376 0008 80E200E0 		.word	-536812928
 377              		.cfi_endproc
 378              	.LFE12:
 379              		.size	isr_1_ClearPending, .-isr_1_ClearPending
 380              		.text
ARM GAS  C:\Users\ÑÏÍþºÀ\AppData\Local\Temp\ccV92stp.s 			page 15


 381              	.Letext0:
 382              		.file 2 "Generated_Source\\PSoC4/cytypes.h"
 383              		.file 3 "Generated_Source\\PSoC4/CyLib.h"