ARM GAS  C:\Users\ÑÏÍþºÀ\AppData\Local\Temp\cckUwzcx.s 			page 1


   1              		.cpu cortex-m0
   2              		.fpu softvfp
   3              		.eabi_attribute 20, 1
   4              		.eabi_attribute 21, 1
   5              		.eabi_attribute 23, 3
   6              		.eabi_attribute 24, 1
   7              		.eabi_attribute 25, 1
   8              		.eabi_attribute 26, 1
   9              		.eabi_attribute 30, 1
  10              		.eabi_attribute 34, 0
  11              		.eabi_attribute 18, 4
  12              		.code	16
  13              		.file	"LCD_Char_BarGraph.c"
  14              		.text
  15              	.Ltext0:
  16              		.cfi_sections	.debug_frame
  17              		.section	.text.LCD_Char_LoadCustomFonts,"ax",%progbits
  18              		.align	2
  19              		.global	LCD_Char_LoadCustomFonts
  20              		.code	16
  21              		.thumb_func
  22              		.type	LCD_Char_LoadCustomFonts, %function
  23              	LCD_Char_LoadCustomFonts:
  24              	.LFB0:
  25              		.file 1 ".\\Generated_Source\\PSoC4\\LCD_Char_BarGraph.c"
   1:.\Generated_Source\PSoC4/LCD_Char_BarGraph.c **** /*******************************************************************************
   2:.\Generated_Source\PSoC4/LCD_Char_BarGraph.c **** * File Name: LCD_Char_BarGraph.c
   3:.\Generated_Source\PSoC4/LCD_Char_BarGraph.c **** * Version 2.10
   4:.\Generated_Source\PSoC4/LCD_Char_BarGraph.c **** *
   5:.\Generated_Source\PSoC4/LCD_Char_BarGraph.c **** * Description:
   6:.\Generated_Source\PSoC4/LCD_Char_BarGraph.c **** *  This file provides the custom character data and API for creating and using
   7:.\Generated_Source\PSoC4/LCD_Char_BarGraph.c **** *  bar graphs with the Character LCD component.
   8:.\Generated_Source\PSoC4/LCD_Char_BarGraph.c **** *
   9:.\Generated_Source\PSoC4/LCD_Char_BarGraph.c **** * Note:
  10:.\Generated_Source\PSoC4/LCD_Char_BarGraph.c **** *
  11:.\Generated_Source\PSoC4/LCD_Char_BarGraph.c **** ********************************************************************************
  12:.\Generated_Source\PSoC4/LCD_Char_BarGraph.c **** * Copyright 2008-2014, Cypress Semiconductor Corporation.  All rights reserved.
  13:.\Generated_Source\PSoC4/LCD_Char_BarGraph.c **** * You may use this file only in accordance with the license, terms, conditions,
  14:.\Generated_Source\PSoC4/LCD_Char_BarGraph.c **** * disclaimers, and limitations in the end user license agreement accompanying
  15:.\Generated_Source\PSoC4/LCD_Char_BarGraph.c **** * the software package with which this file was provided.
  16:.\Generated_Source\PSoC4/LCD_Char_BarGraph.c **** *******************************************************************************/
  17:.\Generated_Source\PSoC4/LCD_Char_BarGraph.c **** 
  18:.\Generated_Source\PSoC4/LCD_Char_BarGraph.c **** #include "LCD_Char.h"
  19:.\Generated_Source\PSoC4/LCD_Char_BarGraph.c **** 
  20:.\Generated_Source\PSoC4/LCD_Char_BarGraph.c **** 
  21:.\Generated_Source\PSoC4/LCD_Char_BarGraph.c **** uint8 const CYCODE LCD_Char_customFonts[] = \
  22:.\Generated_Source\PSoC4/LCD_Char_BarGraph.c **** {
  23:.\Generated_Source\PSoC4/LCD_Char_BarGraph.c ****     /* Character LCD_Char_CUSTOM_0   */
  24:.\Generated_Source\PSoC4/LCD_Char_BarGraph.c ****     0x00u,    0x00u,    0x00u,    0x00u,    0x00u,    0x00u,    0x00u,    0x00u, \
  25:.\Generated_Source\PSoC4/LCD_Char_BarGraph.c ****     /* Character LCD_Char_CUSTOM_1   */
  26:.\Generated_Source\PSoC4/LCD_Char_BarGraph.c ****     0x10u,    0x10u,    0x10u,    0x10u,    0x10u,    0x10u,    0x10u,    0x10u, \
  27:.\Generated_Source\PSoC4/LCD_Char_BarGraph.c ****     /* Character LCD_Char_CUSTOM_2   */
  28:.\Generated_Source\PSoC4/LCD_Char_BarGraph.c ****     0x18u,    0x18u,    0x18u,    0x18u,    0x18u,    0x18u,    0x18u,    0x18u, \
  29:.\Generated_Source\PSoC4/LCD_Char_BarGraph.c ****     /* Character LCD_Char_CUSTOM_3   */
  30:.\Generated_Source\PSoC4/LCD_Char_BarGraph.c ****     0x1Cu,    0x1Cu,    0x1Cu,    0x1Cu,    0x1Cu,    0x1Cu,    0x1Cu,    0x1Cu, \
  31:.\Generated_Source\PSoC4/LCD_Char_BarGraph.c ****     /* Character LCD_Char_CUSTOM_4   */
  32:.\Generated_Source\PSoC4/LCD_Char_BarGraph.c ****     0x1Eu,    0x1Eu,    0x1Eu,    0x1Eu,    0x1Eu,    0x1Eu,    0x1Eu,    0x1Eu, \
ARM GAS  C:\Users\ÑÏÍþºÀ\AppData\Local\Temp\cckUwzcx.s 			page 2


  33:.\Generated_Source\PSoC4/LCD_Char_BarGraph.c ****     /* Character LCD_Char_CUSTOM_5   */
  34:.\Generated_Source\PSoC4/LCD_Char_BarGraph.c ****     0x1Fu,    0x1Fu,    0x1Fu,    0x1Fu,    0x1Fu,    0x1Fu,    0x1Fu,    0x1Fu, \
  35:.\Generated_Source\PSoC4/LCD_Char_BarGraph.c ****     /* Character LCD_Char_CUSTOM_6   */
  36:.\Generated_Source\PSoC4/LCD_Char_BarGraph.c ****     0x00u,    0x00u,    0x00u,    0x00u,    0x00u,    0x00u,    0x00u,    0x00u, \
  37:.\Generated_Source\PSoC4/LCD_Char_BarGraph.c ****     /* Character LCD_Char_CUSTOM_7   */
  38:.\Generated_Source\PSoC4/LCD_Char_BarGraph.c ****     0x00u,    0x00u,    0x00u,    0x00u,    0x00u,    0x00u,    0x00u,    0x00u \
  39:.\Generated_Source\PSoC4/LCD_Char_BarGraph.c **** };
  40:.\Generated_Source\PSoC4/LCD_Char_BarGraph.c **** 
  41:.\Generated_Source\PSoC4/LCD_Char_BarGraph.c **** 
  42:.\Generated_Source\PSoC4/LCD_Char_BarGraph.c **** /*******************************************************************************
  43:.\Generated_Source\PSoC4/LCD_Char_BarGraph.c **** * Function Name: LCD_Char_LoadCustomFonts
  44:.\Generated_Source\PSoC4/LCD_Char_BarGraph.c **** ********************************************************************************
  45:.\Generated_Source\PSoC4/LCD_Char_BarGraph.c **** *
  46:.\Generated_Source\PSoC4/LCD_Char_BarGraph.c **** * Summary:
  47:.\Generated_Source\PSoC4/LCD_Char_BarGraph.c **** *  Loads 8 custom font characters into the LCD Module for use.  Cannot use
  48:.\Generated_Source\PSoC4/LCD_Char_BarGraph.c **** *  characters from two different font sets at once, but font sets can be
  49:.\Generated_Source\PSoC4/LCD_Char_BarGraph.c **** *  switched out during runtime.
  50:.\Generated_Source\PSoC4/LCD_Char_BarGraph.c **** *
  51:.\Generated_Source\PSoC4/LCD_Char_BarGraph.c **** * Parameters:
  52:.\Generated_Source\PSoC4/LCD_Char_BarGraph.c **** *  customData:  pointer to a constant array of 64 bytes representing 8 custom
  53:.\Generated_Source\PSoC4/LCD_Char_BarGraph.c **** *               font characters.
  54:.\Generated_Source\PSoC4/LCD_Char_BarGraph.c **** * Return:
  55:.\Generated_Source\PSoC4/LCD_Char_BarGraph.c **** *  None.
  56:.\Generated_Source\PSoC4/LCD_Char_BarGraph.c **** *
  57:.\Generated_Source\PSoC4/LCD_Char_BarGraph.c **** * Theory:
  58:.\Generated_Source\PSoC4/LCD_Char_BarGraph.c **** *  Prior to using this function user need to import the pointer to custom
  59:.\Generated_Source\PSoC4/LCD_Char_BarGraph.c **** *  font array to your project by writting the following in the source code file
  60:.\Generated_Source\PSoC4/LCD_Char_BarGraph.c **** *  where custom font will be used:
  61:.\Generated_Source\PSoC4/LCD_Char_BarGraph.c **** *       extern uint8 const CYCODE LCD_Char_customFonts[];
  62:.\Generated_Source\PSoC4/LCD_Char_BarGraph.c **** *  This function is not automatically called by the Start() routine and must be
  63:.\Generated_Source\PSoC4/LCD_Char_BarGraph.c **** *  called manually by the user.
  64:.\Generated_Source\PSoC4/LCD_Char_BarGraph.c **** *******************************************************************************/
  65:.\Generated_Source\PSoC4/LCD_Char_BarGraph.c **** void LCD_Char_LoadCustomFonts(uint8 const customData[]) 
  66:.\Generated_Source\PSoC4/LCD_Char_BarGraph.c **** {
  26              		.loc 1 66 0
  27              		.cfi_startproc
  28              	.LVL0:
  29 0000 38B5     		push	{r3, r4, r5, lr}
  30              		.cfi_def_cfa_offset 16
  31              		.cfi_offset 3, -16
  32              		.cfi_offset 4, -12
  33              		.cfi_offset 5, -8
  34              		.cfi_offset 14, -4
  35 0002 051C     		mov	r5, r0
  67:.\Generated_Source\PSoC4/LCD_Char_BarGraph.c ****     uint8 indexU8;
  68:.\Generated_Source\PSoC4/LCD_Char_BarGraph.c **** 
  69:.\Generated_Source\PSoC4/LCD_Char_BarGraph.c ****     LCD_Char_IsReady();
  36              		.loc 1 69 0
  37 0004 FFF7FEFF 		bl	LCD_Char_IsReady
  38              	.LVL1:
  70:.\Generated_Source\PSoC4/LCD_Char_BarGraph.c ****     /* Set starting address in the LCD Module */
  71:.\Generated_Source\PSoC4/LCD_Char_BarGraph.c ****     /* Optionally: Read the current address to restore at a later time */
  72:.\Generated_Source\PSoC4/LCD_Char_BarGraph.c ****     LCD_Char_WriteControl(LCD_Char_CGRAM_0);
  39              		.loc 1 72 0
  40 0008 4020     		mov	r0, #64
  41 000a FFF7FEFF 		bl	LCD_Char_WriteControl
  42              	.LVL2:
ARM GAS  C:\Users\ÑÏÍþºÀ\AppData\Local\Temp\cckUwzcx.s 			page 3


  73:.\Generated_Source\PSoC4/LCD_Char_BarGraph.c **** 
  74:.\Generated_Source\PSoC4/LCD_Char_BarGraph.c ****     /* Load in the 64 bytes of CustomChar Data */
  75:.\Generated_Source\PSoC4/LCD_Char_BarGraph.c ****     for(indexU8 = 0u; indexU8 < LCD_Char_CUSTOM_CHAR_SET_LEN; indexU8++)
  43              		.loc 1 75 0
  44 000e 0024     		mov	r4, #0
  45 0010 04E0     		b	.L2
  46              	.LVL3:
  47              	.L3:
  76:.\Generated_Source\PSoC4/LCD_Char_BarGraph.c ****     {
  77:.\Generated_Source\PSoC4/LCD_Char_BarGraph.c ****         /* Delay between each write */
  78:.\Generated_Source\PSoC4/LCD_Char_BarGraph.c ****         LCD_Char_WriteData(customData[indexU8]);
  48              		.loc 1 78 0 discriminator 3
  49 0012 285D     		ldrb	r0, [r5, r4]
  50 0014 FFF7FEFF 		bl	LCD_Char_WriteData
  51              	.LVL4:
  75:.\Generated_Source\PSoC4/LCD_Char_BarGraph.c ****     {
  52              		.loc 1 75 0 discriminator 3
  53 0018 0134     		add	r4, r4, #1
  54              	.LVL5:
  55 001a E4B2     		uxtb	r4, r4
  56              	.LVL6:
  57              	.L2:
  75:.\Generated_Source\PSoC4/LCD_Char_BarGraph.c ****     {
  58              		.loc 1 75 0 is_stmt 0 discriminator 1
  59 001c 3F2C     		cmp	r4, #63
  60 001e F8D9     		bls	.L3
  79:.\Generated_Source\PSoC4/LCD_Char_BarGraph.c ****     }
  80:.\Generated_Source\PSoC4/LCD_Char_BarGraph.c **** 
  81:.\Generated_Source\PSoC4/LCD_Char_BarGraph.c ****     LCD_Char_IsReady();
  61              		.loc 1 81 0 is_stmt 1
  62 0020 FFF7FEFF 		bl	LCD_Char_IsReady
  63              	.LVL7:
  82:.\Generated_Source\PSoC4/LCD_Char_BarGraph.c ****     LCD_Char_WriteControl(LCD_Char_DDRAM_0);
  64              		.loc 1 82 0
  65 0024 8020     		mov	r0, #128
  66 0026 FFF7FEFF 		bl	LCD_Char_WriteControl
  67              	.LVL8:
  83:.\Generated_Source\PSoC4/LCD_Char_BarGraph.c **** }
  68              		.loc 1 83 0
  69              		@ sp needed
  70              	.LVL9:
  71              	.LVL10:
  72 002a 38BD     		pop	{r3, r4, r5, pc}
  73              		.cfi_endproc
  74              	.LFE0:
  75              		.size	LCD_Char_LoadCustomFonts, .-LCD_Char_LoadCustomFonts
  76              		.global	__aeabi_uidiv
  77              		.global	__aeabi_uidivmod
  78              		.section	.text.LCD_Char_DrawHorizontalBG,"ax",%progbits
  79              		.align	2
  80              		.global	LCD_Char_DrawHorizontalBG
  81              		.code	16
  82              		.thumb_func
  83              		.type	LCD_Char_DrawHorizontalBG, %function
  84              	LCD_Char_DrawHorizontalBG:
  85              	.LFB1:
  84:.\Generated_Source\PSoC4/LCD_Char_BarGraph.c **** 
ARM GAS  C:\Users\ÑÏÍþºÀ\AppData\Local\Temp\cckUwzcx.s 			page 4


  85:.\Generated_Source\PSoC4/LCD_Char_BarGraph.c **** 
  86:.\Generated_Source\PSoC4/LCD_Char_BarGraph.c **** #if (LCD_Char_CUSTOM_CHAR_SET == LCD_Char_HORIZONTAL_BG)
  87:.\Generated_Source\PSoC4/LCD_Char_BarGraph.c **** 
  88:.\Generated_Source\PSoC4/LCD_Char_BarGraph.c ****     /*******************************************************************************
  89:.\Generated_Source\PSoC4/LCD_Char_BarGraph.c ****     * Function Name: LCD_Char_DrawHorizontalBG
  90:.\Generated_Source\PSoC4/LCD_Char_BarGraph.c ****     ********************************************************************************
  91:.\Generated_Source\PSoC4/LCD_Char_BarGraph.c ****     *
  92:.\Generated_Source\PSoC4/LCD_Char_BarGraph.c ****     * Summary:
  93:.\Generated_Source\PSoC4/LCD_Char_BarGraph.c ****     *  Draws the horizontal bargraph.
  94:.\Generated_Source\PSoC4/LCD_Char_BarGraph.c ****     *
  95:.\Generated_Source\PSoC4/LCD_Char_BarGraph.c ****     * Parameters:
  96:.\Generated_Source\PSoC4/LCD_Char_BarGraph.c ****     *  row:            The row in which the bar graph starts.
  97:.\Generated_Source\PSoC4/LCD_Char_BarGraph.c ****     *  column:         The column in which the bar graph starts.
  98:.\Generated_Source\PSoC4/LCD_Char_BarGraph.c ****     *  maxCharacters:  The max length of the graph in whole characters.
  99:.\Generated_Source\PSoC4/LCD_Char_BarGraph.c ****     *  value:          The current length or height of the graph in pixels.
 100:.\Generated_Source\PSoC4/LCD_Char_BarGraph.c ****     *
 101:.\Generated_Source\PSoC4/LCD_Char_BarGraph.c ****     * Return:
 102:.\Generated_Source\PSoC4/LCD_Char_BarGraph.c ****     *  void.
 103:.\Generated_Source\PSoC4/LCD_Char_BarGraph.c ****     *
 104:.\Generated_Source\PSoC4/LCD_Char_BarGraph.c ****     *******************************************************************************/
 105:.\Generated_Source\PSoC4/LCD_Char_BarGraph.c ****     void LCD_Char_DrawHorizontalBG(uint8 row, uint8 column, uint8 maxCharacters, uint8 value) \
 106:.\Generated_Source\PSoC4/LCD_Char_BarGraph.c ****                                                             
 107:.\Generated_Source\PSoC4/LCD_Char_BarGraph.c ****     {
  86              		.loc 1 107 0
  87              		.cfi_startproc
  88              	.LVL11:
  89 0000 F0B5     		push	{r4, r5, r6, r7, lr}
  90              		.cfi_def_cfa_offset 20
  91              		.cfi_offset 4, -20
  92              		.cfi_offset 5, -16
  93              		.cfi_offset 6, -12
  94              		.cfi_offset 7, -8
  95              		.cfi_offset 14, -4
  96 0002 83B0     		sub	sp, sp, #12
  97              		.cfi_def_cfa_offset 32
  98 0004 0090     		str	r0, [sp]
  99 0006 0191     		str	r1, [sp, #4]
 100 0008 161C     		mov	r6, r2
 101 000a 1C1C     		mov	r4, r3
 108:.\Generated_Source\PSoC4/LCD_Char_BarGraph.c ****         /* 8-bit Counter */
 109:.\Generated_Source\PSoC4/LCD_Char_BarGraph.c ****         uint8 count8;
 110:.\Generated_Source\PSoC4/LCD_Char_BarGraph.c ****         uint8 fullChars;
 111:.\Generated_Source\PSoC4/LCD_Char_BarGraph.c ****         uint8 remainingPixels;
 112:.\Generated_Source\PSoC4/LCD_Char_BarGraph.c **** 
 113:.\Generated_Source\PSoC4/LCD_Char_BarGraph.c ****         /* Number of full characters to draw */
 114:.\Generated_Source\PSoC4/LCD_Char_BarGraph.c ****         fullChars = value / LCD_Char_CHARACTER_WIDTH;
 102              		.loc 1 114 0
 103 000c 181C     		mov	r0, r3
 104              	.LVL12:
 105 000e 0521     		mov	r1, #5
 106              	.LVL13:
 107 0010 FFF7FEFF 		bl	__aeabi_uidiv
 108              	.LVL14:
 109 0014 C5B2     		uxtb	r5, r0
 110              	.LVL15:
 115:.\Generated_Source\PSoC4/LCD_Char_BarGraph.c **** 
 116:.\Generated_Source\PSoC4/LCD_Char_BarGraph.c ****         /* Number of remaining pixels to draw */
ARM GAS  C:\Users\ÑÏÍþºÀ\AppData\Local\Temp\cckUwzcx.s 			page 5


 117:.\Generated_Source\PSoC4/LCD_Char_BarGraph.c ****         remainingPixels = value % LCD_Char_CHARACTER_WIDTH;
 111              		.loc 1 117 0
 112 0016 201C     		mov	r0, r4
 113 0018 0521     		mov	r1, #5
 114 001a FFF7FEFF 		bl	__aeabi_uidivmod
 115              	.LVL16:
 116 001e CFB2     		uxtb	r7, r1
 117              	.LVL17:
 118:.\Generated_Source\PSoC4/LCD_Char_BarGraph.c **** 
 119:.\Generated_Source\PSoC4/LCD_Char_BarGraph.c ****         /* Ensure that the maximum character limit is followed. */
 120:.\Generated_Source\PSoC4/LCD_Char_BarGraph.c ****         if(fullChars >= maxCharacters)
 118              		.loc 1 120 0
 119 0020 B542     		cmp	r5, r6
 120 0022 00D3     		bcc	.L5
 121:.\Generated_Source\PSoC4/LCD_Char_BarGraph.c ****         {
 122:.\Generated_Source\PSoC4/LCD_Char_BarGraph.c ****             fullChars = maxCharacters;
 121              		.loc 1 122 0
 122 0024 351C     		mov	r5, r6
 123              	.LVL18:
 124              	.L5:
 123:.\Generated_Source\PSoC4/LCD_Char_BarGraph.c ****         }
 124:.\Generated_Source\PSoC4/LCD_Char_BarGraph.c **** 
 125:.\Generated_Source\PSoC4/LCD_Char_BarGraph.c ****         /* Put Cursor at start position */
 126:.\Generated_Source\PSoC4/LCD_Char_BarGraph.c ****         LCD_Char_Position(row, column);
 125              		.loc 1 126 0
 126 0026 0098     		ldr	r0, [sp]
 127 0028 0199     		ldr	r1, [sp, #4]
 128 002a FFF7FEFF 		bl	LCD_Char_Position
 129              	.LVL19:
 127:.\Generated_Source\PSoC4/LCD_Char_BarGraph.c **** 
 128:.\Generated_Source\PSoC4/LCD_Char_BarGraph.c ****         /* Write full characters */
 129:.\Generated_Source\PSoC4/LCD_Char_BarGraph.c ****         for(count8 = 0u; count8 < fullChars; count8++)
 130              		.loc 1 129 0
 131 002e 0024     		mov	r4, #0
 132 0030 04E0     		b	.L6
 133              	.LVL20:
 134              	.L7:
 130:.\Generated_Source\PSoC4/LCD_Char_BarGraph.c ****         {
 131:.\Generated_Source\PSoC4/LCD_Char_BarGraph.c ****             LCD_Char_WriteData(LCD_Char_CUSTOM_5);
 135              		.loc 1 131 0 discriminator 3
 136 0032 0520     		mov	r0, #5
 137 0034 FFF7FEFF 		bl	LCD_Char_WriteData
 138              	.LVL21:
 129:.\Generated_Source\PSoC4/LCD_Char_BarGraph.c ****         {
 139              		.loc 1 129 0 discriminator 3
 140 0038 0134     		add	r4, r4, #1
 141              	.LVL22:
 142 003a E4B2     		uxtb	r4, r4
 143              	.LVL23:
 144              	.L6:
 129:.\Generated_Source\PSoC4/LCD_Char_BarGraph.c ****         {
 145              		.loc 1 129 0 is_stmt 0 discriminator 1
 146 003c AC42     		cmp	r4, r5
 147 003e F8D3     		bcc	.L7
 132:.\Generated_Source\PSoC4/LCD_Char_BarGraph.c ****         }
 133:.\Generated_Source\PSoC4/LCD_Char_BarGraph.c **** 
 134:.\Generated_Source\PSoC4/LCD_Char_BarGraph.c ****         if(fullChars < maxCharacters)
ARM GAS  C:\Users\ÑÏÍþºÀ\AppData\Local\Temp\cckUwzcx.s 			page 6


 148              		.loc 1 134 0 is_stmt 1
 149 0040 B542     		cmp	r5, r6
 150 0042 11D2     		bcs	.L4
 135:.\Generated_Source\PSoC4/LCD_Char_BarGraph.c ****         {
 136:.\Generated_Source\PSoC4/LCD_Char_BarGraph.c ****             /* Write remaining pixels */
 137:.\Generated_Source\PSoC4/LCD_Char_BarGraph.c ****             LCD_Char_WriteData(remainingPixels);
 151              		.loc 1 137 0
 152 0044 381C     		mov	r0, r7
 153 0046 FFF7FEFF 		bl	LCD_Char_WriteData
 154              	.LVL24:
 138:.\Generated_Source\PSoC4/LCD_Char_BarGraph.c **** 
 139:.\Generated_Source\PSoC4/LCD_Char_BarGraph.c ****             if(fullChars < (maxCharacters - 1u))
 155              		.loc 1 139 0
 156 004a 731E     		sub	r3, r6, #1
 157 004c 9D42     		cmp	r5, r3
 158 004e 06D3     		bcc	.L12
 159 0050 0AE0     		b	.L4
 160              	.L10:
 140:.\Generated_Source\PSoC4/LCD_Char_BarGraph.c ****             {
 141:.\Generated_Source\PSoC4/LCD_Char_BarGraph.c ****                 /* Fill with whitespace to end of bar graph */
 142:.\Generated_Source\PSoC4/LCD_Char_BarGraph.c ****                 for(count8 = 0u; count8 < (maxCharacters - fullChars - 1u); count8++)
 143:.\Generated_Source\PSoC4/LCD_Char_BarGraph.c ****                 {
 144:.\Generated_Source\PSoC4/LCD_Char_BarGraph.c ****                     LCD_Char_WriteData(LCD_Char_CUSTOM_0);
 161              		.loc 1 144 0 discriminator 3
 162 0052 0020     		mov	r0, #0
 163 0054 FFF7FEFF 		bl	LCD_Char_WriteData
 164              	.LVL25:
 142:.\Generated_Source\PSoC4/LCD_Char_BarGraph.c ****                 {
 165              		.loc 1 142 0 discriminator 3
 166 0058 0134     		add	r4, r4, #1
 167              	.LVL26:
 168 005a E4B2     		uxtb	r4, r4
 169              	.LVL27:
 170 005c 00E0     		b	.L9
 171              	.L12:
 172 005e 0024     		mov	r4, #0
 173              	.LVL28:
 174              	.L9:
 142:.\Generated_Source\PSoC4/LCD_Char_BarGraph.c ****                 {
 175              		.loc 1 142 0 is_stmt 0 discriminator 1
 176 0060 731B     		sub	r3, r6, r5
 177 0062 013B     		sub	r3, r3, #1
 178 0064 9C42     		cmp	r4, r3
 179 0066 F4D3     		bcc	.L10
 180              	.L4:
 145:.\Generated_Source\PSoC4/LCD_Char_BarGraph.c ****                 }
 146:.\Generated_Source\PSoC4/LCD_Char_BarGraph.c ****             }
 147:.\Generated_Source\PSoC4/LCD_Char_BarGraph.c ****         }
 148:.\Generated_Source\PSoC4/LCD_Char_BarGraph.c ****     }
 181              		.loc 1 148 0 is_stmt 1
 182 0068 03B0     		add	sp, sp, #12
 183              		@ sp needed
 184              	.LVL29:
 185              	.LVL30:
 186              	.LVL31:
 187 006a F0BD     		pop	{r4, r5, r6, r7, pc}
 188              		.cfi_endproc
ARM GAS  C:\Users\ÑÏÍþºÀ\AppData\Local\Temp\cckUwzcx.s 			page 7


 189              	.LFE1:
 190              		.size	LCD_Char_DrawHorizontalBG, .-LCD_Char_DrawHorizontalBG
 191              		.global	LCD_Char_customFonts
 192              		.section	.rodata
 193              		.align	2
 194              		.type	LCD_Char_customFonts, %object
 195              		.size	LCD_Char_customFonts, 64
 196              	LCD_Char_customFonts:
 197 0000 00       		.byte	0
 198 0001 00       		.byte	0
 199 0002 00       		.byte	0
 200 0003 00       		.byte	0
 201 0004 00       		.byte	0
 202 0005 00       		.byte	0
 203 0006 00       		.byte	0
 204 0007 00       		.byte	0
 205 0008 10       		.byte	16
 206 0009 10       		.byte	16
 207 000a 10       		.byte	16
 208 000b 10       		.byte	16
 209 000c 10       		.byte	16
 210 000d 10       		.byte	16
 211 000e 10       		.byte	16
 212 000f 10       		.byte	16
 213 0010 18       		.byte	24
 214 0011 18       		.byte	24
 215 0012 18       		.byte	24
 216 0013 18       		.byte	24
 217 0014 18       		.byte	24
 218 0015 18       		.byte	24
 219 0016 18       		.byte	24
 220 0017 18       		.byte	24
 221 0018 1C       		.byte	28
 222 0019 1C       		.byte	28
 223 001a 1C       		.byte	28
 224 001b 1C       		.byte	28
 225 001c 1C       		.byte	28
 226 001d 1C       		.byte	28
 227 001e 1C       		.byte	28
 228 001f 1C       		.byte	28
 229 0020 1E       		.byte	30
 230 0021 1E       		.byte	30
 231 0022 1E       		.byte	30
 232 0023 1E       		.byte	30
 233 0024 1E       		.byte	30
 234 0025 1E       		.byte	30
 235 0026 1E       		.byte	30
 236 0027 1E       		.byte	30
 237 0028 1F       		.byte	31
 238 0029 1F       		.byte	31
 239 002a 1F       		.byte	31
 240 002b 1F       		.byte	31
 241 002c 1F       		.byte	31
 242 002d 1F       		.byte	31
 243 002e 1F       		.byte	31
 244 002f 1F       		.byte	31
 245 0030 00       		.byte	0
ARM GAS  C:\Users\ÑÏÍþºÀ\AppData\Local\Temp\cckUwzcx.s 			page 8


 246 0031 00       		.byte	0
 247 0032 00       		.byte	0
 248 0033 00       		.byte	0
 249 0034 00       		.byte	0
 250 0035 00       		.byte	0
 251 0036 00       		.byte	0
 252 0037 00       		.byte	0
 253 0038 00       		.byte	0
 254 0039 00       		.byte	0
 255 003a 00       		.byte	0
 256 003b 00       		.byte	0
 257 003c 00       		.byte	0
 258 003d 00       		.byte	0
 259 003e 00       		.byte	0
 260 003f 00       		.byte	0
 261              		.text
 262              	.Letext0:
 263              		.file 2 ".\\Generated_Source\\PSoC4\\LCD_Char.h"
 264              		.file 3 ".\\Generated_Source\\PSoC4\\cytypes.h"