ARM GAS  C:\Users\ADMINI~1\AppData\Local\Temp\ccSOJpsr.s 			page 1


   1              		.cpu cortex-m0
   2              		.fpu softvfp
   3              		.eabi_attribute 20, 1
   4              		.eabi_attribute 21, 1
   5              		.eabi_attribute 23, 3
   6              		.eabi_attribute 24, 1
   7              		.eabi_attribute 25, 1
   8              		.eabi_attribute 26, 1
   9              		.eabi_attribute 30, 1
  10              		.eabi_attribute 34, 0
  11              		.eabi_attribute 18, 4
  12              		.code	16
  13              		.file	"main.c"
  14              		.text
  15              	.Ltext0:
  16              		.cfi_sections	.debug_frame
  17              		.global	__aeabi_idiv
  18              		.global	__aeabi_i2f
  19              		.global	__aeabi_fmul
  20              		.global	__aeabi_fdiv
  21              		.global	__aeabi_fadd
  22              		.global	__aeabi_f2iz
  23              		.section	.text.InterruptHandler,"ax",%progbits
  24              		.align	2
  25              		.global	InterruptHandler
  26              		.code	16
  27              		.thumb_func
  28              		.type	InterruptHandler, %function
  29              	InterruptHandler:
  30              	.LFB33:
  31              		.file 1 ".\\main.c"
   1:.\main.c      **** 
   2:.\main.c      **** #include <project.h>
   3:.\main.c      **** #include <stdio.h>
   4:.\main.c      **** #include <stdlib.h>
   5:.\main.c      **** 
   6:.\main.c      **** extern uint8 const CYCODE LCD_Char_1_customFonts[];
   7:.\main.c      **** 
   8:.\main.c      **** //ÂáΩÊï∞Â£∞Êòé
   9:.\main.c      **** char *IntToString(char *str, const int num);
  10:.\main.c      **** void LCDDisplay(const char *str1, const char *str2, const char *str3, const char *str4);
  11:.\main.c      **** void ServoPWM(int left, int right);
  12:.\main.c      **** void InitializeComponents();
  13:.\main.c      **** int constrain(int x);
  14:.\main.c      **** 
  15:.\main.c      **** //PIDÊéßÂà∂ÂèÇÊï∞
  16:.\main.c      **** const float P1 = 7;   //4
  17:.\main.c      **** const float I1 = 0;   //0.02
  18:.\main.c      **** const float D1 = 3;   //0.005
  19:.\main.c      **** 
  20:.\main.c      **** //‰∏éÂ¢ôÁöÑË∑ùÁ¶ªÁöÑÂèÇËÄÉÂÄº, reference input, Áî®‰∫é‰∏éÁ∫¢Â§ñ‰º†ÊÑüÂô®ÁöÑËøîÂõûÂÄºËøõË°åÊØîËæÉ
  21:.\main.c      **** const int16 I_dist = 18*5; //18
  22:.\main.c      **** 
  23:.\main.c      **** //Áî®‰∫éËÆ∞ÂΩïÊï∞ÊçÆÁöÑÂèÇÊï∞
  24:.\main.c      **** int16 dist = 0;
  25:.\main.c      **** uint16 dFIFO[100];
  26:.\main.c      **** int16 rR_Adjust = 0;  //Âè≥ËΩÆÁöÑPWMÂÄºË∞ÉÊï¥Èáè
ARM GAS  C:\Users\ADMINI~1\AppData\Local\Temp\ccSOJpsr.s 			page 2


  27:.\main.c      **** int16 derror = 0;        //ÊØî‰æãÈ°π
  28:.\main.c      **** int16 derror1 = 0;       //‰∏ä‰∏ÄÊ¨°ÊØî‰æãÈ°π
  29:.\main.c      **** int16 derror_error = 0;  //ÂæÆÂàÜÈ°π
  30:.\main.c      **** int16 dSum_error = 0;    //ÁßØÂàÜÈ°π
  31:.\main.c      **** int16 All_dist = 0;
  32:.\main.c      **** int16 dnum = 0;
  33:.\main.c      **** int8 dn = 1;
  34:.\main.c      **** 
  35:.\main.c      **** int8 i = 0;
  36:.\main.c      **** int dis = 0;
  37:.\main.c      **** 
  38:.\main.c      **** //‰∏≠Êñ≠Á®ãÂ∫è, Áî®‰∫é‰∫ßÁîüËÆ°Êó∂‰∏≠Êñ≠
  39:.\main.c      **** CY_ISR(InterruptHandler)
  40:.\main.c      **** {
  32              		.loc 1 40 0
  33              		.cfi_startproc
  34 0000 F8B5     		push	{r3, r4, r5, r6, r7, lr}
  35              		.cfi_def_cfa_offset 24
  36              		.cfi_offset 3, -24
  37              		.cfi_offset 4, -20
  38              		.cfi_offset 5, -16
  39              		.cfi_offset 6, -12
  40              		.cfi_offset 7, -8
  41              		.cfi_offset 14, -4
  41:.\main.c      ****     Timer_1_ReadStatusRegister();
  42              		.loc 1 41 0
  43 0002 FFF7FEFF 		bl	Timer_1_ReadStatusRegister
  44              	.LVL0:
  42:.\main.c      ****     
  43:.\main.c      ****     if(i < 100)
  45              		.loc 1 43 0
  46 0006 294B     		ldr	r3, .L4
  47 0008 1B78     		ldrb	r3, [r3]
  48 000a 5AB2     		sxtb	r2, r3
  49 000c 632A     		cmp	r2, #99
  50 000e 0BDC     		bgt	.L2
  44:.\main.c      ****     {
  45:.\main.c      ****         dFIFO[i] = dis;
  51              		.loc 1 45 0
  52 0010 101C     		mov	r0, r2
  53 0012 264A     		ldr	r2, .L4
  54 0014 9488     		ldrh	r4, [r2, #4]
  55 0016 4000     		lsl	r0, r0, #1
  56 0018 2549     		ldr	r1, .L4+4
  57 001a 4452     		strh	r4, [r0, r1]
  46:.\main.c      ****         All_dist = All_dist + dis;              
  58              		.loc 1 46 0
  59 001c 1189     		ldrh	r1, [r2, #8]
  60 001e 6118     		add	r1, r4, r1
  61 0020 1181     		strh	r1, [r2, #8]
  47:.\main.c      ****         ++i;
  62              		.loc 1 47 0
  63 0022 0133     		add	r3, r3, #1
  64 0024 1370     		strb	r3, [r2]
  65 0026 3FE0     		b	.L1
  66              	.L2:
  48:.\main.c      ****     }
ARM GAS  C:\Users\ADMINI~1\AppData\Local\Temp\ccSOJpsr.s 			page 3


  49:.\main.c      ****     else
  50:.\main.c      ****     {
  51:.\main.c      ****         i = 0;
  67              		.loc 1 51 0
  68 0028 204C     		ldr	r4, .L4
  69 002a 0025     		mov	r5, #0
  70 002c 2570     		strb	r5, [r4]
  52:.\main.c      ****         //ÂΩìÂâçÁöÑË∑ùÁ¶ªÂèñ100‰∏™Ê£ÄÊµãÂÄºÁöÑÂπ≥ÂùáÂÄºÔºåÂèØ‰ª•ÂáèÂ∞è‰º†ÊÑüÂô®ËøîÂõûÊï∞ÂÄºË∑≥ÂèòÁö
  53:.\main.c      ****         dist = All_dist / 100;
  71              		.loc 1 53 0
  72 002e 0823     		mov	r3, #8
  73 0030 E05E     		ldrsh	r0, [r4, r3]
  74 0032 6421     		mov	r1, #100
  75 0034 FFF7FEFF 		bl	__aeabi_idiv
  76              	.LVL1:
  77 0038 86B2     		uxth	r6, r0
  78 003a 6681     		strh	r6, [r4, #10]
  54:.\main.c      ****         All_dist=0;
  79              		.loc 1 54 0
  80 003c 2581     		strh	r5, [r4, #8]
  55:.\main.c      ****         //Ëé∑ÂèñPID‰∏≠ÁöÑÊØî‰æã„ÄÅÁßØÂàÜ„ÄÅÂæÆÂàÜÈ°π
  56:.\main.c      ****         derror=I_dist - dist;
  81              		.loc 1 56 0
  82 003e 5A23     		mov	r3, #90
  83 0040 9E1B     		sub	r6, r3, r6
  84 0042 B6B2     		uxth	r6, r6
  85 0044 B0B2     		uxth	r0, r6
  86 0046 A081     		strh	r0, [r4, #12]
  57:.\main.c      ****         derror_error=derror-derror1;    
  87              		.loc 1 57 0
  88 0048 E589     		ldrh	r5, [r4, #14]
  89 004a 751B     		sub	r5, r6, r5
  90 004c ADB2     		uxth	r5, r5
  91 004e 2582     		strh	r5, [r4, #16]
  58:.\main.c      ****         derror1=derror;     
  92              		.loc 1 58 0
  93 0050 E081     		strh	r0, [r4, #14]
  59:.\main.c      ****         dSum_error=dSum_error+derror;
  94              		.loc 1 59 0
  95 0052 638A     		ldrh	r3, [r4, #18]
  96 0054 F618     		add	r6, r6, r3
  97 0056 B6B2     		uxth	r6, r6
  98 0058 6682     		strh	r6, [r4, #18]
  60:.\main.c      ****         //ÈÄöËøáPIDÂÖ¨ÂºèÂæóÂà∞Âè≥ËΩÆPWMÂÄºÁöÑË∞ÉÊï¥Èáè
  61:.\main.c      ****         rR_Adjust=P1*derror / 5 + I1*dSum_error / 5 + D1*derror_error;  
  99              		.loc 1 61 0
 100 005a 00B2     		sxth	r0, r0
 101 005c FFF7FEFF 		bl	__aeabi_i2f
 102              	.LVL2:
 103 0060 1449     		ldr	r1, .L4+8
 104 0062 FFF7FEFF 		bl	__aeabi_fmul
 105              	.LVL3:
 106 0066 1449     		ldr	r1, .L4+12
 107 0068 FFF7FEFF 		bl	__aeabi_fdiv
 108              	.LVL4:
 109 006c 071C     		add	r7, r0, #0
 110 006e 30B2     		sxth	r0, r6
ARM GAS  C:\Users\ADMINI~1\AppData\Local\Temp\ccSOJpsr.s 			page 4


 111 0070 FFF7FEFF 		bl	__aeabi_i2f
 112              	.LVL5:
 113 0074 0021     		mov	r1, #0
 114 0076 FFF7FEFF 		bl	__aeabi_fmul
 115              	.LVL6:
 116 007a 0F49     		ldr	r1, .L4+12
 117 007c FFF7FEFF 		bl	__aeabi_fdiv
 118              	.LVL7:
 119 0080 011C     		add	r1, r0, #0
 120 0082 381C     		add	r0, r7, #0
 121 0084 FFF7FEFF 		bl	__aeabi_fadd
 122              	.LVL8:
 123 0088 061C     		add	r6, r0, #0
 124 008a 28B2     		sxth	r0, r5
 125 008c FFF7FEFF 		bl	__aeabi_i2f
 126              	.LVL9:
 127 0090 0A49     		ldr	r1, .L4+16
 128 0092 FFF7FEFF 		bl	__aeabi_fmul
 129              	.LVL10:
 130 0096 011C     		add	r1, r0, #0
 131 0098 301C     		add	r0, r6, #0
 132 009a FFF7FEFF 		bl	__aeabi_fadd
 133              	.LVL11:
 134 009e FFF7FEFF 		bl	__aeabi_f2iz
 135              	.LVL12:
 136 00a2 80B2     		uxth	r0, r0
  62:.\main.c      ****         rR_Adjust = -rR_Adjust;
 137              		.loc 1 62 0
 138 00a4 4042     		neg	r0, r0
 139 00a6 A082     		strh	r0, [r4, #20]
 140              	.L1:
  63:.\main.c      ****     }
  64:.\main.c      **** }
 141              		.loc 1 64 0
 142              		@ sp needed
 143 00a8 F8BD     		pop	{r3, r4, r5, r6, r7, pc}
 144              	.L5:
 145 00aa C046     		.align	2
 146              	.L4:
 147 00ac 00000000 		.word	.LANCHOR0
 148 00b0 00000000 		.word	dFIFO
 149 00b4 0000E040 		.word	1088421888
 150 00b8 0000A040 		.word	1084227584
 151 00bc 00004040 		.word	1077936128
 152              		.cfi_endproc
 153              	.LFE33:
 154              		.size	InterruptHandler, .-InterruptHandler
 155              		.section	.text.IntToString,"ax",%progbits
 156              		.align	2
 157              		.global	IntToString
 158              		.code	16
 159              		.thumb_func
 160              		.type	IntToString, %function
 161              	IntToString:
 162              	.LFB35:
  65:.\main.c      **** 
  66:.\main.c      **** //‰∏ªÁ®ãÂ∫è
ARM GAS  C:\Users\ADMINI~1\AppData\Local\Temp\ccSOJpsr.s 			page 5


  67:.\main.c      **** //Â∞èËΩ¶ÂÖ±Êúâ3Áßçstate, state = 1: Áõ¥Ë°åÔºõ state = 2: Ê≤øÂ¢ôÂ∑¶ËΩ¨; state = 3: Á¢∞ÊíûÂêéÂè≥ËΩ¨
  68:.\main.c      **** int main()
  69:.\main.c      **** {
  70:.\main.c      ****     //ÂàùÂßãÂåñÂô®‰ª∂
  71:.\main.c      ****     InitializeComponents();
  72:.\main.c      ****     uint32 adc_result = 0;
  73:.\main.c      ****     //Áî®‰∫éÂ≠òË¥ÆÊòæÁ§∫Âú®Êï∞Á†ÅÁâà‰∏äÁöÑÂ≠óÁ¨¶
  74:.\main.c      ****     char string1[15],string2[15], string3[15], string4[15];
  75:.\main.c      ****     //ÂàùÂßãÂåñÂ∞èËΩ¶Áä∂ÊÄÅ‰∏∫Áõ¥Ë°å
  76:.\main.c      ****     uint8 state = 1;
  77:.\main.c      ****     
  78:.\main.c      ****     for(;;)
  79:.\main.c      ****     {               
  80:.\main.c      ****         //Ëé∑ÂèñÁ∫¢Â§ñ‰º†ÊÑüÂô®ËøîÂõûÁöÑ‰∏éÂ¢ôË∑ùÁ¶ªÂÄº
  81:.\main.c      ****         ADC_SAR_Seq_IsEndConversion(ADC_SAR_Seq_WAIT_FOR_RESULT);         
  82:.\main.c      ****         adc_result = ADC_SAR_Seq_GetResult16(0);   
  83:.\main.c      ****         if(adc_result > 0x7FFF)
  84:.\main.c      ****            adc_result = 0;                
  85:.\main.c      ****         if(adc_result > 0)
  86:.\main.c      ****             //ÊãÖÂøÉÁî±‰∫éÊï∞Â≠óÂèòÂåñËåÉÂõ¥Â∞èÔºåË∞ÉËäÇÈáèÂèòÂåñ‰∏çÂ§ßÔºåË∞ÉËäÇÊïàÊûú‰∏çÂ•ΩÔºåËøõË
  87:.\main.c      ****             dis = (0.5/(0.00002*adc_result -0.00045)-2) * 5;  
  88:.\main.c      ****         
  89:.\main.c      ****         //Â∞èËΩ¶3ÁßçÁä∂ÊÄÅÁöÑËΩ¨Âåñ
  90:.\main.c      ****         if (state == 1)
  91:.\main.c      ****         {   
  92:.\main.c      ****             //Â¶ÇÊûúË∑ùÁ¶ªÁ™ÅÁÑ∂ÂèòÂæóÂæàÂ§ßÔºå‰ªéÁõ¥Ë°åÁä∂ÊÄÅËΩ¨ÂåñÊàêÊ≤øÂ¢ôÂ∑¶ËΩ¨Áä∂ÊÄÅ
  93:.\main.c      ****             if(dis > 38 * 5)
  94:.\main.c      ****             {   
  95:.\main.c      ****                 //ÂÖà‰øùÊåÅ‰∏ÄÊÆµÁõ¥Ë°åÁä∂ÊÄÅ
  96:.\main.c      ****                 ServoPWM(4150, 5178 + rR_Adjust);
  97:.\main.c      ****                 CyDelay(315);
  98:.\main.c      ****                 state = 2;
  99:.\main.c      ****             }
 100:.\main.c      ****         }
 101:.\main.c      ****         else if (state == 2)
 102:.\main.c      ****         {   
 103:.\main.c      ****             //Â¶ÇÊûú‰∏éÂ¢ôË∑ùÁ¶ªÂõûÂ§çÂà∞Ê≠£Â∏∏ËåÉÂõ¥Ôºå‰ªéÊ≤øÂ¢ôÂ∑¶ËΩ¨Áä∂ÊÄÅÊÅ¢Â§çÂà∞Áõ¥Ë°åÁä∂ÊÄÅÔ
 104:.\main.c      ****             if (dis < 20 * 5)
 105:.\main.c      ****             { 
 106:.\main.c      ****                 dSum_error *= 0.3;
 107:.\main.c      ****                 state = 1;
 108:.\main.c      ****             }
 109:.\main.c      ****         }
 110:.\main.c      ****         else if (state == 3) 
 111:.\main.c      ****         {   
 112:.\main.c      ****             //Á¢∞ÊíûÂêéÂ¶ÇÊûú‰∏éÂ¢ôË∑ùÁ¶ªÂæàÂ§ßÔºåÂàôËøõÂÖ•Ê≤øÂ¢ôÂ∑¶ËΩ¨Áä∂ÊÄÅÔºåÂê¶ÂàôËøõÂÖ•Áõ¥Ë°åÁ
 113:.\main.c      ****             if(dis > 38 * 5)
 114:.\main.c      ****             {
 115:.\main.c      ****                 ServoPWM(4150, 5178 + rR_Adjust);
 116:.\main.c      ****                 state = 2;
 117:.\main.c      ****             }
 118:.\main.c      ****             else
 119:.\main.c      ****             state = 1;
 120:.\main.c      ****         }
 121:.\main.c      ****                                
 122:.\main.c      ****         //Ëé∑ÂèñÁ¢∞Êíû‰º†ÊÑüÂô®ÁöÑËøîÂõûÂÄº
 123:.\main.c      ****         if(Button_Read() > 0)
ARM GAS  C:\Users\ADMINI~1\AppData\Local\Temp\ccSOJpsr.s 			page 6


 124:.\main.c      ****         {
 125:.\main.c      ****             state = 3;
 126:.\main.c      ****             LCDDisplay(IntToString(string1, state), IntToString(string2, derror), IntToString(strin
 127:.\main.c      ****         }
 128:.\main.c      ****         
 129:.\main.c      ****         //Ê†πÊçÆÂ∞èËΩ¶ÁöÑÂΩìÂâçÁä∂ÊÄÅËøõË°åÁîµÊú∫ÁöÑÊéßÂà∂
 130:.\main.c      ****         switch(state)
 131:.\main.c      ****         {   
 132:.\main.c      ****             //Áõ¥Ë°åstate 1
 133:.\main.c      ****             case 1:
 134:.\main.c      ****                 if(rR_Adjust < 0)
 135:.\main.c      ****                     rR_Adjust *= 2; //ÈúÄË¶ÅÂêëÂ§ñÊãêÔºå‰ΩÜÊòØË∞ÉÊï¥ÁöÑ‰∏çÂ§üÂø´ÔºåÊâÄ‰ª•ËøõË°å‰∫Ü*
 136:.\main.c      ****                 else
 137:.\main.c      ****                     rR_Adjust *= 1.5; //ÂêëÂÜÖÊãêÔºåË∞ÉÊï¥‰∏çÂ§üÂø´ÔºåÊâÄ‰ª•ËøõË°å‰∫Ü*1.5Â§ÑÁêÜ    
 138:.\main.c      ****                 rR_Adjust = constrain(rR_Adjust); //ÂØπË∞ÉÊï¥ÈáèÊï∞ÂÄºËøõË°åÈôêÂà∂
 139:.\main.c      ****                 ServoPWM(4100, 5178 + rR_Adjust); //ÊéßÂà∂ÁîµÊú∫PWMÂèÇÊï∞
 140:.\main.c      ****                 break;
 141:.\main.c      ****             case 2: 
 142:.\main.c      ****                 ServoPWM(4278, 5300 + rR_Adjust); //ÊéßÂà∂Â∞èËΩ¶ËøõË°åÂ∑¶ËΩ¨
 143:.\main.c      ****                 break;
 144:.\main.c      ****             case 3: 
 145:.\main.c      ****                 ServoPWM(5700, 4000); //ÂÖàÂêëÂè≥ÂêéÊñπÈÄÄ
 146:.\main.c      ****                 CyDelay(450);
 147:.\main.c      ****                 ServoPWM(3850, 4250); //ÂÜçÂêëÂè≥ËΩ¨
 148:.\main.c      ****                 CyDelay(800);
 149:.\main.c      ****                 break;
 150:.\main.c      ****             default: 
 151:.\main.c      ****                 break;
 152:.\main.c      ****         }
 153:.\main.c      ****     
 154:.\main.c      ****         //ÈÄöËøáLCDÊòæÁ§∫‰∏Ä‰∫õËßÇÂØü‰ø°ÊÅØ
 155:.\main.c      ****         LCDDisplay(IntToString(string1, state), IntToString(string2, derror), IntToString(string3, 
 156:.\main.c      ****         
 157:.\main.c      ****         CyDelay(100); //Á®ãÂ∫èÂª∂Êó∂, ÈÅøÂÖçÂà∑Êñ∞Â§™Âø´
 158:.\main.c      ****     }
 159:.\main.c      ****     
 160:.\main.c      ****     return 0;
 161:.\main.c      **** }
 162:.\main.c      **** 
 163:.\main.c      **** //Â∞ÜÊï∞Â≠óËΩ¨ÂåñÊàêÂ≠óÁ¨¶‰∏≤ÂáΩÊï∞
 164:.\main.c      **** char *IntToString(char *str, const int num)
 165:.\main.c      **** {
 163              		.loc 1 165 0
 164              		.cfi_startproc
 165              	.LVL13:
 166 0000 10B5     		push	{r4, lr}
 167              		.cfi_def_cfa_offset 8
 168              		.cfi_offset 4, -8
 169              		.cfi_offset 14, -4
 170 0002 041C     		mov	r4, r0
 171 0004 0A1C     		mov	r2, r1
 166:.\main.c      ****     sprintf(str, "%d", num);
 172              		.loc 1 166 0
 173 0006 0249     		ldr	r1, .L7
 174              	.LVL14:
 175 0008 FFF7FEFF 		bl	sprintf
 176              	.LVL15:
ARM GAS  C:\Users\ADMINI~1\AppData\Local\Temp\ccSOJpsr.s 			page 7


 167:.\main.c      ****     return str;
 168:.\main.c      **** }
 177              		.loc 1 168 0
 178 000c 201C     		mov	r0, r4
 179              		@ sp needed
 180              	.LVL16:
 181 000e 10BD     		pop	{r4, pc}
 182              	.L8:
 183              		.align	2
 184              	.L7:
 185 0010 00000000 		.word	.LC2
 186              		.cfi_endproc
 187              	.LFE35:
 188              		.size	IntToString, .-IntToString
 189              		.section	.text.LCDDisplay,"ax",%progbits
 190              		.align	2
 191              		.global	LCDDisplay
 192              		.code	16
 193              		.thumb_func
 194              		.type	LCDDisplay, %function
 195              	LCDDisplay:
 196              	.LFB36:
 169:.\main.c      **** 
 170:.\main.c      **** //Â∞ÜÂ≠óÁ¨¶ÊòæÁ§∫Âú®Êï∞Á†ÅÊùø‰∏äÁöÑÂáΩÊï∞
 171:.\main.c      **** void LCDDisplay(const char *str1, const char *str2, const char *str3, const char *str4)
 172:.\main.c      **** {
 197              		.loc 1 172 0
 198              		.cfi_startproc
 199              	.LVL17:
 200 0000 F8B5     		push	{r3, r4, r5, r6, r7, lr}
 201              		.cfi_def_cfa_offset 24
 202              		.cfi_offset 3, -24
 203              		.cfi_offset 4, -20
 204              		.cfi_offset 5, -16
 205              		.cfi_offset 6, -12
 206              		.cfi_offset 7, -8
 207              		.cfi_offset 14, -4
 208 0002 071C     		mov	r7, r0
 209 0004 0E1C     		mov	r6, r1
 210 0006 151C     		mov	r5, r2
 211 0008 1C1C     		mov	r4, r3
 173:.\main.c      ****     LCD_Char_ClearDisplay();
 212              		.loc 1 173 0
 213 000a 0120     		mov	r0, #1
 214              	.LVL18:
 215 000c FFF7FEFF 		bl	LCD_Char_WriteControl
 216              	.LVL19:
 174:.\main.c      ****     LCD_Char_Position(0, 0);
 217              		.loc 1 174 0
 218 0010 0020     		mov	r0, #0
 219 0012 0021     		mov	r1, #0
 220 0014 FFF7FEFF 		bl	LCD_Char_Position
 221              	.LVL20:
 175:.\main.c      ****     LCD_Char_PrintString(str1);
 222              		.loc 1 175 0
 223 0018 381C     		mov	r0, r7
 224 001a FFF7FEFF 		bl	LCD_Char_PrintString
ARM GAS  C:\Users\ADMINI~1\AppData\Local\Temp\ccSOJpsr.s 			page 8


 225              	.LVL21:
 176:.\main.c      ****     LCD_Char_Position(0, 10);
 226              		.loc 1 176 0
 227 001e 0020     		mov	r0, #0
 228 0020 0A21     		mov	r1, #10
 229 0022 FFF7FEFF 		bl	LCD_Char_Position
 230              	.LVL22:
 177:.\main.c      ****     LCD_Char_PrintString(str2);
 231              		.loc 1 177 0
 232 0026 301C     		mov	r0, r6
 233 0028 FFF7FEFF 		bl	LCD_Char_PrintString
 234              	.LVL23:
 178:.\main.c      ****     LCD_Char_Position(1, 0);
 235              		.loc 1 178 0
 236 002c 0120     		mov	r0, #1
 237 002e 0021     		mov	r1, #0
 238 0030 FFF7FEFF 		bl	LCD_Char_Position
 239              	.LVL24:
 179:.\main.c      ****     LCD_Char_PrintString(str3);
 240              		.loc 1 179 0
 241 0034 281C     		mov	r0, r5
 242 0036 FFF7FEFF 		bl	LCD_Char_PrintString
 243              	.LVL25:
 180:.\main.c      ****     LCD_Char_Position(1,10);
 244              		.loc 1 180 0
 245 003a 0120     		mov	r0, #1
 246 003c 0A21     		mov	r1, #10
 247 003e FFF7FEFF 		bl	LCD_Char_Position
 248              	.LVL26:
 181:.\main.c      ****     LCD_Char_PrintString(str4);
 249              		.loc 1 181 0
 250 0042 201C     		mov	r0, r4
 251 0044 FFF7FEFF 		bl	LCD_Char_PrintString
 252              	.LVL27:
 182:.\main.c      **** }
 253              		.loc 1 182 0
 254              		@ sp needed
 255              	.LVL28:
 256              	.LVL29:
 257              	.LVL30:
 258              	.LVL31:
 259 0048 F8BD     		pop	{r3, r4, r5, r6, r7, pc}
 260              		.cfi_endproc
 261              	.LFE36:
 262              		.size	LCDDisplay, .-LCDDisplay
 263 004a C046     		.section	.text.ServoPWM,"ax",%progbits
 264              		.align	2
 265              		.global	ServoPWM
 266              		.code	16
 267              		.thumb_func
 268              		.type	ServoPWM, %function
 269              	ServoPWM:
 270              	.LFB37:
 183:.\main.c      **** 
 184:.\main.c      **** //ÊéßÂà∂ÁîµÊú∫ËΩ¨ÈÄüÁöÑÂáΩÊï∞
 185:.\main.c      **** void ServoPWM(int left, int right)
 186:.\main.c      **** {
ARM GAS  C:\Users\ADMINI~1\AppData\Local\Temp\ccSOJpsr.s 			page 9


 271              		.loc 1 186 0
 272              		.cfi_startproc
 273              	.LVL32:
 274 0000 10B5     		push	{r4, lr}
 275              		.cfi_def_cfa_offset 8
 276              		.cfi_offset 4, -8
 277              		.cfi_offset 14, -4
 278 0002 0C1C     		mov	r4, r1
 187:.\main.c      ****     PWM_1_WriteCompare(left);
 279              		.loc 1 187 0
 280 0004 FFF7FEFF 		bl	PWM_1_WriteCompare
 281              	.LVL33:
 188:.\main.c      ****     PWM_2_WriteCompare(right);
 282              		.loc 1 188 0
 283 0008 201C     		mov	r0, r4
 284 000a FFF7FEFF 		bl	PWM_2_WriteCompare
 285              	.LVL34:
 189:.\main.c      **** }
 286              		.loc 1 189 0
 287              		@ sp needed
 288              	.LVL35:
 289 000e 10BD     		pop	{r4, pc}
 290              		.cfi_endproc
 291              	.LFE37:
 292              		.size	ServoPWM, .-ServoPWM
 293              		.section	.text.InitializeComponents,"ax",%progbits
 294              		.align	2
 295              		.global	InitializeComponents
 296              		.code	16
 297              		.thumb_func
 298              		.type	InitializeComponents, %function
 299              	InitializeComponents:
 300              	.LFB38:
 190:.\main.c      **** 
 191:.\main.c      **** //ÂàùÂßãÂåñÂô®‰ª∂ÂáΩÊï∞
 192:.\main.c      **** void InitializeComponents()
 193:.\main.c      **** {
 301              		.loc 1 193 0
 302              		.cfi_startproc
 303 0000 08B5     		push	{r3, lr}
 304              		.cfi_def_cfa_offset 8
 305              		.cfi_offset 3, -8
 306              		.cfi_offset 14, -4
 194:.\main.c      ****     CyGlobalIntEnable;
 307              		.loc 1 194 0
 308              	@ 194 ".\main.c" 1
 309 0002 62B6     		CPSIE   i
 310              	@ 0 "" 2
 195:.\main.c      ****     
 196:.\main.c      ****     ADC_SAR_Seq_Start();
 311              		.loc 1 196 0
 312              		.code	16
 313 0004 FFF7FEFF 		bl	ADC_SAR_Seq_Start
 314              	.LVL36:
 197:.\main.c      ****     ADC_SAR_Seq_StartConvert();
 315              		.loc 1 197 0
 316 0008 FFF7FEFF 		bl	ADC_SAR_Seq_StartConvert
ARM GAS  C:\Users\ADMINI~1\AppData\Local\Temp\ccSOJpsr.s 			page 10


 317              	.LVL37:
 198:.\main.c      ****     
 199:.\main.c      ****     LCD_Char_Start();
 318              		.loc 1 199 0
 319 000c FFF7FEFF 		bl	LCD_Char_Start
 320              	.LVL38:
 200:.\main.c      ****     LCD_Char_LoadCustomFonts(LCD_Char_customFonts);
 321              		.loc 1 200 0
 322 0010 0748     		ldr	r0, .L12
 323 0012 FFF7FEFF 		bl	LCD_Char_LoadCustomFonts
 324              	.LVL39:
 201:.\main.c      ****     
 202:.\main.c      ****     PWM_1_Start();
 325              		.loc 1 202 0
 326 0016 FFF7FEFF 		bl	PWM_1_Start
 327              	.LVL40:
 203:.\main.c      ****     PWM_2_Start();
 328              		.loc 1 203 0
 329 001a FFF7FEFF 		bl	PWM_2_Start
 330              	.LVL41:
 204:.\main.c      ****     
 205:.\main.c      ****     isr_1_StartEx(InterruptHandler); 
 331              		.loc 1 205 0
 332 001e 0548     		ldr	r0, .L12+4
 333 0020 FFF7FEFF 		bl	isr_1_StartEx
 334              	.LVL42:
 206:.\main.c      ****     Timer_1_Enable(); 
 335              		.loc 1 206 0
 336 0024 FFF7FEFF 		bl	Timer_1_Enable
 337              	.LVL43:
 207:.\main.c      ****     Timer_1_Start();
 338              		.loc 1 207 0
 339 0028 FFF7FEFF 		bl	Timer_1_Start
 340              	.LVL44:
 208:.\main.c      **** }
 341              		.loc 1 208 0
 342              		@ sp needed
 343 002c 08BD     		pop	{r3, pc}
 344              	.L13:
 345 002e C046     		.align	2
 346              	.L12:
 347 0030 00000000 		.word	LCD_Char_customFonts
 348 0034 00000000 		.word	InterruptHandler
 349              		.cfi_endproc
 350              	.LFE38:
 351              		.size	InitializeComponents, .-InitializeComponents
 352              		.section	.text.constrain,"ax",%progbits
 353              		.align	2
 354              		.global	constrain
 355              		.code	16
 356              		.thumb_func
 357              		.type	constrain, %function
 358              	constrain:
 359              	.LFB39:
 209:.\main.c      **** 
 210:.\main.c      **** //ÈôêÂà∂Êï∞ÂÄºÁöÑ‰øùÊä§ÂáΩÊï∞
 211:.\main.c      **** int constrain(int x)
ARM GAS  C:\Users\ADMINI~1\AppData\Local\Temp\ccSOJpsr.s 			page 11


 212:.\main.c      **** {
 360              		.loc 1 212 0
 361              		.cfi_startproc
 362              	.LVL45:
 213:.\main.c      ****     if(x > 250)
 363              		.loc 1 213 0
 364 0000 FA28     		cmp	r0, #250
 365 0002 03DC     		bgt	.L16
 214:.\main.c      ****         x = 250;
 215:.\main.c      ****     else if(x < -250)
 366              		.loc 1 215 0
 367 0004 031C     		mov	r3, r0
 368 0006 FA33     		add	r3, r3, #250
 369 0008 04DA     		bge	.L15
 370 000a 01E0     		b	.L17
 371              	.L16:
 214:.\main.c      ****         x = 250;
 372              		.loc 1 214 0
 373 000c FA20     		mov	r0, #250
 374              	.LVL46:
 375 000e 01E0     		b	.L15
 376              	.LVL47:
 377              	.L17:
 216:.\main.c      ****         x = -250;
 378              		.loc 1 216 0
 379 0010 FA20     		mov	r0, #250
 380              	.LVL48:
 381 0012 4042     		neg	r0, r0
 382              	.L15:
 383              	.LVL49:
 217:.\main.c      ****     return x;
 218:.\main.c      **** }
 384              		.loc 1 218 0
 385              		@ sp needed
 386 0014 7047     		bx	lr
 387              		.cfi_endproc
 388              	.LFE39:
 389              		.size	constrain, .-constrain
 390              		.global	__aeabi_ui2d
 391              		.global	__aeabi_dmul
 392              		.global	__aeabi_dsub
 393              		.global	__aeabi_ddiv
 394              		.global	__aeabi_d2iz
 395              		.global	__aeabi_i2d
 396 0016 C046     		.section	.text.main,"ax",%progbits
 397              		.align	2
 398              		.global	main
 399              		.code	16
 400              		.thumb_func
 401              		.type	main, %function
 402              	main:
 403              	.LFB34:
  69:.\main.c      ****     //ÂàùÂßãÂåñÂô®‰ª∂
 404              		.loc 1 69 0
 405              		.cfi_startproc
 406 0000 F0B5     		push	{r4, r5, r6, r7, lr}
 407              		.cfi_def_cfa_offset 20
ARM GAS  C:\Users\ADMINI~1\AppData\Local\Temp\ccSOJpsr.s 			page 12


 408              		.cfi_offset 4, -20
 409              		.cfi_offset 5, -16
 410              		.cfi_offset 6, -12
 411              		.cfi_offset 7, -8
 412              		.cfi_offset 14, -4
 413 0002 93B0     		sub	sp, sp, #76
 414              		.cfi_def_cfa_offset 96
  71:.\main.c      ****     uint32 adc_result = 0;
 415              		.loc 1 71 0
 416 0004 FFF7FEFF 		bl	InitializeComponents
 417              	.LVL50:
  76:.\main.c      ****     
 418              		.loc 1 76 0
 419 0008 0124     		mov	r4, #1
 420              	.LVL51:
 421              	.L31:
  81:.\main.c      ****         adc_result = ADC_SAR_Seq_GetResult16(0);   
 422              		.loc 1 81 0
 423 000a 0220     		mov	r0, #2
 424 000c FFF7FEFF 		bl	ADC_SAR_Seq_IsEndConversion
 425              	.LVL52:
  82:.\main.c      ****         if(adc_result > 0x7FFF)
 426              		.loc 1 82 0
 427 0010 0020     		mov	r0, #0
 428 0012 FFF7FEFF 		bl	ADC_SAR_Seq_GetResult16
 429              	.LVL53:
  83:.\main.c      ****            adc_result = 0;                
 430              		.loc 1 83 0
 431 0016 714B     		ldr	r3, .L34
 432 0018 9842     		cmp	r0, r3
 433 001a 00D9     		bls	.L19
  84:.\main.c      ****         if(adc_result > 0)
 434              		.loc 1 84 0
 435 001c 0020     		mov	r0, #0
 436              	.LVL54:
 437              	.L19:
  85:.\main.c      ****             //ÊãÖÂøÉÁî±‰∫éÊï∞Â≠óÂèòÂåñËåÉÂõ¥Â∞èÔºåË∞ÉËäÇÈáèÂèòÂåñ‰∏çÂ§ßÔºåË∞ÉËäÇÊïàÊûú‰∏çÂ•ΩÔºåËøõË
 438              		.loc 1 85 0
 439 001e 0028     		cmp	r0, #0
 440 0020 1CD0     		beq	.L20
  87:.\main.c      ****         
 441              		.loc 1 87 0
 442 0022 FFF7FEFF 		bl	__aeabi_ui2d
 443              	.LVL55:
 444 0026 6E4A     		ldr	r2, .L34+4
 445 0028 6E4B     		ldr	r3, .L34+8
 446 002a FFF7FEFF 		bl	__aeabi_dmul
 447              	.LVL56:
 448 002e 6E4A     		ldr	r2, .L34+12
 449 0030 6E4B     		ldr	r3, .L34+16
 450 0032 FFF7FEFF 		bl	__aeabi_dsub
 451              	.LVL57:
 452 0036 021C     		mov	r2, r0
 453 0038 0B1C     		mov	r3, r1
 454 003a 0020     		mov	r0, #0
 455 003c 6C49     		ldr	r1, .L34+20
 456 003e FFF7FEFF 		bl	__aeabi_ddiv
ARM GAS  C:\Users\ADMINI~1\AppData\Local\Temp\ccSOJpsr.s 			page 13


 457              	.LVL58:
 458 0042 0022     		mov	r2, #0
 459 0044 8023     		mov	r3, #128
 460 0046 DB05     		lsl	r3, r3, #23
 461 0048 FFF7FEFF 		bl	__aeabi_dsub
 462              	.LVL59:
 463 004c 0022     		mov	r2, #0
 464 004e 694B     		ldr	r3, .L34+24
 465 0050 FFF7FEFF 		bl	__aeabi_dmul
 466              	.LVL60:
 467 0054 FFF7FEFF 		bl	__aeabi_d2iz
 468              	.LVL61:
 469 0058 674B     		ldr	r3, .L34+28
 470 005a 5860     		str	r0, [r3, #4]
 471              	.L20:
  90:.\main.c      ****         {   
 472              		.loc 1 90 0
 473 005c 012C     		cmp	r4, #1
 474 005e 12D1     		bne	.L21
  93:.\main.c      ****             {   
 475              		.loc 1 93 0
 476 0060 654B     		ldr	r3, .L34+28
 477 0062 5B68     		ldr	r3, [r3, #4]
 478 0064 BE2B     		cmp	r3, #190
 479 0066 34DD     		ble	.L22
  96:.\main.c      ****                 CyDelay(315);
 480              		.loc 1 96 0
 481 0068 634B     		ldr	r3, .L34+28
 482 006a 1421     		mov	r1, #20
 483 006c 595E     		ldrsh	r1, [r3, r1]
 484 006e 634B     		ldr	r3, .L34+32
 485 0070 9C46     		mov	ip, r3
 486 0072 6144     		add	r1, r1, ip
 487 0074 6248     		ldr	r0, .L34+36
 488 0076 FFF7FEFF 		bl	ServoPWM
 489              	.LVL62:
  97:.\main.c      ****                 state = 2;
 490              		.loc 1 97 0
 491 007a 3C20     		mov	r0, #60
 492 007c FF30     		add	r0, r0, #255
 493 007e FFF7FEFF 		bl	CyDelay
 494              	.LVL63:
  98:.\main.c      ****             }
 495              		.loc 1 98 0
 496 0082 0134     		add	r4, r4, #1
 497 0084 25E0     		b	.L22
 498              	.LVL64:
 499              	.L21:
 101:.\main.c      ****         {   
 500              		.loc 1 101 0
 501 0086 022C     		cmp	r4, #2
 502 0088 11D1     		bne	.L23
 104:.\main.c      ****             { 
 503              		.loc 1 104 0
 504 008a 5B4B     		ldr	r3, .L34+28
 505 008c 5B68     		ldr	r3, [r3, #4]
 506 008e 632B     		cmp	r3, #99
ARM GAS  C:\Users\ADMINI~1\AppData\Local\Temp\ccSOJpsr.s 			page 14


 507 0090 1FDC     		bgt	.L22
 106:.\main.c      ****                 state = 1;
 508              		.loc 1 106 0
 509 0092 594C     		ldr	r4, .L34+28
 510              	.LVL65:
 511 0094 1223     		mov	r3, #18
 512 0096 E05E     		ldrsh	r0, [r4, r3]
 513 0098 FFF7FEFF 		bl	__aeabi_i2d
 514              	.LVL66:
 515 009c 594A     		ldr	r2, .L34+40
 516 009e 5A4B     		ldr	r3, .L34+44
 517 00a0 FFF7FEFF 		bl	__aeabi_dmul
 518              	.LVL67:
 519 00a4 FFF7FEFF 		bl	__aeabi_d2iz
 520              	.LVL68:
 521 00a8 6082     		strh	r0, [r4, #18]
 522              	.LVL69:
 107:.\main.c      ****             }
 523              		.loc 1 107 0
 524 00aa 0124     		mov	r4, #1
 525 00ac 11E0     		b	.L22
 526              	.LVL70:
 527              	.L23:
 110:.\main.c      ****         {   
 528              		.loc 1 110 0
 529 00ae 032C     		cmp	r4, #3
 530 00b0 0FD1     		bne	.L22
 113:.\main.c      ****             {
 531              		.loc 1 113 0
 532 00b2 514B     		ldr	r3, .L34+28
 533 00b4 5B68     		ldr	r3, [r3, #4]
 534 00b6 BE2B     		cmp	r3, #190
 535 00b8 0ADD     		ble	.L33
 115:.\main.c      ****                 state = 2;
 536              		.loc 1 115 0
 537 00ba 4F4B     		ldr	r3, .L34+28
 538 00bc 1421     		mov	r1, #20
 539 00be 595E     		ldrsh	r1, [r3, r1]
 540 00c0 4E4B     		ldr	r3, .L34+32
 541 00c2 9C46     		mov	ip, r3
 542 00c4 6144     		add	r1, r1, ip
 543 00c6 4E48     		ldr	r0, .L34+36
 544 00c8 FFF7FEFF 		bl	ServoPWM
 545              	.LVL71:
 116:.\main.c      ****             }
 546              		.loc 1 116 0
 547 00cc 013C     		sub	r4, r4, #1
 548 00ce 00E0     		b	.L22
 549              	.LVL72:
 550              	.L33:
 119:.\main.c      ****         }
 551              		.loc 1 119 0
 552 00d0 0124     		mov	r4, #1
 553              	.LVL73:
 554              	.L22:
 123:.\main.c      ****         {
 555              		.loc 1 123 0
ARM GAS  C:\Users\ADMINI~1\AppData\Local\Temp\ccSOJpsr.s 			page 15


 556 00d2 FFF7FEFF 		bl	Button_Read
 557              	.LVL74:
 558 00d6 0028     		cmp	r0, #0
 559 00d8 1CD0     		beq	.L24
 560              	.LVL75:
 126:.\main.c      ****         }
 561              		.loc 1 126 0
 562 00da 0EA8     		add	r0, sp, #56
 563 00dc 0321     		mov	r1, #3
 564 00de FFF7FEFF 		bl	IntToString
 565              	.LVL76:
 566 00e2 071C     		mov	r7, r0
 567 00e4 444C     		ldr	r4, .L34+28
 568 00e6 0C23     		mov	r3, #12
 569 00e8 E15E     		ldrsh	r1, [r4, r3]
 570 00ea 0AA8     		add	r0, sp, #40
 571 00ec FFF7FEFF 		bl	IntToString
 572              	.LVL77:
 573 00f0 061C     		mov	r6, r0
 574 00f2 06A8     		add	r0, sp, #24
 575 00f4 6168     		ldr	r1, [r4, #4]
 576 00f6 FFF7FEFF 		bl	IntToString
 577              	.LVL78:
 578 00fa 051C     		mov	r5, r0
 579 00fc 1423     		mov	r3, #20
 580 00fe E15E     		ldrsh	r1, [r4, r3]
 581 0100 02A8     		add	r0, sp, #8
 582 0102 FFF7FEFF 		bl	IntToString
 583              	.LVL79:
 584 0106 031C     		mov	r3, r0
 585 0108 381C     		mov	r0, r7
 586 010a 311C     		mov	r1, r6
 587 010c 2A1C     		mov	r2, r5
 588 010e FFF7FEFF 		bl	LCDDisplay
 589              	.LVL80:
 125:.\main.c      ****             LCDDisplay(IntToString(string1, state), IntToString(string2, derror), IntToString(strin
 590              		.loc 1 125 0
 591 0112 0324     		mov	r4, #3
 592              	.LVL81:
 593              	.L24:
 130:.\main.c      ****         {   
 594              		.loc 1 130 0
 595 0114 022C     		cmp	r4, #2
 596 0116 25D0     		beq	.L26
 597 0118 032C     		cmp	r4, #3
 598 011a 2DD0     		beq	.L27
 599 011c 012C     		cmp	r4, #1
 600 011e 3CD1     		bne	.L25
 134:.\main.c      ****                     rR_Adjust *= 2; //ÈúÄË¶ÅÂêëÂ§ñÊãêÔºå‰ΩÜÊòØË∞ÉÊï¥ÁöÑ‰∏çÂ§üÂø´ÔºåÊâÄ‰ª•ËøõË°å‰∫Ü*
 601              		.loc 1 134 0
 602 0120 354B     		ldr	r3, .L34+28
 603 0122 988A     		ldrh	r0, [r3, #20]
 604 0124 03B2     		sxth	r3, r0
 605 0126 002B     		cmp	r3, #0
 606 0128 03DA     		bge	.L29
 135:.\main.c      ****                 else
 607              		.loc 1 135 0
ARM GAS  C:\Users\ADMINI~1\AppData\Local\Temp\ccSOJpsr.s 			page 16


 608 012a 4000     		lsl	r0, r0, #1
 609 012c 324B     		ldr	r3, .L34+28
 610 012e 9882     		strh	r0, [r3, #20]
 611 0130 0AE0     		b	.L30
 612              	.L29:
 137:.\main.c      ****                 rR_Adjust = constrain(rR_Adjust); //ÂØπË∞ÉÊï¥ÈáèÊï∞ÂÄºËøõË°åÈôêÂà∂
 613              		.loc 1 137 0
 614 0132 00B2     		sxth	r0, r0
 615 0134 FFF7FEFF 		bl	__aeabi_i2d
 616              	.LVL82:
 617 0138 0022     		mov	r2, #0
 618 013a 344B     		ldr	r3, .L34+48
 619 013c FFF7FEFF 		bl	__aeabi_dmul
 620              	.LVL83:
 621 0140 FFF7FEFF 		bl	__aeabi_d2iz
 622              	.LVL84:
 623 0144 2C4B     		ldr	r3, .L34+28
 624 0146 9882     		strh	r0, [r3, #20]
 625              	.L30:
 138:.\main.c      ****                 ServoPWM(4100, 5178 + rR_Adjust); //ÊéßÂà∂ÁîµÊú∫PWMÂèÇÊï∞
 626              		.loc 1 138 0
 627 0148 2B4D     		ldr	r5, .L34+28
 628 014a 1423     		mov	r3, #20
 629 014c E85E     		ldrsh	r0, [r5, r3]
 630 014e FFF7FEFF 		bl	constrain
 631              	.LVL85:
 632 0152 80B2     		uxth	r0, r0
 633 0154 A882     		strh	r0, [r5, #20]
 139:.\main.c      ****                 break;
 634              		.loc 1 139 0
 635 0156 00B2     		sxth	r0, r0
 636 0158 284B     		ldr	r3, .L34+32
 637 015a C118     		add	r1, r0, r3
 638 015c 2C48     		ldr	r0, .L34+52
 639 015e FFF7FEFF 		bl	ServoPWM
 640              	.LVL86:
 140:.\main.c      ****             case 2: 
 641              		.loc 1 140 0
 642 0162 1AE0     		b	.L25
 643              	.L26:
 142:.\main.c      ****                 break;
 644              		.loc 1 142 0
 645 0164 244B     		ldr	r3, .L34+28
 646 0166 1421     		mov	r1, #20
 647 0168 595E     		ldrsh	r1, [r3, r1]
 648 016a 2A4B     		ldr	r3, .L34+56
 649 016c 9C46     		mov	ip, r3
 650 016e 6144     		add	r1, r1, ip
 651 0170 2948     		ldr	r0, .L34+60
 652 0172 FFF7FEFF 		bl	ServoPWM
 653              	.LVL87:
 143:.\main.c      ****             case 3: 
 654              		.loc 1 143 0
 655 0176 10E0     		b	.L25
 656              	.L27:
 145:.\main.c      ****                 CyDelay(450);
 657              		.loc 1 145 0
ARM GAS  C:\Users\ADMINI~1\AppData\Local\Temp\ccSOJpsr.s 			page 17


 658 0178 2848     		ldr	r0, .L34+64
 659 017a FA21     		mov	r1, #250
 660 017c 0901     		lsl	r1, r1, #4
 661 017e FFF7FEFF 		bl	ServoPWM
 662              	.LVL88:
 146:.\main.c      ****                 ServoPWM(3850, 4250); //ÂÜçÂêëÂè≥ËΩ¨
 663              		.loc 1 146 0
 664 0182 E120     		mov	r0, #225
 665 0184 4000     		lsl	r0, r0, #1
 666 0186 FFF7FEFF 		bl	CyDelay
 667              	.LVL89:
 147:.\main.c      ****                 CyDelay(800);
 668              		.loc 1 147 0
 669 018a 2548     		ldr	r0, .L34+68
 670 018c 2549     		ldr	r1, .L34+72
 671 018e FFF7FEFF 		bl	ServoPWM
 672              	.LVL90:
 148:.\main.c      ****                 break;
 673              		.loc 1 148 0
 674 0192 C820     		mov	r0, #200
 675 0194 8000     		lsl	r0, r0, #2
 676 0196 FFF7FEFF 		bl	CyDelay
 677              	.LVL91:
 678              	.L25:
 155:.\main.c      ****         
 679              		.loc 1 155 0
 680 019a 0EA8     		add	r0, sp, #56
 681 019c 211C     		mov	r1, r4
 682 019e FFF7FEFF 		bl	IntToString
 683              	.LVL92:
 684 01a2 071C     		mov	r7, r0
 685 01a4 144D     		ldr	r5, .L34+28
 686 01a6 0C23     		mov	r3, #12
 687 01a8 E95E     		ldrsh	r1, [r5, r3]
 688 01aa 0AA8     		add	r0, sp, #40
 689 01ac FFF7FEFF 		bl	IntToString
 690              	.LVL93:
 691 01b0 061C     		mov	r6, r0
 692 01b2 06A8     		add	r0, sp, #24
 693 01b4 6968     		ldr	r1, [r5, #4]
 694 01b6 FFF7FEFF 		bl	IntToString
 695              	.LVL94:
 696 01ba 0190     		str	r0, [sp, #4]
 697 01bc 1423     		mov	r3, #20
 698 01be E95E     		ldrsh	r1, [r5, r3]
 699 01c0 02A8     		add	r0, sp, #8
 700 01c2 FFF7FEFF 		bl	IntToString
 701              	.LVL95:
 702 01c6 031C     		mov	r3, r0
 703 01c8 381C     		mov	r0, r7
 704 01ca 311C     		mov	r1, r6
 705 01cc 019A     		ldr	r2, [sp, #4]
 706 01ce FFF7FEFF 		bl	LCDDisplay
 707              	.LVL96:
 157:.\main.c      ****     }
 708              		.loc 1 157 0
 709 01d2 6420     		mov	r0, #100
ARM GAS  C:\Users\ADMINI~1\AppData\Local\Temp\ccSOJpsr.s 			page 18


 710 01d4 FFF7FEFF 		bl	CyDelay
 711              	.LVL97:
 158:.\main.c      ****     
 712              		.loc 1 158 0
 713 01d8 17E7     		b	.L31
 714              	.L35:
 715 01da C046     		.align	2
 716              	.L34:
 717 01dc FF7F0000 		.word	32767
 718 01e0 F168E388 		.word	-1998362383
 719 01e4 B5F8F43E 		.word	1056241845
 720 01e8 92CB7F48 		.word	1216334738
 721 01ec BF7D3D3F 		.word	1060994495
 722 01f0 0000E03F 		.word	1071644672
 723 01f4 00001440 		.word	1075052544
 724 01f8 00000000 		.word	.LANCHOR0
 725 01fc 3A140000 		.word	5178
 726 0200 36100000 		.word	4150
 727 0204 33333333 		.word	858993459
 728 0208 3333D33F 		.word	1070805811
 729 020c 0000F83F 		.word	1073217536
 730 0210 04100000 		.word	4100
 731 0214 B4140000 		.word	5300
 732 0218 B6100000 		.word	4278
 733 021c 44160000 		.word	5700
 734 0220 0A0F0000 		.word	3850
 735 0224 9A100000 		.word	4250
 736              		.cfi_endproc
 737              	.LFE34:
 738              		.size	main, .-main
 739              		.global	dis
 740              		.global	i
 741              		.global	dn
 742              		.global	dnum
 743              		.global	All_dist
 744              		.global	dSum_error
 745              		.global	derror_error
 746              		.global	derror1
 747              		.global	derror
 748              		.global	rR_Adjust
 749              		.comm	dFIFO,200,4
 750              		.global	dist
 751              		.global	I_dist
 752              		.global	D1
 753              		.global	I1
 754              		.global	P1
 755              		.section	.rodata
 756              		.align	2
 757              		.type	I_dist, %object
 758              		.size	I_dist, 2
 759              	I_dist:
 760 0000 5A00     		.short	90
 761 0002 0000     		.space	2
 762              		.type	D1, %object
 763              		.size	D1, 4
 764              	D1:
 765 0004 00004040 		.word	1077936128
ARM GAS  C:\Users\ADMINI~1\AppData\Local\Temp\ccSOJpsr.s 			page 19


 766              		.type	I1, %object
 767              		.size	I1, 4
 768              	I1:
 769 0008 00000000 		.space	4
 770              		.type	P1, %object
 771              		.size	P1, 4
 772              	P1:
 773 000c 0000E040 		.word	1088421888
 774              		.data
 775              		.type	dn, %object
 776              		.size	dn, 1
 777              	dn:
 778 0000 01       		.byte	1
 779              		.section	.rodata.str1.4,"aMS",%progbits,1
 780              		.align	2
 781              	.LC2:
 782 0000 256400   		.ascii	"%d\000"
 783 0003 00       		.bss
 784              		.align	2
 785              		.set	.LANCHOR0,. + 0
 786              		.type	i, %object
 787              		.size	i, 1
 788              	i:
 789 0000 00       		.space	1
 790 0001 000000   		.space	3
 791              		.type	dis, %object
 792              		.size	dis, 4
 793              	dis:
 794 0004 00000000 		.space	4
 795              		.type	All_dist, %object
 796              		.size	All_dist, 2
 797              	All_dist:
 798 0008 0000     		.space	2
 799              		.type	dist, %object
 800              		.size	dist, 2
 801              	dist:
 802 000a 0000     		.space	2
 803              		.type	derror, %object
 804              		.size	derror, 2
 805              	derror:
 806 000c 0000     		.space	2
 807              		.type	derror1, %object
 808              		.size	derror1, 2
 809              	derror1:
 810 000e 0000     		.space	2
 811              		.type	derror_error, %object
 812              		.size	derror_error, 2
 813              	derror_error:
 814 0010 0000     		.space	2
 815              		.type	dSum_error, %object
 816              		.size	dSum_error, 2
 817              	dSum_error:
 818 0012 0000     		.space	2
 819              		.type	rR_Adjust, %object
 820              		.size	rR_Adjust, 2
 821              	rR_Adjust:
 822 0014 0000     		.space	2
ARM GAS  C:\Users\ADMINI~1\AppData\Local\Temp\ccSOJpsr.s 			page 20


 823              		.type	dnum, %object
 824              		.size	dnum, 2
 825              	dnum:
 826 0016 0000     		.space	2
 827              		.text
 828              	.Letext0:
 829              		.file 2 "Generated_Source\\PSoC4/cytypes.h"
 830              		.file 3 "Generated_Source\\PSoC4/LCD_Char.h"
 831              		.file 4 "Generated_Source\\PSoC4/PWM_1.h"
 832              		.file 5 "Generated_Source\\PSoC4/PWM_2.h"
 833              		.file 6 "Generated_Source\\PSoC4/ADC_SAR_Seq.h"
 834              		.file 7 "Generated_Source\\PSoC4/isr_1.h"
 835              		.file 8 "Generated_Source\\PSoC4/Timer_1.h"
 836              		.file 9 "c:\\software\\cypress\\psoc creator\\3.3\\psoc creator\\import\\gnu\\arm\\4.9.3\\arm-none
 837              		.file 10 "Generated_Source\\PSoC4/CyLib.h"
 838              		.file 11 "Generated_Source\\PSoC4/Button.h"